;******************************************************************************
;* TMS320C3x/4x ANSI C Code Generator                            Version 5.11 *
;* Date/Time created: Thu Sep 17 04:53:23 2015                                *
;******************************************************************************
	.regalias	; enable floating point register aliases
fp	.set	ar3
FP	.set	ar3
;******************************************************************************
;* GLOBAL FILE PARAMETERS                                                     *
;*                                                                            *
;*   Optimization       : Always Choose Smaller Code Size                     *
;*   Memory             : Small Memory Model                                  *
;*   Float-to-Int       : Normal Conversions (round toward zero)              *
;*   Multiply           : in Hardware (24 bits max)                           *
;*   Memory Info        : Unmapped Memory Exists                              *
;*   Repeat Loops       : Use RPTS and/or RPTB                                *
;*   Calls              : Normal Library ASM calls                            *
;*   Debug Info         : Optimized TI Debug Information                      *
;******************************************************************************
;	c:\lang\tms320c3x\511\bin\ac30.exe user.c C:\Users\JDS\AppData\Local\Temp\user.if 
	.file	"user.c"
	.file	"stdio.h"
	.sym	_size_t,0,14,13,32
	.stag	.fake0,224
	.member	_fd,0,4,8,32
	.member	_buf,32,28,8,32
	.member	_pos,64,28,8,32
	.member	_bufend,96,28,8,32
	.member	_buff_stop,128,28,8,32
	.member	_flags,160,14,8,32
	.member	_index,192,4,8,32
	.eos
	.sym	_FILE,0,8,13,224,.fake0
	.sym	_fpos_t,0,5,13,32
	.stag	.fake1,544
	.member	_name,0,50,8,288,,9
	.member	_flags,288,13,8,32
	.member	_OPEN,320,148,8,32
	.member	_CLOSE,352,148,8,32
	.member	_READ,384,148,8,32
	.member	_WRITE,416,148,8,32
	.member	_LSEEK,448,149,8,32
	.member	_UNLINK,480,148,8,32
	.member	_RENAME,512,148,8,32
	.eos
	.sym	__DEVICE,0,8,13,544,.fake1
	.file	"string.h"
	.file	"def.h"
	.sym	_WORD,0,13,13,32
	.sym	_USHORT,0,13,13,32
	.sym	_BYTE,0,12,13,32
	.sym	_UCHAR,0,12,13,32
	.sym	_UINT,0,14,13,32
	.sym	_BOOL,0,4,13,32
	.sym	_DWORD,0,15,13,32
	.file	"ds1647.h"
	.stag	.fake3,32
	.member	_R,6,4,18,1
	.member	_W,7,4,18,1
	.eos
	.stag	.fake4,32
	.member	_Sec,0,4,18,7
	.member	_Osc,7,4,18,1
	.eos
	.stag	.fake5,32
	.member	_Day,0,4,18,3
	.member	_SPare2,3,4,18,3
	.member	_FT,6,4,18,1
	.member	_Spare1,7,4,18,1
	.eos
	.utag	.fake2,32
	.member	_CtrlBit,0,8,11,32,.fake3
	.member	_SecBit,0,8,11,32,.fake4
	.member	_DayBit,0,8,11,32,.fake5
	.member	_B8,0,12,11,32
	.eos
	.sym	_DS1647ONELTP,0,9,13,32,.fake2
	.sym	_PDS1647ONELTP,0,25,13,32,.fake2
	.stag	.fake6,256
	.member	_Ctrl,0,9,8,32,.fake2
	.member	_Second,32,9,8,32,.fake2
	.member	_Minute,64,9,8,32,.fake2
	.member	_Hour,96,9,8,32,.fake2
	.member	_Day,128,9,8,32,.fake2
	.member	_Date,160,9,8,32,.fake2
	.member	_Month,192,9,8,32,.fake2
	.member	_Year,224,9,8,32,.fake2
	.eos
	.sym	_DS1647BDY,0,8,13,256,.fake6
	.sym	_PDS1647BDY,0,24,13,32,.fake6
	.stag	.fake7,224
	.member	_second,0,12,8,32
	.member	_minute,32,12,8,32
	.member	_hour,64,12,8,32
	.member	_day,96,12,8,32
	.member	_month,128,12,8,32
	.member	_year,160,12,8,32
	.member	_weekday,192,12,8,32
	.eos
	.sym	_DATE_TIME_TYPE,0,8,13,224,.fake7
	.sym	_DATE_TIME_PTR,0,24,13,32,.fake7
	.file	"main.h"
	.file	"MpuDebug.h"
	.file	"user.h"
	.stag	.fake8,6400
	.member	_btStx,0,12,8,32
	.member	_btCmd,32,12,8,32
	.member	_btMessCode,64,12,8,32
	.member	_btLen,96,12,8,32
	.member	_btDat,128,60,8,6272,,196
	.eos
	.sym	_LNWKFTPIT,0,8,13,6400,.fake8
	.sym	_PLNWKFTPIT,0,24,13,32,.fake8
	.stag	.fake9,6400
	.member	_btStx,0,12,8,32
	.member	_btCmd,32,12,8,32
	.member	_btMessCode,64,12,8,32
	.member	_btLen,96,12,8,32
	.member	_btDat,128,60,8,6272,,196
	.eos
	.sym	_LNWKGERIT,0,8,13,6400,.fake9
	.sym	_PLNWKGERIT,0,24,13,32,.fake9
	.stag	.fake10,51712
	.member	_btKind,0,12,8,32
	.member	_btVerH,32,12,8,32
	.member	_btVerL,64,12,8,32
	.member	_btBuildDateHH,96,12,8,32
	.member	_btBuildDateHL,128,12,8,32
	.member	_btBuildDateLH,160,12,8,32
	.member	_btBuildDateLL,192,12,8,32
	.member	_btSpare,224,60,8,288,,9
	.member	_lfBuf,512,56,8,38400,.fake8,6
	.member	_lgRxBuf,38912,8,8,6400,.fake9
	.member	_lgTxBuf,45312,8,8,6400,.fake9
	.eos
	.sym	_LNWKDP,0,8,13,51712,.fake10
	.sym	_PLNWKDP,0,24,13,32,.fake10
	.stag	.fake11,352
	.member	_btSoh,0,12,8,32
	.member	_chSrcDev,32,60,8,64,,2
	.member	_chDestDev,96,60,8,64,,2
	.member	_chMsgCnt,160,60,8,64,,2
	.member	_chCmdCode,224,60,8,64,,2
	.member	_chDataLen,288,60,8,64,,2
	.eos
	.sym	_PTCHD,0,8,13,352,.fake11
	.sym	_PPTCHD,0,24,13,32,.fake11
	.stag	.fake12,768
	.member	_chPacT,0,60,8,64,,2
	.member	_chCcpM,64,60,8,64,,2
	.member	_chCncsT,128,60,8,64,,2
	.member	_chD0,192,60,8,64,,2
	.member	_chD1,256,60,8,64,,2
	.member	_chTran,320,252,8,192,,3,2
	.member	_chCid,512,252,8,192,,3,2
	.member	_chDs,704,60,8,64,,2
	.eos
	.sym	_PROTOCOL_1,0,8,13,768,.fake12
	.stag	.fake13,576
	.member	_phHdBuf,0,8,8,352,.fake11
	.member	_nDdata,352,60,8,64,,2
	.member	_nCRC,416,60,8,128,,4
	.member	_btEot,544,12,8,32
	.eos
	.sym	_PACSDR,0,8,13,576,.fake13
	.sym	_PPACSDR,0,24,13,32,.fake13
	.stag	.fake16,32
	.member	_sACab_ON,0,14,18,1
	.member	_sASp_1,1,14,18,1
	.member	_sASp_2,2,14,18,1
	.member	_sAHead_Bit,3,14,18,1
	.member	_sBCab_ON,4,14,18,1
	.member	_sBSp_1,5,14,18,1
	.member	_sBSp_2,6,14,18,1
	.member	_sBHead_Bit,7,14,18,1
	.eos
	.utag	.fake15,32
	.member	_BYTE,0,14,11,32
	.member	_BIT,0,8,11,32,.fake16
	.eos
	.stag	.fake18,32
	.member	_sAWLR,0,14,18,1
	.member	_sAGPS,1,14,18,1
	.member	_sAVOIP,2,14,18,1
	.member	_sACCP1,3,14,18,1
	.member	_sBWLR,4,14,18,1
	.member	_sBGPS,5,14,18,1
	.member	_sBVOIP,6,14,18,1
	.member	_sBCCP1,7,14,18,1
	.eos
	.utag	.fake17,32
	.member	_BYTE,0,14,11,32
	.member	_BIT,0,8,11,32,.fake18
	.eos
	.stag	.fake20,32
	.member	_sACNCS,0,14,18,1
	.member	_sAVTX,1,14,18,1
	.member	_sALIC,2,14,18,1
	.member	_sAPAC,3,14,18,1
	.member	_sBCNCS,4,14,18,1
	.member	_sBVTX,5,14,18,1
	.member	_sBLIC,6,14,18,1
	.member	_sBPAC,7,14,18,1
	.eos
	.utag	.fake19,32
	.member	_BYTE,0,14,11,32
	.member	_BIT,0,8,11,32,.fake20
	.eos
	.stag	.fake22,32
	.member	_sAPII2,0,14,18,1
	.member	_sAPII1,1,14,18,1
	.member	_sAFDI,2,14,18,1
	.member	_sASp_3,3,14,18,1
	.member	_sBPII2,4,14,18,1
	.member	_sBPII1,5,14,18,1
	.member	_sBFDI,6,14,18,1
	.member	_sBSp_3,7,14,18,1
	.eos
	.utag	.fake21,32
	.member	_BYTE,0,14,11,32
	.member	_BIT,0,8,11,32,.fake22
	.eos
	.stag	.fake24,32
	.member	_sASDI4,0,14,18,1
	.member	_sASDI3,1,14,18,1
	.member	_sASDI2,2,14,18,1
	.member	_sASDI1,3,14,18,1
	.member	_sBSDI4,4,14,18,1
	.member	_sBSDI3,5,14,18,1
	.member	_sBSDI2,6,14,18,1
	.member	_sBSDI1,7,14,18,1
	.eos
	.utag	.fake23,32
	.member	_BYTE,0,14,11,32
	.member	_BIT,0,8,11,32,.fake24
	.eos
	.stag	.fake26,32
	.member	_sAPID1_4,0,14,18,1
	.member	_sAPID1_3,1,14,18,1
	.member	_sAPID1_2,2,14,18,1
	.member	_sAPID1_1,3,14,18,1
	.member	_sBPID1_4,4,14,18,1
	.member	_sBPID1_3,5,14,18,1
	.member	_sBPID1_2,6,14,18,1
	.member	_sBPID1_1,7,14,18,1
	.eos
	.utag	.fake25,32
	.member	_BYTE,0,14,11,32
	.member	_BIT,0,8,11,32,.fake26
	.eos
	.stag	.fake28,32
	.member	_sAPEI1,0,14,18,1
	.member	_sAPEI2,1,14,18,1
	.member	_sASp_3,2,14,18,1
	.member	_sAPID2_1,3,14,18,1
	.member	_sBPEI1,4,14,18,1
	.member	_sBPEI2,5,14,18,1
	.member	_sBSp_3,6,14,18,1
	.member	_sBPID2_1,7,14,18,1
	.eos
	.utag	.fake27,32
	.member	_BYTE,0,14,11,32
	.member	_BIT,0,8,11,32,.fake28
	.eos
	.stag	.fake30,32
	.member	_sAPEI1_Call,0,14,18,1
	.member	_sAPEI2_Call,1,14,18,1
	.member	_sASp_2,2,14,18,1
	.member	_sASp_3,3,14,18,1
	.member	_sBPEI1_Call,4,14,18,1
	.member	_sBPEI2_Call,5,14,18,1
	.member	_sBSp_2,6,14,18,1
	.member	_sBSp_3,7,14,18,1
	.eos
	.utag	.fake29,32
	.member	_BYTE,0,14,11,32
	.member	_BIT,0,8,11,32,.fake30
	.eos
	.stag	.fake32,32
	.member	_sADPO,0,14,18,1
	.member	_sASp_2,1,14,18,1
	.member	_sASp_3,2,14,18,1
	.member	_sADPH,3,14,18,1
	.member	_sBDPO,4,14,18,1
	.member	_sBSp_2,5,14,18,1
	.member	_sBSp_3,6,14,18,1
	.member	_sBDPH,7,14,18,1
	.eos
	.utag	.fake31,32
	.member	_BYTE,0,14,11,32
	.member	_BIT,0,8,11,32,.fake32
	.eos
	.stag	.fake14,352
	.member	_CRA_1,0,9,8,32,.fake15
	.member	_CRA_2,32,9,8,32,.fake17
	.member	_CRA_3,64,9,8,32,.fake19
	.member	_CRA_4,96,9,8,32,.fake21
	.member	_CRA_5,128,9,8,32,.fake23
	.member	_CRA_6,160,9,8,32,.fake25
	.member	_CRA_7,192,9,8,32,.fake27
	.member	_CRA_8,224,9,8,32,.fake29
	.member	_CRA_9,256,9,8,32,.fake31
	.member	_CarNum_H,288,12,8,32
	.member	_CarNum_L,320,12,8,32
	.eos
	.sym	_CRA_STATION,0,8,13,352,.fake14
	.sym	_PCRA_STATION,0,24,13,32,.fake14
	.stag	.fake33,704
	.member	_sUnitStat,0,252,8,576,,9,2
	.member	_sCarNumBcd_H,576,252,8,64,,1,2
	.member	_sCarNumBcd_L,640,252,8,64,,1,2
	.eos
	.sym	_CARSTAT_PRO,0,8,13,704,.fake33
	.stag	.fake34,7872
	.member	_phHdBuf,0,8,8,352,.fake11
	.member	_sPAC_T,352,60,8,64,,2
	.member	_sC_ID,416,60,8,64,,2
	.member	_sDO,480,60,8,64,,2
	.member	_sD1,544,60,8,64,,2
	.member	_sODM,608,252,8,256,,4,2
	.member	_sANS,864,60,8,64,,2
	.member	_sTRAN_NO,928,252,8,192,,3,2
	.member	_sCRAW_ID,1120,252,8,192,,3,2
	.member	_sTRIP,1312,252,8,192,,3,2
	.member	_sD2,1504,60,8,64,,2
	.member	_sSTST,1568,252,8,128,,2,2
	.member	_sNOST,1696,252,8,128,,2,2
	.member	_sNEST,1824,252,8,128,,2,2
	.member	_sDEST,1952,252,8,128,,2,2
	.member	_sSPK,2080,252,8,128,,2,2
	.member	_sD3,2208,60,8,64,,2
	.member	_sD4,2272,60,8,64,,2
	.member	_sPR,2336,60,8,64,,2
	.member	_sPRVector,2400,252,8,128,,2,2
	.member	_sPACVector,2528,252,8,128,,2,2
	.member	_sFDI_SDI_Color,2656,252,8,128,,2,2
	.member	_sFDI_SDI_Vector1,2784,252,8,128,,2,2
	.member	_sFDI_SDI_Vector2,2912,252,8,128,,2,2
	.member	_sPII_Vector,3040,252,8,128,,2,2
	.member	_sPP_Line_Vector,3168,252,8,128,,2,2
	.member	_sPP_Vector,3296,252,8,128,,2,2
	.member	_sSP_Vector,3424,252,8,128,,2,2
	.member	_sROUTE_SKIP,3552,252,8,640,,10,2
	.member	_sCI_Index,4192,252,8,512,,8,2
	.member	_sCI_Fault,4704,60,8,64,,2
	.member	_sCCI,4768,60,8,64,,2
	.member	_phCRA_Sta,4832,1020,8,2816,,4,11,2
	.member	_sTrainLength,7648,60,8,64,,2
	.member	_nCRC,7712,60,8,128,,4
	.member	_btEot,7840,12,8,32
	.eos
	.sym	_PAC_PAC,0,8,13,7872,.fake34
	.sym	_PPAC_PAC,0,24,13,32,.fake34
	.stag	.fake35,4992
	.member	_phHdBuf,0,8,8,352,.fake11
	.member	_sDO,352,60,8,64,,2
	.member	_sTRAN_NO,416,252,8,192,,3,2
	.member	_sCRAW_ID,608,252,8,192,,3,2
	.member	_sTRIP,800,252,8,192,,3,2
	.member	_sD1,992,60,8,64,,2
	.member	_sSTST,1056,252,8,128,,2,2
	.member	_sNOST,1184,252,8,128,,2,2
	.member	_sNEST,1312,252,8,128,,2,2
	.member	_sDEST,1440,252,8,128,,2,2
	.member	_sSPK,1568,252,8,256,,4,2
	.member	_sD2,1824,252,8,128,,2,2
	.member	_sD3,1952,252,8,128,,2,2
	.member	_sPR,2080,60,8,64,,2
	.member	_sPRVector,2144,252,8,128,,2,2
	.member	_sPACVector,2272,252,8,128,,2,2
	.member	_sFDI_SDI_Color,2400,252,8,128,,2,2
	.member	_sFDI_SDI_Vector1,2528,252,8,128,,2,2
	.member	_sFDI_SDI_Vector2,2656,252,8,128,,2,2
	.member	_sPII_Vector,2784,252,8,128,,2,2
	.member	_sPP_Line_Vector,2912,252,8,128,,2,2
	.member	_sPP_Vector,3040,252,8,128,,2,2
	.member	_sSP_Vector,3168,252,8,128,,2,2
	.member	_sROUTE_SKIP,3296,252,8,640,,10,2
	.member	_sCI_Index,3936,252,8,512,,8,2
	.member	_sYear,4448,60,8,64,,2
	.member	_sMonth,4512,60,8,64,,2
	.member	_sDay,4576,60,8,64,,2
	.member	_sHour,4640,60,8,64,,2
	.member	_sMinute,4704,60,8,64,,2
	.member	_sSecond,4768,60,8,64,,2
	.member	_nCRC,4832,60,8,128,,4
	.member	_btEot,4960,12,8,32
	.eos
	.sym	_CCP_PAC,0,8,13,4992,.fake35
	.sym	_PCCP_PAC,0,24,13,32,.fake35
	.stag	.fake38,32
	.member	_Sp_0,0,14,18,1
	.member	_Sp_1,1,14,18,1
	.member	_CI_Fault,2,14,18,1
	.member	_DST,3,14,18,1
	.member	_Sp_4,4,14,18,1
	.member	_Sp_5,5,14,18,1
	.member	_Sp_6,6,14,18,1
	.member	_Sp_7,7,14,18,1
	.eos
	.utag	.fake37,32
	.member	_BYTE,0,14,11,32
	.member	_BIT,0,8,11,32,.fake38
	.eos
	.stag	.fake40,32
	.member	_Atcive_Cab,0,14,18,1
	.member	_Traction,1,14,18,1
	.member	_EP_Mode,2,14,18,1
	.member	_All_Doors_Closed,3,14,18,1
	.member	_Sp_4,4,14,18,1
	.member	_Sp_5,5,14,18,1
	.member	_Sp_6,6,14,18,1
	.member	_Sp_7,7,14,18,1
	.eos
	.utag	.fake39,32
	.member	_BYTE,0,14,11,32
	.member	_BIT,0,8,11,32,.fake40
	.eos
	.stag	.fake36,768
	.member	_phHdBuf,0,8,8,352,.fake11
	.member	_DATA2,352,9,8,32,.fake37
	.member	_DATA1,384,9,8,32,.fake39
	.member	_CI_Index_Num,416,60,8,64,,2
	.member	_chCarn,480,252,8,128,,2,2
	.member	_nCRC,608,60,8,128,,4
	.member	_btEot,736,12,8,32
	.eos
	.sym	_LICSD,0,8,13,768,.fake36
	.sym	_PLICSDR,0,24,13,32,.fake36
	.stag	.fake41,480
	.member	_btSoh,0,12,8,32
	.member	_chSrcDev,32,60,8,64,,2
	.member	_chDestDev,96,60,8,64,,2
	.member	_chMsgCnt,160,60,8,128,,4
	.member	_chCmdCode,288,60,8,64,,2
	.member	_chDataLen,352,60,8,128,,4
	.eos
	.sym	_CNCSHD,0,8,13,480,.fake41
	.sym	_PCNCSHD,0,24,13,32,.fake41
	.stag	.fake42,10208
	.member	_phHdBuf,0,8,8,480,.fake41
	.member	_sCommand,480,60,8,64,,2
	.member	_sCarKind,544,60,8,64,,2
	.member	_sTextDataAsc,608,60,8,9600,,300
	.eos
	.sym	_LIC_CNCS_HD,0,8,13,10208,.fake42
	.sym	_PLIC_CNCS_HD,0,24,13,32,.fake42
	.stag	.fake43,320
	.member	_chVer,0,50,8,128,,4
	.member	_chBuildDate,128,50,8,192,,6
	.eos
	.sym	_CNCS_LIC_VERBDD_SD,0,8,13,320,.fake43
	.sym	_PCNCS_LIC_VERBDD_SD,0,24,13,32,.fake43
	.stag	.fake44,10336
	.member	_VerCnt,0,13,8,32
	.member	_cvbBuf,32,56,8,10240,.fake43,32
	.member	_CarNum,10272,61,8,64,,2
	.eos
	.sym	_LIC_DPRAM_Ver,0,8,13,10336,.fake44
	.sym	_PLIC_DPRAM_Ver,0,24,13,32,.fake44
	.stag	.fake45,15168
	.member	_phHdBuf,0,8,8,480,.fake41
	.member	_sCommand,480,60,8,64,,2
	.member	_sYear,544,60,8,64,,2
	.member	_sMonth,608,60,8,64,,2
	.member	_sDay,672,60,8,64,,2
	.member	_sHour,736,60,8,64,,2
	.member	_sMinute,800,60,8,64,,2
	.member	_sSecond,864,60,8,64,,2
	.member	_sWaySide,928,60,8,64,,2
	.member	_sDaType,992,60,8,64,,2
	.member	_sFaultTime,1056,60,8,256,,8
	.member	_cvbBuf,1312,56,8,13760,.fake43,43
	.member	_chChkSum,15072,60,8,64,,2
	.member	_btEot,15136,12,8,32
	.eos
	.sym	_CNCS_LIC_SD,0,8,13,15168,.fake45
	.sym	_PCNCS_LIC_SD,0,24,13,32,.fake45
	.stag	.fake46,832
	.member	_phHdBuf,0,8,8,480,.fake41
	.member	_sCommand,480,60,8,64,,2
	.member	_sTEXT,544,60,8,128,,4
	.member	_chContactSignalBuf,672,60,8,64,,2
	.member	_chChkSum,736,60,8,64,,2
	.member	_btEot,800,12,8,32
	.eos
	.sym	_CNCS_LIC_T_F,0,8,13,832,.fake46
	.sym	_PCNCS_LIC_T_F,0,24,13,32,.fake46
	.stag	.fake47,768
	.member	_phHdBuf,0,8,8,480,.fake41
	.member	_sCommand,480,60,8,64,,2
	.member	_sTEXT,544,60,8,128,,4
	.member	_chChkSum,672,60,8,64,,2
	.member	_btEot,736,12,8,32
	.eos
	.sym	_CNCS_LIC_T_F_C,0,8,13,768,.fake47
	.sym	_PCNCS_LIC_T_F_C,0,24,13,32,.fake47
	.stag	.fake48,96
	.member	_sChSum,0,60,8,64,,2
	.member	_sETX,64,12,8,32
	.eos
	.sym	_LIC_CNCS_ED,0,8,13,96,.fake48
	.sym	_PLIC_CNCS_ED,0,24,13,32,.fake48
	.stag	.fake50,32
	.member	_n1VTX,0,14,18,1
	.member	_n2CNCS,1,14,18,1
	.member	_n3PAC2,2,14,18,1
	.member	_n4LIC,3,14,18,1
	.member	_n5WLAN,4,14,18,1
	.member	_n6GPS,5,14,18,1
	.member	_n7PAC1,6,14,18,1
	.member	_n8sp,7,14,18,1
	.eos
	.stag	.fake51,32
	.member	_n1DPO1,0,14,18,1
	.member	_n2DPO2,1,14,18,1
	.member	_n3CCP1,2,14,18,1
	.member	_n4CCP2,3,14,18,1
	.member	_n5TRIC1,4,14,18,1
	.member	_n6TRIC2,5,14,18,1
	.member	_n7TR1,6,14,18,1
	.member	_n8TR2,7,14,18,1
	.eos
	.stag	.fake52,32
	.member	_n1Sp,0,14,18,1
	.member	_n2Sp,1,14,18,1
	.member	_n3CPO1,2,14,18,1
	.member	_n4CPO2,3,14,18,1
	.member	_n5CPO3,4,14,18,1
	.member	_n6CPO4,5,14,18,1
	.member	_n7Sp,6,14,18,1
	.member	_n8Sp,7,14,18,1
	.eos
	.stag	.fake53,32
	.member	_n1PEI1,0,14,18,1
	.member	_n2PEI2,1,14,18,1
	.member	_n3PEI3,2,14,18,1
	.member	_n4PEI4,3,14,18,1
	.member	_n5PEI5,4,14,18,1
	.member	_n6PEI6,5,14,18,1
	.member	_n7FDI1,6,14,18,1
	.member	_n8FDI2,7,14,18,1
	.eos
	.stag	.fake54,32
	.member	_n1SDI1,0,14,18,1
	.member	_n2SDI2,1,14,18,1
	.member	_n3SDI3,2,14,18,1
	.member	_n4SDI4,3,14,18,1
	.member	_n5SDI5,4,14,18,1
	.member	_n6SDI6,5,14,18,1
	.member	_n7SDI7,6,14,18,1
	.member	_n8SDI8,7,14,18,1
	.eos
	.stag	.fake55,32
	.member	_n1PID1_1,0,14,18,1
	.member	_n2PID1_2,1,14,18,1
	.member	_n3PID1_3,2,14,18,1
	.member	_n4PID1_4,3,14,18,1
	.member	_n5PID1_5,4,14,18,1
	.member	_n6PID1_6,5,14,18,1
	.member	_n7PID1_7,6,14,18,1
	.member	_n8PID1_8,7,14,18,1
	.eos
	.stag	.fake56,32
	.member	_n1PID2_1,0,14,18,1
	.member	_n2PID2_2,1,14,18,1
	.member	_n3PID2_3,2,14,18,1
	.member	_n4PID2_4,3,14,18,1
	.member	_n5PII1,4,14,18,1
	.member	_n6PII2,5,14,18,1
	.member	_n7PII3,6,14,18,1
	.member	_n8PII4,7,14,18,1
	.eos
	.stag	.fake49,256
	.member	_BYTE_1,0,8,8,32,.fake50
	.member	_BYTE_2,32,8,8,32,.fake51
	.member	_BYTE_3,64,8,8,32,.fake52
	.member	_BYTE_4,96,8,8,32,.fake53
	.member	_BYTE_5,128,12,8,32
	.member	_BYTE_6,160,8,8,32,.fake54
	.member	_BYTE_7,192,8,8,32,.fake55
	.member	_BYTE_8,224,8,8,32,.fake56
	.eos
	.sym	_COMMSTATUS_PA,0,8,13,256,.fake49
	.sym	_PCOMMSTATUS_PA,0,24,13,32,.fake49
	.stag	.fake59,32
	.member	_nCcp,0,14,18,1
	.member	_nsp,1,14,18,1
	.member	_nVtx,2,14,18,1
	.member	_nVoip,3,14,18,1
	.member	_nPac,4,14,18,1
	.member	_nLic,5,14,18,1
	.member	_nFdi,6,14,18,1
	.member	_nSdi1,7,14,18,1
	.eos
	.utag	.fake58,32
	.member	_BYTE,0,12,11,32
	.member	_BIT,0,8,11,32,.fake59
	.eos
	.stag	.fake61,32
	.member	_nSdi2,0,14,18,1
	.member	_nSdi3,1,14,18,1
	.member	_nSdi4,2,14,18,1
	.member	_nPii1,3,14,18,1
	.member	_nPii2,4,14,18,1
	.member	_nPid1_1,5,14,18,1
	.member	_nPid1_2,6,14,18,1
	.member	_nPid1_3,7,14,18,1
	.eos
	.utag	.fake60,32
	.member	_BYTE,0,12,11,32
	.member	_BIT,0,8,11,32,.fake61
	.eos
	.stag	.fake63,32
	.member	_nPid1_4,0,14,18,1
	.member	_nPid2_1,1,14,18,1
	.member	_nCncs,2,14,18,1
	.member	_CRA_LAUN,3,14,18,1
	.member	_CRA_UP,4,14,18,1
	.member	_CRA_PP,5,14,18,1
	.member	_CRA_SP,6,14,18,1
	.member	_CRA_FTP,7,14,18,1
	.eos
	.utag	.fake62,32
	.member	_BYTE,0,12,11,32
	.member	_BIT,0,8,11,32,.fake63
	.eos
	.stag	.fake65,32
	.member	_nPei1,0,14,18,1
	.member	_nPei2,1,14,18,1
	.member	_sp_2,2,14,18,1
	.member	_sp_3,3,14,18,1
	.member	_nDpo,4,14,18,1
	.member	_sp_5,5,14,18,1
	.member	_sp_6,6,14,18,1
	.member	_nDph,7,14,18,1
	.eos
	.utag	.fake64,32
	.member	_BYTE,0,12,11,32
	.member	_BIT,0,8,11,32,.fake65
	.eos
	.stag	.fake67,32
	.member	_sp_0,0,14,18,1
	.member	_sp_1,1,14,18,1
	.member	_sp_2,2,14,18,1
	.member	_sp_3,3,14,18,1
	.member	_sp_4,4,14,18,1
	.member	_sp_5,5,14,18,1
	.member	_sp_6,6,14,18,1
	.member	_sp_7,7,14,18,1
	.eos
	.utag	.fake66,32
	.member	_BYTE,0,12,11,32
	.member	_BIT,0,8,11,32,.fake67
	.eos
	.stag	.fake57,160
	.member	_BYTE_1,0,9,8,32,.fake58
	.member	_BYTE_2,32,9,8,32,.fake60
	.member	_BYTE_3,64,9,8,32,.fake62
	.member	_BYTE_4,96,9,8,32,.fake64
	.member	_BYTE_5,128,9,8,32,.fake66
	.eos
	.sym	_COMMSTATUS_LIC,0,8,13,160,.fake57
	.sym	_PCOMMSTATUS_LIC,0,24,13,32,.fake57
	.etag	_eCDT_TYPE,32
	.member	_eCDT_A,0,4,16,32
	.member	_eCDT_B,1,4,16,32
	.member	_eCDT_MAXIMUM,2,4,16,32
	.eos
	.stag	.fake68,96
	.member	_nTCnt,0,4,8,32
	.member	_nStPosi,32,4,8,32
	.member	_nEdPosi,64,4,8,32
	.eos
	.sym	_T_FAULT_INFO,0,8,13,96,.fake68
	.sym	_PFAULT_INFO,0,24,13,32,.fake68
	.file	"Variable.h"
	.stag	.fake71,32
	.member	_Atcive_Cab,0,14,18,1
	.member	_Traction,1,14,18,1
	.member	_EP_Mode,2,14,18,1
	.member	_All_Doors_Closed,3,14,18,1
	.member	_Ci_CutOff,4,14,18,1
	.member	_Sp_5,5,14,18,1
	.member	_Sp_6,6,14,18,1
	.member	_Sp_7,7,14,18,1
	.eos
	.utag	.fake70,32
	.member	_BYTE,0,14,11,32
	.member	_BIT,0,8,11,32,.fake71
	.eos
	.stag	.fake69,14048
	.member	_LIC_VerList,0,242,8,9216,,32,9
	.member	_m_nUart1RxOneByteGapDelayTime,9216,14,8,32
	.member	_m_nUart2RxOneByteGapDelayTime,9248,14,8,32
	.member	_m_nUart3RxOneByteGapDelayTime,9280,14,8,32
	.member	_m_nUserDebug1msTimer,9312,14,8,32
	.member	_m_nTest1msTimer,9344,14,8,32
	.member	_m_tmCurTime,9376,8,8,224,.fake7
	.member	_m_tmUtcTime,9600,8,8,224,.fake7
	.member	_m_btCommSt,9824,60,8,256,,8
	.member	_m_btOldCommSt,10080,60,8,256,,8
	.member	_m_btSenseCommStBuf,10336,60,8,256,,8
	.member	_m_LIC_CNCS_Tx_Flag,10592,4,8,32
	.member	_m_LIC_CNCS_TX_DelyTime,10624,4,8,32
	.member	_m_nLnWkTxFlag,10656,4,8,32
	.member	_m_nFaultCnt,10688,4,8,32
	.member	_m_Recving_Posi,10720,4,8,32
	.member	_m_nCDT_FaultDataStFlag,10752,4,8,32
	.member	_m_TrainCofVal,10784,4,8,32
	.member	_m_nCarPos,10816,4,8,32
	.member	_m_nCarPos_Re,10848,4,8,32
	.member	_m_btCiFaultVal,10880,4,8,32
	.member	_m_nCarNo,10912,13,8,32
	.member	_m_chCarKind,10944,2,8,32
	.member	_m_nCarKindToLonCnt,10976,4,8,32
	.member	_m_chCarKindNum,11008,2,8,32
	.member	_m_bLnWkDbgTxFlag,11040,4,8,32
	.member	_m_nLnWkWaySideOnRxOk,11072,12,8,32
	.member	_m_nCarCnt,11104,12,8,32
	.member	_m_nNvsramPos,11136,14,8,32
	.member	_m_bLnWkFtpEndFlag,11168,4,8,32
	.member	_m_nDateTime2SecondCnt,11200,14,8,32
	.member	_m_nTxDbg1msTimer,11232,14,8,32
	.member	_m_nDbgTxPos,11264,14,8,32
	.member	_m_btExVersionTbl,11296,61,8,1152,,36
	.member	_m_btExVersion_DAYTbl,12448,61,8,1152,,36
	.member	_m_btCttSignalA,13600,9,8,32,.fake70
	.member	_m_btCttSignalB,13632,12,8,32
	.member	_m_LIC_CNCS_TimSetFlag,13664,4,8,32
	.member	_m_LIC_GIA_TimSetFlag,13696,4,8,32
	.member	_m_nCncsRxCheck1msTimer,13728,14,8,32
	.member	_m_nGiaRxCheck1msTimer,13760,14,8,32
	.member	_m_btTestOtherCiFault,13792,12,8,32
	.member	_m_bCiFaultFlag,13824,4,8,32
	.member	_m_tFaultInfo,13856,56,8,192,.fake68,2
	.eos
	.sym	_VARIABLE_H,0,8,13,14048,.fake69
	.sym	_PVARIABLE_H,0,24,13,32,.fake69
	.file	"LonInfo.h"
	.file	"xr16l784.h"
	.utag	.fake73,32
	.member	_btRxd,0,12,11,32
	.member	_btTxd,0,12,11,32
	.member	_btDll,0,12,11,32
	.eos
	.utag	.fake74,32
	.member	_btDlm,0,12,11,32
	.member	_btIer,0,12,11,32
	.eos
	.utag	.fake75,32
	.member	_btIir,0,12,11,32
	.member	_btFcr,0,12,11,32
	.eos
	.stag	.fake72,512
	.member	_CREG1,0,9,8,32,.fake73
	.member	_CREG2,32,9,8,32,.fake74
	.member	_CREG3,64,9,8,32,.fake75
	.member	_btLcr,96,12,8,32
	.member	_btMcr,128,12,8,32
	.member	_btLsr,160,12,8,32
	.member	_btMsr_U,192,12,8,32
	.member	_btScr,224,12,8,32
	.member	_btSp,256,60,8,256,,8
	.eos
	.sym	_XR16L784ST,0,8,13,512,.fake72
	.sym	_PXR16L784ST,0,24,13,32,.fake72
	.stag	.fake76,2048
	.member	_xr16Reg,0,56,8,2048,.fake72,4
	.eos
	.sym	_XR16L784BDY,0,8,13,2048,.fake76
	.sym	_PXR16L784BDY,0,24,13,32,.fake76
	.file	"user.c"
	.sect	 ".text"

	.global	_user_Init
	.sym	_user_Init,_user_Init,32,2,0
	.func	19
;******************************************************************************
;* FUNCTION NAME: _user_Init                                                  *
;*                                                                            *
;*   Architecture       : TMS320C30                                           *
;*   Calling Convention : Stack Parameter Convention                          *
;*   Function Uses Regs : r0,r1,r2,r3,r4,r5,ar0,fp,ir0,bk,sp,st               *
;*   Regs Saved         : r4,r5                                               *
;*   Stack Frame        : Full (w/ debug)                                     *
;*   Total Frame Size   : 2 Call + 0 Parm + 136 Auto + 2 SOE = 140 words      *
;******************************************************************************
_user_Init:
	.sym	_i,1,4,1,32
	.sym	_wCarNo,2,4,1,32
	.sym	_LL,3,12,1,32
	.sym	_LH,4,12,1,32
	.sym	_HL,5,12,1,32
	.sym	_HH,6,12,1,32
	.sym	_szBuf,7,50,1,4096,,128
	.sym	_pDpram,135,28,1,32
	.sym	_pLicVerDp,136,24,1,32,.fake44
	.line	1
;----------------------------------------------------------------------
;  19 | void user_Init()                                                       
;  21 | int i;                                                                 
;----------------------------------------------------------------------
        push      fp
        ldiu      sp,fp
        addi      136,sp
        push      r4
        push      r5
	.line	4
;----------------------------------------------------------------------
;  22 | int wCarNo = 0;                                                        
;  23 | UCHAR LL,LH,HL,HH;                                                     
;  24 | char szBuf[128];                                                       
;----------------------------------------------------------------------
        ldiu      0,r0
        sti       r0,*+fp(2)
	.line	7
;----------------------------------------------------------------------
;  25 | UCHAR *pDpram = (UCHAR *)DPRAM_BASE;                                   
;----------------------------------------------------------------------
        ldiu      @CL1,r0
        sti       r0,*+fp(135)
	.line	9
;----------------------------------------------------------------------
;  27 | PLIC_DPRAM_Ver pLicVerDp = (LIC_DPRAM_Ver *)NVSRAM_VER; //ąöŔü Á¤ş¸ Ăł¸
;     | ®¸¦ Ŕ§ÇŘ ŔÓŔÇ·Î ¸¸µéľú´Ů.                                              
;----------------------------------------------------------------------
        ldiu      @CL2,r0
        sti       r0,*+fp(136)
	.line	11
;----------------------------------------------------------------------
;  29 | user_Variable_Init();                                                  
;  31 | // ĂĘ±âČ­ÇĎ±â                                                          
;  32 | //timeGet(&m_tmCurTime);                                               
;----------------------------------------------------------------------
        call      _user_Variable_Init
                                        ; Call Occurs
	.line	15
;----------------------------------------------------------------------
;  33 | memset(m_Variable.m_btCommSt,0x00,sizeof(m_Variable.m_btCommSt)); //»óĹ
;     | Â µĄŔĚĹ¸ ŔúŔĺ ąöĆŰ                                                     
;----------------------------------------------------------------------
        ldiu      8,r2
        ldiu      0,r1
        ldiu      @CL3,r0
        push      r2
        push      r1
        push      r0
        call      _memset
                                        ; Call Occurs
        subi      3,sp
	.line	16
;----------------------------------------------------------------------
;  34 | memset(m_Variable.m_btOldCommSt,0x00,sizeof(m_Variable.m_btOldCommSt));
;     |  //»óĹÂ µĄŔĚĹ¸ ŔúŔĺ ąöĆŰ                                               
;----------------------------------------------------------------------
        ldiu      8,r2
        ldiu      0,r1
        push      r2
        push      r1
        ldiu      @CL4,r0
        push      r0
        call      _memset
                                        ; Call Occurs
        subi      3,sp
	.line	17
;----------------------------------------------------------------------
;  35 | memset(m_Variable.m_btSenseCommStBuf,0x00,sizeof(m_Variable.m_btSenseCo
;     | mmStBuf)); //»óĹÂ µĄŔĚĹ¸ ŔúŔĺ ąöĆŰ                                     
;----------------------------------------------------------------------
        ldiu      8,r1
        push      r1
        ldiu      0,r0
        ldiu      @CL5,r2
        push      r0
        push      r2
        call      _memset
                                        ; Call Occurs
        subi      3,sp
	.line	19
;----------------------------------------------------------------------
;  37 | memset(m_Variable.m_btExVersionTbl,0x0000,sizeof(m_Variable.m_btExVersi
;     | onTbl));                                                               
;----------------------------------------------------------------------
        ldiu      @CL6,r2
        ldiu      36,r0
        push      r0
        ldiu      0,r1
        push      r1
        push      r2
        call      _memset
                                        ; Call Occurs
        subi      3,sp
	.line	20
;----------------------------------------------------------------------
;  38 | memset(m_Variable.m_btExVersion_DAYTbl,0x0000,sizeof(m_Variable.m_btExV
;     | ersion_DAYTbl));                                                       
;----------------------------------------------------------------------
        ldiu      0,r1
        ldiu      36,r0
        ldiu      @CL7,r2
        push      r0
        push      r1
        push      r2
        call      _memset
                                        ; Call Occurs
        subi      3,sp
	.line	22
;----------------------------------------------------------------------
;  40 | m_Variable.m_LIC_CNCS_Tx_Flag = FALSE;                                 
;----------------------------------------------------------------------
        ldiu      0,r0
        sti       r0,@_m_Variable+331
	.line	23
;----------------------------------------------------------------------
;  41 | m_Variable.m_LIC_CNCS_TX_DelyTime = 0;                                 
;----------------------------------------------------------------------
        sti       r0,@_m_Variable+332
	.line	24
;----------------------------------------------------------------------
;  42 | m_Variable.m_nLnWkTxFlag = FALSE;                                      
;----------------------------------------------------------------------
        sti       r0,@_m_Variable+333
	.line	25
;----------------------------------------------------------------------
;  43 | m_Variable.m_nFaultCnt = 0;                                            
;----------------------------------------------------------------------
        sti       r0,@_m_Variable+334
	.line	26
;----------------------------------------------------------------------
;  44 | m_Variable.m_Recving_Posi = 0;                                         
;----------------------------------------------------------------------
        sti       r0,@_m_Variable+335
	.line	27
;----------------------------------------------------------------------
;  45 | m_Variable.m_nCDT_FaultDataStFlag = FALSE;                             
;  48 | //memset(&m_Variable,0x00,sizeof(m_Variable));                         
;----------------------------------------------------------------------
        sti       r0,@_m_Variable+336
	.line	33
;----------------------------------------------------------------------
;  51 | for(i=0;i<VER_BDD_MAX_CNT;i++)                                         
;----------------------------------------------------------------------
        sti       r0,*+fp(1)
        cmpi      32,r0
        bge       L19
;*      Branch Occurs to L19 
L2:        
	.line	36
;----------------------------------------------------------------------
;  54 | if(WORD_L(pLicVerDp->VerCnt) == TRUE)                                  
;  56 |         // ąöŔü Á¤ş¸°ˇ  '0' ~ '9' Ľý°ˇŔÎÁö Č®ŔÎ ÇŃ´Ů. --> ľĆ´Ď¸é ĂĘ±âČ­
;     |  ÇŃ´Ů.(ľ˛·ą±â °ŞŔĚ µéľî ŔÖ´Â °É·Î ĆÇ´Ü)                                
;----------------------------------------------------------------------
        ldiu      *+fp(136),ar0
        ldiu      255,r0
        and3      r0,*ar0,r0
        cmpi      1,r0
        bned      L17
	nop
        ldine     *+fp(136),ar0
        ldine     1,r0
;*      Branch Occurs to L17 
	.line	39
;----------------------------------------------------------------------
;  57 | if( !IsNumAsc(WORD_L(pLicVerDp->cvbBuf[i].chVer[0])) || !IsNumAsc(WORD_
;     | L(pLicVerDp->cvbBuf[i].chVer[1])) ||                                   
;  58 |         !IsNumAsc(WORD_L(pLicVerDp->cvbBuf[i].chVer[2])) || !IsNumAsc(W
;     | ORD_L(pLicVerDp->cvbBuf[i].chVer[3])) ||                               
;  60 |         !IsNumAsc(WORD_L(pLicVerDp->cvbBuf[i].chBuildDate[0])) || !IsNu
;     | mAsc(WORD_L(pLicVerDp->cvbBuf[i].chBuildDate[1])) ||                   
;  61 |         !IsNumAsc(WORD_L(pLicVerDp->cvbBuf[i].chBuildDate[2])) || !IsNu
;     | mAsc(WORD_L(pLicVerDp->cvbBuf[i].chBuildDate[3])) ||                   
;  62 |         !IsNumAsc(WORD_L(pLicVerDp->cvbBuf[i].chBuildDate[4])) || !IsNu
;     | mAsc(WORD_L(pLicVerDp->cvbBuf[i].chBuildDate[5])))                     
;----------------------------------------------------------------------
        ldiu      *+fp(1),ar0
        mpyi      10,ar0
        addi      *+fp(136),ar0         ; Unsigned
        ldiu      255,r0
        and       *+ar0(1),r0
        push      r0
        call      _IsNumAsc
                                        ; Call Occurs
        cmpi      0,r0
        subi      1,sp
        beq       L13
;*      Branch Occurs to L13 
        ldiu      *+fp(1),ar0
        mpyi      10,ar0
        addi      *+fp(136),ar0         ; Unsigned
        ldiu      255,r0
        and       *+ar0(2),r0
        push      r0
        call      _IsNumAsc
                                        ; Call Occurs
        cmpi      0,r0
        subi      1,sp
        beq       L13
;*      Branch Occurs to L13 
        ldiu      *+fp(1),ar0
        mpyi      10,ar0
        addi      *+fp(136),ar0         ; Unsigned
        ldiu      255,r0
        and       *+ar0(3),r0
        push      r0
        call      _IsNumAsc
                                        ; Call Occurs
        cmpi      0,r0
        subi      1,sp
        beq       L13
;*      Branch Occurs to L13 
        ldiu      *+fp(1),ar0
        mpyi      10,ar0
        addi      *+fp(136),ar0         ; Unsigned
        ldiu      255,r0
        and       *+ar0(4),r0
        push      r0
        call      _IsNumAsc
                                        ; Call Occurs
        cmpi      0,r0
        subi      1,sp
        beq       L13
;*      Branch Occurs to L13 
        ldiu      *+fp(1),ar0
        mpyi      10,ar0
        addi      *+fp(136),ar0         ; Unsigned
        ldiu      255,r0
        and       *+ar0(5),r0
        push      r0
        call      _IsNumAsc
                                        ; Call Occurs
        cmpi      0,r0
        subi      1,sp
        beq       L13
;*      Branch Occurs to L13 
        ldiu      *+fp(1),ar0
        mpyi      10,ar0
        addi      *+fp(136),ar0         ; Unsigned
        ldiu      255,r0
        and       *+ar0(6),r0
        push      r0
        call      _IsNumAsc
                                        ; Call Occurs
        cmpi      0,r0
        subi      1,sp
        beq       L13
;*      Branch Occurs to L13 
        ldiu      *+fp(1),ar0
        mpyi      10,ar0
        addi      *+fp(136),ar0         ; Unsigned
        ldiu      255,r0
        and       *+ar0(7),r0
        push      r0
        call      _IsNumAsc
                                        ; Call Occurs
        cmpi      0,r0
        subi      1,sp
        beq       L13
;*      Branch Occurs to L13 
        ldiu      *+fp(1),ar0
        mpyi      10,ar0
        addi      *+fp(136),ar0         ; Unsigned
        ldiu      255,r0
        and       *+ar0(8),r0
        push      r0
        call      _IsNumAsc
                                        ; Call Occurs
        cmpi      0,r0
        subi      1,sp
        beq       L13
;*      Branch Occurs to L13 
        ldiu      *+fp(1),ar0
        mpyi      10,ar0
        addi      *+fp(136),ar0         ; Unsigned
        ldiu      255,r0
        and       *+ar0(9),r0
        push      r0
        call      _IsNumAsc
                                        ; Call Occurs
        cmpi      0,r0
        subi      1,sp
        beq       L13
;*      Branch Occurs to L13 
        ldiu      *+fp(1),ar0
        mpyi      10,ar0
        addi      *+fp(136),ar0         ; Unsigned
        ldiu      255,r0
        and       *+ar0(10),r0
        push      r0
        call      _IsNumAsc
                                        ; Call Occurs
        cmpi      0,r0
        bned      L15
        subi      1,sp
	nop
        ldine     *+fp(1),ar0
;*      Branch Occurs to L15 
L13:        
	.line	46
;----------------------------------------------------------------------
;  64 | memset(pLicVerDp->cvbBuf[i].chVer,'0',4);                              
;----------------------------------------------------------------------
        ldiu      *+fp(1),r0
        ldiu      4,r2
        ldiu      48,r1
        mpyi      10,r0
        addi      *+fp(136),r0          ; Unsigned
        push      r2
        addi      1,r0                  ; Unsigned
        push      r1
        push      r0
        call      _memset
                                        ; Call Occurs
        subi      3,sp
	.line	47
;----------------------------------------------------------------------
;  65 | memset(pLicVerDp->cvbBuf[i].chBuildDate,'0',6);                        
;  67 | else                                                                   
;  68 | {   //°˘ ŔĺÄˇ ąöŔü Á¤ş¸¸¦ ŔĐľîżÂ´Ů.                                    
;----------------------------------------------------------------------
        ldiu      6,r2
        ldiu      *+fp(1),r0
        ldiu      48,r1
        mpyi      10,r0
        addi      *+fp(136),r0          ; Unsigned
        push      r2
        push      r1
        addi      5,r0                  ; Unsigned
        push      r0
        call      _memset
                                        ; Call Occurs
        subi      3,sp
        bu        L18
;*      Branch Occurs to L18 
	.line	51
;----------------------------------------------------------------------
;  69 | LH = MAKE_BYTE(ConvAsc2Hex(WORD_L(pLicVerDp->cvbBuf[i].chVer[0])),ConvA
;     | sc2Hex(WORD_L(pLicVerDp->cvbBuf[i].chVer[1])));                        
;----------------------------------------------------------------------
L15:        
        mpyi      10,ar0
        addi      *+fp(136),ar0         ; Unsigned
        ldiu      255,r0
        and       *+ar0(1),r0
        push      r0
        call      _ConvAsc2Hex
                                        ; Call Occurs
        subi      1,sp
        ldiu      255,r1
        ldiu      *+fp(1),ar0
        ldiu      r0,r4
        mpyi      10,ar0
        addi      *+fp(136),ar0         ; Unsigned
        ash       4,r4
        and       *+ar0(2),r1
        push      r1
        call      _ConvAsc2Hex
                                        ; Call Occurs
        and       15,r0
        or3       r4,r0,r0
        subi      1,sp
        and       255,r0
        sti       r0,*+fp(4)
	.line	52
;----------------------------------------------------------------------
;  70 | LL = MAKE_BYTE(ConvAsc2Hex(WORD_L(pLicVerDp->cvbBuf[i].chVer[2])),ConvA
;     | sc2Hex(WORD_L(pLicVerDp->cvbBuf[i].chVer[3])));                        
;----------------------------------------------------------------------
        ldiu      *+fp(1),ar0
        mpyi      10,ar0
        addi      *+fp(136),ar0         ; Unsigned
        ldiu      255,r0
        and       *+ar0(3),r0
        push      r0
        call      _ConvAsc2Hex
                                        ; Call Occurs
        subi      1,sp
        ldiu      r0,r4
        ldiu      *+fp(1),ar0
        mpyi      10,ar0
        ldiu      255,r1
        addi      *+fp(136),ar0         ; Unsigned
        ash       4,r4
        and       *+ar0(4),r1
        push      r1
        call      _ConvAsc2Hex
                                        ; Call Occurs
        and       15,r0
        or3       r4,r0,r0
        subi      1,sp
        and       255,r0
        sti       r0,*+fp(3)
	.line	53
;----------------------------------------------------------------------
;  71 | m_Variable.m_btExVersionTbl[i] = MAKE_WORD(LH,LL);                     
;----------------------------------------------------------------------
        ldiu      255,r0
        ldiu      *+fp(4),r1
        and       *+fp(3),r0
        ash       8,r1
        or3       r1,r0,r0
        ldiu      @CL6,ar0
        ldiu      *+fp(1),ir0
        and       65535,r0
        sti       r0,*+ar0(ir0)
	.line	54
;----------------------------------------------------------------------
;  72 | HH = 0x20;                                                             
;----------------------------------------------------------------------
        ldiu      32,r0
        sti       r0,*+fp(6)
	.line	55
;----------------------------------------------------------------------
;  73 | HL = MAKE_BYTE(ConvAsc2Hex(WORD_L(pLicVerDp->cvbBuf[i].chBuildDate[0]))
;     | ,ConvAsc2Hex(WORD_L(pLicVerDp->cvbBuf[i].chBuildDate[1])));            
;----------------------------------------------------------------------
        ldiu      *+fp(1),ar0
        mpyi      10,ar0
        addi      *+fp(136),ar0         ; Unsigned
        ldiu      255,r0
        and       *+ar0(5),r0
        push      r0
        call      _ConvAsc2Hex
                                        ; Call Occurs
        subi      1,sp
        ldiu      *+fp(1),ar0
        mpyi      10,ar0
        addi      *+fp(136),ar0         ; Unsigned
        ldiu      255,r1
        ldiu      r0,r4
        ash       4,r4
        and       *+ar0(6),r1
        push      r1
        call      _ConvAsc2Hex
                                        ; Call Occurs
        and       15,r0
        subi      1,sp
        or3       r4,r0,r0
        and       255,r0
        sti       r0,*+fp(5)
	.line	56
;----------------------------------------------------------------------
;  74 | LH = MAKE_BYTE(ConvAsc2Hex(WORD_L(pLicVerDp->cvbBuf[i].chBuildDate[2]))
;     | ,ConvAsc2Hex(WORD_L(pLicVerDp->cvbBuf[i].chBuildDate[3])));            
;----------------------------------------------------------------------
        ldiu      *+fp(1),ar0
        mpyi      10,ar0
        addi      *+fp(136),ar0         ; Unsigned
        ldiu      255,r0
        and       *+ar0(7),r0
        push      r0
        call      _ConvAsc2Hex
                                        ; Call Occurs
        ldiu      r0,r4
        ldiu      255,r0
        subi      1,sp
        ldiu      *+fp(1),ar0
        mpyi      10,ar0
        addi      *+fp(136),ar0         ; Unsigned
        ash       4,r4
        and       *+ar0(8),r0
        push      r0
        call      _ConvAsc2Hex
                                        ; Call Occurs
        subi      1,sp
        and       15,r0
        or3       r4,r0,r0
        and       255,r0
        sti       r0,*+fp(4)
	.line	57
;----------------------------------------------------------------------
;  75 | LL = MAKE_BYTE(ConvAsc2Hex(WORD_L(pLicVerDp->cvbBuf[i].chBuildDate[4]))
;     | ,ConvAsc2Hex(WORD_L(pLicVerDp->cvbBuf[i].chBuildDate[5])));            
;----------------------------------------------------------------------
        ldiu      *+fp(1),ar0
        mpyi      10,ar0
        addi      *+fp(136),ar0         ; Unsigned
        ldiu      255,r0
        and       *+ar0(9),r0
        push      r0
        call      _ConvAsc2Hex
                                        ; Call Occurs
        subi      1,sp
        ldiu      *+fp(1),ar0
        ldiu      255,r1
        mpyi      10,ar0
        ldiu      r0,r4
        addi      *+fp(136),ar0         ; Unsigned
        ash       4,r4
        and       *+ar0(10),r1
        push      r1
        call      _ConvAsc2Hex
                                        ; Call Occurs
        and       15,r0
        or3       r4,r0,r0
        subi      1,sp
        and       255,r0
        sti       r0,*+fp(3)
	.line	59
;----------------------------------------------------------------------
;  77 | m_Variable.m_btExVersion_DAYTbl[i] = MAKE_DWORD(HH,HL,LH,LL);          
;  80 | else //ÇŃąřµµ ąöŔü Á¤ş¸ ŔÔ·ÂŔĚ µÇÁöľĘŔ» °ćżě 0 Ŕ¸·Î ĂĘ±âČ­ ÇŃ´Ů.       
;----------------------------------------------------------------------
        ldiu      255,r0
        ldiu      *+fp(6),r3
        and       *+fp(5),r0
        ash       24,r3
        ash       16,r0
        or3       r3,r0,r0
        ldiu      255,r1
        and       *+fp(4),r1
        ldiu      255,r2
        ash       8,r1
        and       *+fp(3),r2
        ldiu      @CL7,ar0
        or3       r0,r1,r0
        ldiu      *+fp(1),ir0
        or3       r0,r2,r0
        sti       r0,*+ar0(ir0)
        bu        L18
;*      Branch Occurs to L18 
	.line	64
;----------------------------------------------------------------------
;  82 | pLicVerDp->VerCnt = TRUE;                                              
;----------------------------------------------------------------------
L17:        
        sti       r0,*ar0
	.line	65
;----------------------------------------------------------------------
;  83 | memset(pLicVerDp->cvbBuf[i].chVer,'0',4);                              
;----------------------------------------------------------------------
        ldiu      4,r2
        ldiu      48,r1
        ldiu      *+fp(1),r0
        mpyi      10,r0
        addi      *+fp(136),r0          ; Unsigned
        push      r2
        addi      1,r0                  ; Unsigned
        push      r1
        push      r0
        call      _memset
                                        ; Call Occurs
        subi      3,sp
	.line	66
;----------------------------------------------------------------------
;  84 | memset(pLicVerDp->cvbBuf[i].chBuildDate,'0',6);                        
;  88 | // LIC-MPUÁ¦ľî±â ąöÁŻ & şôµĺµĄŔĚĆ®                                     
;----------------------------------------------------------------------
        ldiu      *+fp(1),r0
        mpyi      10,r0
        addi      *+fp(136),r0          ; Unsigned
        ldiu      6,r2
        push      r2
        ldiu      48,r1
        push      r1
        addi      5,r0                  ; Unsigned
        push      r0
        call      _memset
                                        ; Call Occurs
        subi      3,sp
L18:        
	.line	33
        ldiu      1,r0
        addi      *+fp(1),r0
        sti       r0,*+fp(1)
        cmpi      32,r0
        blt       L2
;*      Branch Occurs to L2 
L19:        
	.line	71
;----------------------------------------------------------------------
;  89 | m_Variable.m_btExVersionTbl[5] = MAKE_WORD(                            
;  90 |                                                         MAKE_BYTE(ConvH
;     | ex2Asc(GetFirmwareVersion(1)/1000%10),ConvHex2Asc(GetFirmwareVersion(1)
;     | /100%10)),                                                             
;  91 |                                                         MAKE_BYTE(ConvH
;     | ex2Asc(GetFirmwareVersion(1)/10%10),ConvHex2Asc(GetFirmwareVersion(1)%1
;     | 0))                                                                    
;  92 |                                                         );             
;----------------------------------------------------------------------
        ldiu      1,r0
        push      r0
        call      _GetFirmwareVersion
                                        ; Call Occurs
        subi      1,sp
        ldiu      1000,r1
        call      DIV_I30
                                        ; Call Occurs
        ldiu      10,r1
        call      MOD_I30
                                        ; Call Occurs
        push      r0
        call      _ConvHex2Asc
                                        ; Call Occurs
        ldiu      1,r1
        ldiu      r0,r4
        subi      1,sp
        push      r1
        ash       4,r4
        call      _GetFirmwareVersion
                                        ; Call Occurs
        subi      1,sp
        ldiu      100,r1
        call      DIV_I30
                                        ; Call Occurs
        ldiu      10,r1
        call      MOD_I30
                                        ; Call Occurs
        push      r0
        call      _ConvHex2Asc
                                        ; Call Occurs
        ldiu      1,r1
        and       15,r0
        or3       r4,r0,r5
        and       255,r5
        subi      1,sp
        ash       8,r5
        push      r1
        call      _GetFirmwareVersion
                                        ; Call Occurs
        subi      1,sp
        ldiu      10,r1
        call      DIV_I30
                                        ; Call Occurs
        ldiu      10,r1
        call      MOD_I30
                                        ; Call Occurs
        push      r0
        call      _ConvHex2Asc
                                        ; Call Occurs
        subi      1,sp
        ldiu      1,r1
        ldiu      r0,r4
        push      r1
        ash       4,r4
        call      _GetFirmwareVersion
                                        ; Call Occurs
        subi      1,sp
        ldiu      10,r1
        call      MOD_I30
                                        ; Call Occurs
        push      r0
        call      _ConvHex2Asc
                                        ; Call Occurs
        and       15,r0
        or3       r4,r0,r0
        and       255,r0
        or3       r5,r0,r0
        and       65535,r0
        sti       r0,@_m_Variable+358
        subi      1,sp
	.line	76
;----------------------------------------------------------------------
;  94 | m_Variable.m_btExVersion_DAYTbl[5] = MAKE_DWORD(                       
;  95 |                                                         0x20,          
;  96 |                                                         MAKE_BYTE(ConvH
;     | ex2Asc(GetFirmwareVersion(2)/100000%10),ConvHex2Asc(GetFirmwareVersion(
;     | 2)/10000%10)),                                                         
;  97 |                                                         MAKE_BYTE(ConvH
;     | ex2Asc(GetFirmwareVersion(2)/1000%10),ConvHex2Asc(GetFirmwareVersion(2)
;     | /100%10)),                                                             
;  98 |                                                         MAKE_BYTE(ConvH
;     | ex2Asc(GetFirmwareVersion(2)/10%10),ConvHex2Asc(GetFirmwareVersion(2)%1
;     | 0))                                                                    
;  99 |                                                         );             
;----------------------------------------------------------------------
        ldiu      2,r0
        push      r0
        call      _GetFirmwareVersion
                                        ; Call Occurs
        ldiu      @CL8,r1
        subi      1,sp
        call      DIV_I30
                                        ; Call Occurs
        ldiu      10,r1
        call      MOD_I30
                                        ; Call Occurs
        push      r0
        call      _ConvHex2Asc
                                        ; Call Occurs
        subi      1,sp
        ldiu      2,r1
        push      r1
        ldiu      r0,r4
        ash       4,r4
        call      _GetFirmwareVersion
                                        ; Call Occurs
        subi      1,sp
        ldiu      10000,r1
        call      DIV_I30
                                        ; Call Occurs
        ldiu      10,r1
        call      MOD_I30
                                        ; Call Occurs
        push      r0
        call      _ConvHex2Asc
                                        ; Call Occurs
        ldiu      2,r1
        and       15,r0
        subi      1,sp
        or3       r4,r0,r4
        push      r1
        and       255,r4
        ash       16,r4
        call      _GetFirmwareVersion
                                        ; Call Occurs
        subi      1,sp
        ldiu      1000,r1
        call      DIV_I30
                                        ; Call Occurs
        ldiu      10,r1
        call      MOD_I30
                                        ; Call Occurs
        push      r0
        call      _ConvHex2Asc
                                        ; Call Occurs
        ldiu      r0,r5
        ldiu      2,r1
        subi      1,sp
        push      r1
        ash       4,r5
        call      _GetFirmwareVersion
                                        ; Call Occurs
        subi      1,sp
        ldiu      100,r1
        call      DIV_I30
                                        ; Call Occurs
        ldiu      10,r1
        call      MOD_I30
                                        ; Call Occurs
        push      r0
        call      _ConvHex2Asc
                                        ; Call Occurs
        and       15,r0
        ldiu      2,r1
        or3       r5,r0,r0
        and       255,r0
        ash       8,r0
        subi      1,sp
        or3       r4,r0,r5
        push      r1
        call      _GetFirmwareVersion
                                        ; Call Occurs
        subi      1,sp
        ldiu      10,r1
        call      DIV_I30
                                        ; Call Occurs
        ldiu      10,r1
        call      MOD_I30
                                        ; Call Occurs
        push      r0
        call      _ConvHex2Asc
                                        ; Call Occurs
        subi      1,sp
        ldiu      2,r1
        ldiu      r0,r4
        push      r1
        ash       4,r4
        call      _GetFirmwareVersion
                                        ; Call Occurs
        subi      1,sp
        ldiu      10,r1
        call      MOD_I30
                                        ; Call Occurs
        push      r0
        call      _ConvHex2Asc
                                        ; Call Occurs
        and       15,r0
        or3       r4,r0,r0
        and       255,r0
        or3       r5,r0,r0
        or        @CL9,r0
        sti       r0,@_m_Variable+394
        subi      1,sp
	.line	83
;----------------------------------------------------------------------
; 101 | i = GetFirmwareVersion(1);                                             
;----------------------------------------------------------------------
        ldiu      1,r0
        push      r0
        call      _GetFirmwareVersion
                                        ; Call Occurs
        subi      1,sp
        sti       r0,*+fp(1)
	.line	84
;----------------------------------------------------------------------
; 102 | sprintf(szBuf,"Lonwork Monitor Program, Version:%d.%d%d%d\r\n",i/1000%1
;     | 0,i/100%10,i/10%10,i%10);                                              
;----------------------------------------------------------------------
        ldiu      1000,r1
        call      DIV_I30
                                        ; Call Occurs
        ldiu      10,r1
        call      MOD_I30
                                        ; Call Occurs
        ldiu      100,r1
        ldiu      r0,ir0
        ldiu      *+fp(1),r0
        call      DIV_I30
                                        ; Call Occurs
        ldiu      10,r1
        call      MOD_I30
                                        ; Call Occurs
        ldiu      r0,bk
        ldiu      10,r1
        ldiu      *+fp(1),r0
        call      DIV_I30
                                        ; Call Occurs
        ldiu      10,r1
        call      MOD_I30
                                        ; Call Occurs
        ldiu      r0,r3
        ldiu      10,r1
        ldiu      *+fp(1),r0
        call      MOD_I30
                                        ; Call Occurs
        ldiu      fp,r1
        ldiu      @CL10,r2
        push      r0
        push      r3
        push      bk
        push      ir0
        addi      7,r1
        push      r2
        push      r1
        call      _sprintf
                                        ; Call Occurs
        subi      6,sp
	.line	85
;----------------------------------------------------------------------
; 103 | user_DebugPrint(szBuf);                                                
; 105 | // ľîµĺ·ą˝şżˇ ´ëÇŃ ĂĘ±â ĽłÁ¤ °Ş.                                       
;----------------------------------------------------------------------
        ldiu      fp,r0
        addi      7,r0
        push      r0
        call      _user_DebugPrint
                                        ; Call Occurs
        subi      1,sp
	.line	88
;----------------------------------------------------------------------
; 106 | if(DI_ADDRESS_A)                                                       
;----------------------------------------------------------------------
        ldiu      @CL11,ar0
        ldiu      1,r0
        tstb3     *ar0,r0
        beqd      L26
	nop
        ldieq     @CL11,ar0
        ldieq     -1,r0
;*      Branch Occurs to L26 
	.line	90
;----------------------------------------------------------------------
; 108 | m_Variable.m_chCarKindNum = LIC_DEV_NO;                                
;----------------------------------------------------------------------
        ldiu      34,r0
        sti       r0,@_m_Variable+344
	.line	91
;----------------------------------------------------------------------
; 109 | m_Variable.m_chCarKind = 'A';                                          
;----------------------------------------------------------------------
        ldiu      65,r0
        sti       r0,@_m_Variable+342
	.line	92
;----------------------------------------------------------------------
; 110 | m_Variable.m_nCarNo = 0x4003;                                          
;----------------------------------------------------------------------
        ldiu      16387,r0
        sti       r0,@_m_Variable+341
	.line	93
;----------------------------------------------------------------------
; 111 | m_Variable.m_nCarPos = 1;                                              
;----------------------------------------------------------------------
        ldiu      1,r0
        sti       r0,@_m_Variable+338
        bu        L28
;*      Branch Occurs to L28 
	.line	95
;----------------------------------------------------------------------
; 113 | else if(DI_ADDRESS_B)                                                  
;----------------------------------------------------------------------
L26:        
        lsh3      r0,*ar0,r0
        tstb      1,r0
        beq       L28
;*      Branch Occurs to L28 
	.line	97
;----------------------------------------------------------------------
; 115 | m_Variable.m_chCarKindNum = LIC_BAKDEV_NO;                             
;----------------------------------------------------------------------
        ldiu      38,r0
        sti       r0,@_m_Variable+344
	.line	98
;----------------------------------------------------------------------
; 116 | m_Variable.m_chCarKind = 'B';                                          
;----------------------------------------------------------------------
        ldiu      66,r0
        sti       r0,@_m_Variable+342
	.line	99
;----------------------------------------------------------------------
; 117 | m_Variable.m_nCarNo = 0x4004;                                          
;----------------------------------------------------------------------
        ldiu      16388,r0
        sti       r0,@_m_Variable+341
	.line	100
;----------------------------------------------------------------------
; 118 | m_Variable.m_nCarPos = 2;                                              
;----------------------------------------------------------------------
        ldiu      2,r0
        sti       r0,@_m_Variable+338
L28:        
	.line	102
        pop       r5
        ldiu      *-fp(1),bk
        pop       r4
        ldiu      *fp,fp
        subi      138,sp
        bu        bk
;*      Branch Occurs to bk 
	.endfunc	120,000000030h,136


	.sect	 ".text"

	.global	_user_Variable_Init
	.sym	_user_Variable_Init,_user_Variable_Init,32,2,0
	.func	124
;******************************************************************************
;* FUNCTION NAME: _user_Variable_Init                                         *
;*                                                                            *
;*   Architecture       : TMS320C30                                           *
;*   Calling Convention : Stack Parameter Convention                          *
;*   Function Uses Regs : r0,r1,r2,fp,sp                                      *
;*   Regs Saved         :                                                     *
;*   Stack Frame        : Full (w/ debug)                                     *
;*   Total Frame Size   : 2 Call + 0 Parm + 0 Auto + 0 SOE = 2 words          *
;******************************************************************************
_user_Variable_Init:
	.line	1
;----------------------------------------------------------------------
; 124 | void user_Variable_Init()                                              
;----------------------------------------------------------------------
        push      fp
        ldiu      sp,fp
	.line	3
;----------------------------------------------------------------------
; 126 | memset(&m_Variable,0x00,sizeof(VARIABLE_H));                           
;----------------------------------------------------------------------
        ldiu      439,r2
        ldiu      0,r0
        ldiu      @CL12,r1
        push      r2
        push      r0
        push      r1
        call      _memset
                                        ; Call Occurs
        subi      3,sp
	.line	5
;----------------------------------------------------------------------
; 128 | m_Variable.m_TrainCofVal = 0x8000;                                     
;----------------------------------------------------------------------
        ldiu      @CL13,r0
        sti       r0,@_m_Variable+337
	.line	6
;----------------------------------------------------------------------
; 129 | m_Variable.m_nCarPos = 0x8000;                                         
;----------------------------------------------------------------------
        sti       r0,@_m_Variable+338
	.line	7
;----------------------------------------------------------------------
; 130 | m_Variable.m_nCarPos_Re = 0x8000;                                      
;----------------------------------------------------------------------
        sti       r0,@_m_Variable+339
	.line	8
;----------------------------------------------------------------------
; 131 | m_Variable.m_btCiFaultVal = 0x8000;                                    
;----------------------------------------------------------------------
        sti       r0,@_m_Variable+340
	.line	9
;----------------------------------------------------------------------
; 132 | m_Variable.m_nCarNo = 0x8000;                                          
;----------------------------------------------------------------------
        ldiu      @CL14,r0
        sti       r0,@_m_Variable+341
	.line	10
;----------------------------------------------------------------------
; 133 | m_Variable.m_chCarKind = 'A';                                          
;----------------------------------------------------------------------
        ldiu      65,r0
        sti       r0,@_m_Variable+342
	.line	11
;----------------------------------------------------------------------
; 134 | m_Variable.m_bLnWkFtpEndFlag = FALSE;                                  
;----------------------------------------------------------------------
        ldiu      0,r0
        sti       r0,@_m_Variable+349
	.line	12
;----------------------------------------------------------------------
; 135 | m_Variable.m_nDbgTxPos = 0xFFFFFFFF;                                   
;----------------------------------------------------------------------
        ldiu      @CL15,r0
        sti       r0,@_m_Variable+352
	.line	13
;----------------------------------------------------------------------
; 136 | m_Variable.m_btTestOtherCiFault = 0x8000;                              
;----------------------------------------------------------------------
        ldiu      @CL16,r0
        sti       r0,@_m_Variable+431
	.line	14
;----------------------------------------------------------------------
; 137 | m_Variable.m_bCiFaultFlag = FALSE;                                     
;----------------------------------------------------------------------
        ldiu      0,r0
        sti       r0,@_m_Variable+432
	.line	16
;----------------------------------------------------------------------
; 139 | strcpy(&m_Variable.LIC_VerList[0][0],"CCP");                           
;----------------------------------------------------------------------
        ldiu      @CL17,r1
        ldiu      @CL12,r0
        push      r1
        push      r0
        call      _strcpy
                                        ; Call Occurs
        subi      2,sp
	.line	17
;----------------------------------------------------------------------
; 140 | strcpy(&m_Variable.LIC_VerList[1][0],"CRA-LICL");                      
;----------------------------------------------------------------------
        ldiu      @CL18,r0
        ldiu      @CL19,r1
        push      r1
        push      r0
        call      _strcpy
                                        ; Call Occurs
        subi      2,sp
	.line	18
;----------------------------------------------------------------------
; 141 | strcpy(&m_Variable.LIC_VerList[2][0],"CRA-VTX");                       
;----------------------------------------------------------------------
        ldiu      @CL21,r1
        ldiu      @CL20,r0
        push      r1
        push      r0
        call      _strcpy
                                        ; Call Occurs
        subi      2,sp
	.line	19
;----------------------------------------------------------------------
; 142 | strcpy(&m_Variable.LIC_VerList[3][0],"CRA-VOIP");                      
;----------------------------------------------------------------------
        ldiu      @CL23,r1
        ldiu      @CL22,r0
        push      r1
        push      r0
        call      _strcpy
                                        ; Call Occurs
        subi      2,sp
	.line	20
;----------------------------------------------------------------------
; 143 | strcpy(&m_Variable.LIC_VerList[4][0],"CRA-PAC");                       
;----------------------------------------------------------------------
        ldiu      @CL24,r0
        ldiu      @CL25,r1
        push      r1
        push      r0
        call      _strcpy
                                        ; Call Occurs
        subi      2,sp
	.line	21
;----------------------------------------------------------------------
; 144 | strcpy(&m_Variable.LIC_VerList[5][0],"CRA-LICM");                      
;----------------------------------------------------------------------
        ldiu      @CL27,r1
        push      r1
        ldiu      @CL26,r0
        push      r0
        call      _strcpy
                                        ; Call Occurs
        subi      2,sp
	.line	22
;----------------------------------------------------------------------
; 145 | strcpy(&m_Variable.LIC_VerList[6][0],"FDI1");                          
;----------------------------------------------------------------------
        ldiu      @CL29,r1
        push      r1
        ldiu      @CL28,r0
        push      r0
        call      _strcpy
                                        ; Call Occurs
        subi      2,sp
	.line	23
;----------------------------------------------------------------------
; 146 | strcpy(&m_Variable.LIC_VerList[7][0],"SDI1");                          
;----------------------------------------------------------------------
        ldiu      @CL31,r1
        push      r1
        ldiu      @CL30,r0
        push      r0
        call      _strcpy
                                        ; Call Occurs
        subi      2,sp
	.line	24
;----------------------------------------------------------------------
; 147 | strcpy(&m_Variable.LIC_VerList[8][0],"SDI2");                          
;----------------------------------------------------------------------
        ldiu      @CL33,r1
        push      r1
        ldiu      @CL32,r0
        push      r0
        call      _strcpy
                                        ; Call Occurs
        subi      2,sp
	.line	25
;----------------------------------------------------------------------
; 148 | strcpy(&m_Variable.LIC_VerList[9][0],"SDI3");                          
;----------------------------------------------------------------------
        ldiu      @CL35,r1
        ldiu      @CL34,r0
        push      r1
        push      r0
        call      _strcpy
                                        ; Call Occurs
        subi      2,sp
	.line	26
;----------------------------------------------------------------------
; 149 | strcpy(&m_Variable.LIC_VerList[10][0],"SDI4");                         
;----------------------------------------------------------------------
        ldiu      @CL37,r1
        ldiu      @CL36,r0
        push      r1
        push      r0
        call      _strcpy
                                        ; Call Occurs
        subi      2,sp
	.line	27
;----------------------------------------------------------------------
; 150 | strcpy(&m_Variable.LIC_VerList[11][0],"PII1");                         
;----------------------------------------------------------------------
        ldiu      @CL39,r1
        ldiu      @CL38,r0
        push      r1
        push      r0
        call      _strcpy
                                        ; Call Occurs
        subi      2,sp
	.line	28
;----------------------------------------------------------------------
; 151 | strcpy(&m_Variable.LIC_VerList[12][0],"PII2");                         
;----------------------------------------------------------------------
        ldiu      @CL41,r1
        push      r1
        ldiu      @CL40,r0
        push      r0
        call      _strcpy
                                        ; Call Occurs
        subi      2,sp
	.line	29
;----------------------------------------------------------------------
; 152 | strcpy(&m_Variable.LIC_VerList[13][0],"VRX1");                         
;----------------------------------------------------------------------
        ldiu      @CL43,r1
        ldiu      @CL42,r0
        push      r1
        push      r0
        call      _strcpy
                                        ; Call Occurs
        subi      2,sp
	.line	30
;----------------------------------------------------------------------
; 153 | strcpy(&m_Variable.LIC_VerList[14][0],"VRX2");                         
;----------------------------------------------------------------------
        ldiu      @CL45,r1
        push      r1
        ldiu      @CL44,r0
        push      r0
        call      _strcpy
                                        ; Call Occurs
        subi      2,sp
	.line	31
;----------------------------------------------------------------------
; 154 | strcpy(&m_Variable.LIC_VerList[15][0],"VRX3");                         
;----------------------------------------------------------------------
        ldiu      @CL47,r1
        ldiu      @CL46,r0
        push      r1
        push      r0
        call      _strcpy
                                        ; Call Occurs
        subi      2,sp
	.line	32
;----------------------------------------------------------------------
; 155 | strcpy(&m_Variable.LIC_VerList[16][0],"VRX4");                         
;----------------------------------------------------------------------
        ldiu      @CL49,r1
        ldiu      @CL48,r0
        push      r1
        push      r0
        call      _strcpy
                                        ; Call Occurs
        subi      2,sp
	.line	33
;----------------------------------------------------------------------
; 156 | strcpy(&m_Variable.LIC_VerList[17][0],"VRX5");                         
;----------------------------------------------------------------------
        ldiu      @CL51,r1
        push      r1
        ldiu      @CL50,r0
        push      r0
        call      _strcpy
                                        ; Call Occurs
        subi      2,sp
	.line	34
;----------------------------------------------------------------------
; 157 | strcpy(&m_Variable.LIC_VerList[18][0],"CRA-MAIN");                     
;----------------------------------------------------------------------
        ldiu      @CL53,r1
        push      r1
        ldiu      @CL52,r0
        push      r0
        call      _strcpy
                                        ; Call Occurs
        subi      2,sp
	.line	35
;----------------------------------------------------------------------
; 158 | strcpy(&m_Variable.LIC_VerList[19][0],"CRA-LAUN");                     
;----------------------------------------------------------------------
        ldiu      @CL55,r1
        push      r1
        ldiu      @CL54,r0
        push      r0
        call      _strcpy
                                        ; Call Occurs
        subi      2,sp
	.line	36
;----------------------------------------------------------------------
; 159 | strcpy(&m_Variable.LIC_VerList[20][0],"CRA-UP");                       
;----------------------------------------------------------------------
        ldiu      @CL57,r0
        push      r0
        ldiu      @CL56,r1
        push      r1
        call      _strcpy
                                        ; Call Occurs
        subi      2,sp
	.line	37
;----------------------------------------------------------------------
; 160 | strcpy(&m_Variable.LIC_VerList[21][0],"CRA-PP");                       
;----------------------------------------------------------------------
        ldiu      @CL59,r0
        ldiu      @CL58,r1
        push      r0
        push      r1
        call      _strcpy
                                        ; Call Occurs
        subi      2,sp
	.line	38
;----------------------------------------------------------------------
; 161 | strcpy(&m_Variable.LIC_VerList[22][0],"CRA-SP");                       
;----------------------------------------------------------------------
        ldiu      @CL61,r0
        ldiu      @CL60,r1
        push      r0
        push      r1
        call      _strcpy
                                        ; Call Occurs
        subi      2,sp
	.line	39
;----------------------------------------------------------------------
; 162 | strcpy(&m_Variable.LIC_VerList[23][0],"CRA-FTP");                      
;----------------------------------------------------------------------
        ldiu      @CL63,r0
        push      r0
        ldiu      @CL62,r1
        push      r1
        call      _strcpy
                                        ; Call Occurs
        subi      2,sp
	.line	40
;----------------------------------------------------------------------
; 163 | strcpy(&m_Variable.LIC_VerList[24][0],"CRA-CDT");                      
;----------------------------------------------------------------------
        ldiu      @CL64,r0
        ldiu      @CL65,r1
        push      r1
        push      r0
        call      _strcpy
                                        ; Call Occurs
        subi      2,sp
	.line	41
;----------------------------------------------------------------------
; 164 | m_Variable.LIC_VerList[25][0] = NULL;                                  
;----------------------------------------------------------------------
        ldiu      0,r0
        sti       r0,@_m_Variable+225
	.line	43
        ldiu      *-fp(1),bk
        ldiu      *fp,fp
        subi      2,sp
        bu        bk
;*      Branch Occurs to bk 
	.endfunc	166,000000000h,0


	.sect	 ".text"

	.global	_user_Loop
	.sym	_user_Loop,_user_Loop,32,2,0
	.func	170
;******************************************************************************
;* FUNCTION NAME: _user_Loop                                                  *
;*                                                                            *
;*   Architecture       : TMS320C30                                           *
;*   Calling Convention : Stack Parameter Convention                          *
;*   Function Uses Regs :                                                     *
;*   Regs Saved         :                                                     *
;*   Stack Frame        : Full (w/ debug)                                     *
;*   Total Frame Size   : 2 Call + 0 Parm + 1 Auto + 0 SOE = 3 words          *
;******************************************************************************
_user_Loop:
	.sym	_i,1,4,1,32
	.line	1
;----------------------------------------------------------------------
; 170 | void user_Loop()                                                       
; 172 | int i;                                                                 
;----------------------------------------------------------------------
        push      fp
        ldiu      sp,fp
        addi      1,sp
	.line	5
;----------------------------------------------------------------------
; 174 | LonWorkLoop();                                                         
;----------------------------------------------------------------------
        call      _LonWorkLoop
                                        ; Call Occurs
	.line	7
;----------------------------------------------------------------------
; 176 | DebugLoop();                                                           
;----------------------------------------------------------------------
        call      _DebugLoop
                                        ; Call Occurs
	.line	9
;----------------------------------------------------------------------
; 178 | user_WithCncsRs232Loop();                                              
;----------------------------------------------------------------------
        call      _user_WithCncsRs232Loop
                                        ; Call Occurs
	.line	11
;----------------------------------------------------------------------
; 180 | user_WithPacRs485Loop();                                               
;----------------------------------------------------------------------
        call      _user_WithPacRs485Loop
                                        ; Call Occurs
	.line	13
        ldiu      *-fp(1),bk
        ldiu      *fp,fp
        subi      3,sp
        bu        bk
;*      Branch Occurs to bk 
	.endfunc	182,000000000h,1



	.sect	".cinit"
	.field  	1,32
	.field  	_nRxPos$1+0,32
	.field  	0,32		; _nRxPos$1 @ 0

	.sect	".text"

	.sect	".cinit"
	.field  	1,32
	.field  	_nOldUart3RxOneByteGapDelayTime$2+0,32
	.field  	0,32		; _nOldUart3RxOneByteGapDelayTime$2 @ 0

	.sect	".text"
	.sect	 ".text"

	.global	_user_Lic2LicLoop
	.sym	_user_Lic2LicLoop,_user_Lic2LicLoop,32,2,0
	.func	188
;******************************************************************************
;* FUNCTION NAME: _user_Lic2LicLoop                                           *
;*                                                                            *
;*   Architecture       : TMS320C30                                           *
;*   Calling Convention : Stack Parameter Convention                          *
;*   Function Uses Regs : r0,r1,r2,ar0,fp,ir0,sp,st                           *
;*   Regs Saved         :                                                     *
;*   Stack Frame        : Full (w/ debug)                                     *
;*   Total Frame Size   : 2 Call + 0 Parm + 258 Auto + 0 SOE = 260 words      *
;******************************************************************************
_user_Lic2LicLoop:
	.bss	_nRxPos$1,1
	.sym	_nRxPos,_nRxPos$1,4,3,32
	.bss	_nOldUart3RxOneByteGapDelayTime$2,1
	.sym	_nOldUart3RxOneByteGapDelayTime,_nOldUart3RxOneByteGapDelayTime$2,12,3,32
	.bss	_btRx3chBuf$3,256
	.sym	_btRx3chBuf,_btRx3chBuf$3,60,3,8192,,256
	.sym	_nTxPos,1,4,1,32
	.sym	_btBuf,2,60,1,4096,,128
	.sym	_btTxBuf,130,60,1,4096,,128
	.sym	_nRxLen,258,4,1,32
	.line	1
;----------------------------------------------------------------------
; 188 | void user_Lic2LicLoop()                                                
; 190 | int nTxPos;                                                            
; 191 | UCHAR btBuf[128];                                                      
; 192 | UCHAR btTxBuf[128];                                                    
; 193 | int nRxLen;                                                            
; 194 | static int nRxPos = 0;                                                 
; 195 | static UCHAR nOldUart3RxOneByteGapDelayTime = 0;                       
; 196 | static UCHAR btRx3chBuf[256];                                          
;----------------------------------------------------------------------
        push      fp
        ldiu      sp,fp
        addi      258,sp
	.line	11
;----------------------------------------------------------------------
; 198 | m_Variable.m_bCiFaultFlag = m_Variable.m_btCttSignalA.BIT.Ci_CutOff ? T
;     | RUE : FALSE;                                                           
;----------------------------------------------------------------------
        ldiu      16,r0
        tstb      @_m_Variable+425,r0
        beq       L40
;*      Branch Occurs to L40 
        bud       L41
	nop
	nop
        ldiu      1,r0
;*      Branch Occurs to L41 
L40:        
        ldiu      0,r0
L41:        
        sti       r0,@_m_Variable+432
	.line	13
;----------------------------------------------------------------------
; 200 | if(m_Variable.m_nCarPos >= 1 && m_Variable.m_nCarPos <= 8) m_Variable.m
;     | _btCiFaultVal = MASKBIT(m_Variable.m_bCiFaultFlag,m_Variable.m_nCarPos-
;     | 1);                                                                    
; 202 | // ŔüĽŰÇĎ±â                                                            
;----------------------------------------------------------------------
        ldi       @_m_Variable+338,r0
        ble       L44
;*      Branch Occurs to L44 
        cmpi      8,r0
        bgt       L44
;*      Branch Occurs to L44 
        ldiu      1,r0
        ldiu      1,r1
        and       @_m_Variable+432,r0
        subri     @_m_Variable+338,r1
        ash3      r1,r0,r0
        sti       r0,@_m_Variable+340
L44:        
	.line	16
;----------------------------------------------------------------------
; 203 | if(m_Variable.m_nTest1msTimer > 100) // 100ms ŔĚČÄżˇ´Â ÁöĽÓŔűŔ¸·Î A ->
;     | B ·Î ŔüĽŰ ÇŃ´Ů.                                                        
;----------------------------------------------------------------------
        ldiu      @_m_Variable+292,r0
        cmpi      100,r0
        bls       L47
;*      Branch Occurs to L47 
	.line	18
;----------------------------------------------------------------------
; 205 | m_Variable.m_nTest1msTimer = 0;                                        
;----------------------------------------------------------------------
        ldiu      0,r0
        sti       r0,@_m_Variable+292
	.line	20
;----------------------------------------------------------------------
; 207 | if(m_Variable.m_chCarKind == 'A')                                      
;----------------------------------------------------------------------
        ldiu      @_m_Variable+342,r0
        cmpi      65,r0
        bne       L47
;*      Branch Occurs to L47 
	.line	22
;----------------------------------------------------------------------
; 209 | nTxPos = 0;                                                            
;----------------------------------------------------------------------
        ldiu      0,r0
        sti       r0,*+fp(1)
	.line	23
;----------------------------------------------------------------------
; 210 | btTxBuf[nTxPos++] = 0x02;                                              
;----------------------------------------------------------------------
        ldiu      fp,ar0
        ldiu      2,r1
        ldiu      r0,ir0
        addi      130,ar0
        ldiu      1,r0
        addi      ir0,r0
        sti       r0,*+fp(1)
        sti       r1,*+ar0(ir0)
	.line	24
;----------------------------------------------------------------------
; 211 | btTxBuf[nTxPos++] = m_Variable.m_btCiFaultVal;                         
;----------------------------------------------------------------------
        ldiu      fp,ar0
        ldiu      1,r0
        addi      130,ar0
        ldiu      *+fp(1),ir0
        ldiu      @_m_Variable+340,r1
        addi      ir0,r0
        sti       r0,*+fp(1)
        sti       r1,*+ar0(ir0)
	.line	25
;----------------------------------------------------------------------
; 212 | btTxBuf[nTxPos++] = m_Variable.m_btCiFaultVal;                         
;----------------------------------------------------------------------
        ldiu      1,r0
        ldiu      *+fp(1),ir0
        ldiu      fp,ar0
        addi      ir0,r0
        sti       r0,*+fp(1)
        addi      130,ar0
        ldiu      @_m_Variable+340,r1
        sti       r1,*+ar0(ir0)
	.line	26
;----------------------------------------------------------------------
; 213 | btTxBuf[nTxPos++] = 0x03;                                              
;----------------------------------------------------------------------
        ldiu      1,r0
        ldiu      *+fp(1),ir0
        ldiu      fp,ar0
        addi      ir0,r0
        addi      130,ar0
        ldiu      3,r1
        sti       r0,*+fp(1)
        sti       r1,*+ar0(ir0)
	.line	28
;----------------------------------------------------------------------
; 215 | xr16l784_RtsDelayStartSend(XR16L784_3CHL,(UCHAR *)btTxBuf,nTxPos,1);   
; 219 | // Ľö˝Ĺ ąŢ±â                                                           
;----------------------------------------------------------------------
        ldiu      2,r2
        ldiu      1,r1
        push      r1
        ldiu      *+fp(1),r1
        push      r1
        ldiu      fp,r0
        addi      130,r0
        push      r0
        push      r2
        call      _xr16l784_RtsDelayStartSend
                                        ; Call Occurs
        subi      4,sp
L47:        
	.line	33
;----------------------------------------------------------------------
; 220 | nRxLen = user_PacRx(btBuf,128);                                        
;----------------------------------------------------------------------
        ldiu      128,r1
        ldiu      fp,r0
        push      r1
        addi      2,r0
        push      r0
        call      _user_PacRx
                                        ; Call Occurs
        ldiu      258,ir0
        subi      2,sp
        sti       r0,*+fp(ir0)
	.line	34
;----------------------------------------------------------------------
; 221 | if(nRxLen)                                                             
;----------------------------------------------------------------------
        ldi       *+fp(ir0),r0
        beq       L52
;*      Branch Occurs to L52 
	.line	36
;----------------------------------------------------------------------
; 223 | if(!m_Variable.m_nUart3RxOneByteGapDelayTime) nRxPos = 0;              
;----------------------------------------------------------------------
        ldi       @_m_Variable+290,r0
        bne       L50
;*      Branch Occurs to L50 
        ldiu      0,r0
        sti       r0,@_nRxPos$1+0
L50:        
	.line	37
;----------------------------------------------------------------------
; 224 | nOldUart3RxOneByteGapDelayTime = m_Variable.m_nUart3RxOneByteGapDelayTi
;     | me = 10;                                                               
;----------------------------------------------------------------------
        ldiu      10,r0
        sti       r0,@_m_Variable+290
        sti       r0,@_nOldUart3RxOneByteGapDelayTime$2+0
	.line	39
;----------------------------------------------------------------------
; 226 | if(nRxPos + nRxLen < 250)                                              
;----------------------------------------------------------------------
        ldiu      258,ir0
        ldiu      *+fp(ir0),r0
        addi      @_nRxPos$1+0,r0
        cmpi      250,r0
        bge       L52
;*      Branch Occurs to L52 
	.line	41
;----------------------------------------------------------------------
; 228 | memcpy(&btRx3chBuf[nRxPos],btBuf,nRxLen);                              
;----------------------------------------------------------------------
        ldiu      @CL66,r0
        ldiu      fp,r2
        ldiu      *+fp(ir0),r1
        addi      @_nRxPos$1+0,r0       ; Unsigned
        addi      2,r2
        push      r1
        push      r2
        push      r0
        call      _memcpy
                                        ; Call Occurs
        subi      3,sp
	.line	42
;----------------------------------------------------------------------
; 229 | nRxPos += nRxLen;                                                      
;----------------------------------------------------------------------
        ldiu      258,ir0
        ldiu      *+fp(ir0),r0
        addi      @_nRxPos$1+0,r0
        sti       r0,@_nRxPos$1+0
L52:        
	.line	46
;----------------------------------------------------------------------
; 233 | if(nOldUart3RxOneByteGapDelayTime && !m_Variable.m_nUart3RxOneByteGapDe
;     | layTime)                                                               
;----------------------------------------------------------------------
        ldi       @_nOldUart3RxOneByteGapDelayTime$2+0,r0
        beq       L60
;*      Branch Occurs to L60 
        ldi       @_m_Variable+290,r0
        bne       L60
;*      Branch Occurs to L60 
	.line	48
;----------------------------------------------------------------------
; 235 | if(nRxPos >= 4)                                                        
;----------------------------------------------------------------------
        ldiu      @_nRxPos$1+0,r0
        cmpi      4,r0
        blt       L59
;*      Branch Occurs to L59 
	.line	50
;----------------------------------------------------------------------
; 237 | if(btRx3chBuf[0] == 0x02 && btRx3chBuf[3] == 0x03 && btRx3chBuf[1] == b
;     | tRx3chBuf[2])                                                          
;----------------------------------------------------------------------
        ldiu      @_btRx3chBuf$3+0,r0
        cmpi      2,r0
        bne       L59
;*      Branch Occurs to L59 
        ldiu      @_btRx3chBuf$3+3,r0
        cmpi      3,r0
        bne       L59
;*      Branch Occurs to L59 
        ldiu      @_btRx3chBuf$3+1,r0
        cmpi      @_btRx3chBuf$3+2,r0
        bne       L59
;*      Branch Occurs to L59 
	.line	52
;----------------------------------------------------------------------
; 239 | m_Variable.m_btTestOtherCiFault = btRx3chBuf[1];                       
;----------------------------------------------------------------------
        sti       r0,@_m_Variable+431
	.line	54
;----------------------------------------------------------------------
; 241 | nTxPos = 0;                                                            
;----------------------------------------------------------------------
        ldiu      0,r0
        sti       r0,*+fp(1)
	.line	55
;----------------------------------------------------------------------
; 242 | btTxBuf[nTxPos++] = 0x02;                                              
;----------------------------------------------------------------------
        ldiu      fp,ar0
        ldiu      1,r1
        addi      130,ar0
        ldiu      r0,ir0
        addi      ir0,r1
        ldiu      2,r0
        sti       r1,*+fp(1)
        sti       r0,*+ar0(ir0)
	.line	56
;----------------------------------------------------------------------
; 243 | btTxBuf[nTxPos++] = m_Variable.m_btCiFaultVal;                         
;----------------------------------------------------------------------
        ldiu      fp,ar0
        ldiu      1,r1
        ldiu      *+fp(1),ir0
        addi      130,ar0
        addi      ir0,r1
        ldiu      @_m_Variable+340,r0
        sti       r1,*+fp(1)
        sti       r0,*+ar0(ir0)
	.line	57
;----------------------------------------------------------------------
; 244 | btTxBuf[nTxPos++] = m_Variable.m_btCiFaultVal;                         
;----------------------------------------------------------------------
        ldiu      fp,ar0
        ldiu      1,r1
        ldiu      *+fp(1),ir0
        addi      130,ar0
        addi      ir0,r1
        sti       r1,*+fp(1)
        ldiu      @_m_Variable+340,r0
        sti       r0,*+ar0(ir0)
	.line	58
;----------------------------------------------------------------------
; 245 | btTxBuf[nTxPos++] = 0x03;                                              
;----------------------------------------------------------------------
        ldiu      1,r1
        ldiu      *+fp(1),ir0
        addi      ir0,r1
        ldiu      3,r0
        ldiu      fp,ar0
        addi      130,ar0
        sti       r1,*+fp(1)
        sti       r0,*+ar0(ir0)
	.line	60
;----------------------------------------------------------------------
; 247 | xr16l784_RtsDelayStartSend(XR16L784_3CHL,(UCHAR *)btTxBuf,nTxPos,10);  
;----------------------------------------------------------------------
        ldiu      10,r2
        push      r2
        ldiu      *+fp(1),r2
        push      r2
        ldiu      fp,r0
        addi      130,r0
        push      r0
        ldiu      2,r1
        push      r1
        call      _xr16l784_RtsDelayStartSend
                                        ; Call Occurs
        subi      4,sp
L59:        
	.line	64
;----------------------------------------------------------------------
; 251 | nOldUart3RxOneByteGapDelayTime = m_Variable.m_nUart3RxOneByteGapDelayTi
;     | me;                                                                    
;----------------------------------------------------------------------
        ldiu      @_m_Variable+290,r0
        sti       r0,@_nOldUart3RxOneByteGapDelayTime$2+0
L60:        
	.line	66
        ldiu      *-fp(1),bk
        ldiu      *fp,fp
        subi      260,sp
        bu        bk
;*      Branch Occurs to bk 
	.endfunc	253,000000000h,258


	.sect	 ".text"

	.global	_user_IsSingleOrMarried
	.sym	_user_IsSingleOrMarried,_user_IsSingleOrMarried,36,2,0
	.func	264
;******************************************************************************
;* FUNCTION NAME: _user_IsSingleOrMarried                                     *
;*                                                                            *
;*   Architecture       : TMS320C30                                           *
;*   Calling Convention : Stack Parameter Convention                          *
;*   Function Uses Regs : r0                                                  *
;*   Regs Saved         :                                                     *
;*   Stack Frame        : Full (w/ debug)                                     *
;*   Total Frame Size   : 2 Call + 0 Parm + 0 Auto + 0 SOE = 2 words          *
;******************************************************************************
_user_IsSingleOrMarried:
	.line	1
;----------------------------------------------------------------------
; 264 | int user_IsSingleOrMarried()                                           
;----------------------------------------------------------------------
        push      fp
        ldiu      sp,fp
	.line	3
;----------------------------------------------------------------------
; 266 | return 1;                                                              
;----------------------------------------------------------------------
        ldiu      1,r0
	.line	4
        ldiu      *-fp(1),r1
        ldiu      *fp,fp
        subi      2,sp
        bu        r1
;*      Branch Occurs to r1 
	.endfunc	267,000000000h,0


	.sect	 ".text"

	.global	_user_DebugRx
	.sym	_user_DebugRx,_user_DebugRx,36,2,0
	.func	272
;******************************************************************************
;* FUNCTION NAME: _user_DebugRx                                               *
;*                                                                            *
;*   Architecture       : TMS320C30                                           *
;*   Calling Convention : Stack Parameter Convention                          *
;*   Function Uses Regs : r0,fp,sp                                            *
;*   Regs Saved         :                                                     *
;*   Stack Frame        : Full (w/ debug)                                     *
;*   Total Frame Size   : 2 Call + 2 Parm + 0 Auto + 0 SOE = 4 words          *
;******************************************************************************
_user_DebugRx:
	.sym	_pBuf,-2,28,9,32
	.sym	_nRxBuffLen,-3,4,9,32
	.line	1
;----------------------------------------------------------------------
; 272 | int user_DebugRx(UCHAR *pBuf,int nRxBuffLen)                           
;----------------------------------------------------------------------
        push      fp
        ldiu      sp,fp
	.line	2
	.line	3
;----------------------------------------------------------------------
; 274 | return xr16l784_GetRxBuffer1Ch(pBuf,nRxBuffLen);                       
;----------------------------------------------------------------------
        ldiu      *-fp(3),r0
        push      r0
        ldiu      *-fp(2),r0
        push      r0
        call      _xr16l784_GetRxBuffer1Ch
                                        ; Call Occurs
        subi      2,sp
	.line	4
        ldiu      *-fp(1),bk
        ldiu      *fp,fp
        subi      2,sp
        bu        bk
;*      Branch Occurs to bk 
	.endfunc	275,000000000h,0


	.sect	 ".text"

	.global	_user_DebugPrint
	.sym	_user_DebugPrint,_user_DebugPrint,32,2,0
	.func	277
;******************************************************************************
;* FUNCTION NAME: _user_DebugPrint                                            *
;*                                                                            *
;*   Architecture       : TMS320C30                                           *
;*   Calling Convention : Stack Parameter Convention                          *
;*   Function Uses Regs : r0,r1,fp,sp                                         *
;*   Regs Saved         :                                                     *
;*   Stack Frame        : Full (w/ debug)                                     *
;*   Total Frame Size   : 2 Call + 1 Parm + 0 Auto + 0 SOE = 3 words          *
;******************************************************************************
_user_DebugPrint:
	.sym	_pTxBuf,-2,18,9,32
	.line	1
;----------------------------------------------------------------------
; 277 | void user_DebugPrint(char *pTxBuf)                                     
;----------------------------------------------------------------------
        push      fp
        ldiu      sp,fp
	.line	2
	.line	3
;----------------------------------------------------------------------
; 279 | xr16l784_Send(XR16L784_1CHL,(UCHAR *)pTxBuf,strlen(pTxBuf));           
;----------------------------------------------------------------------
        ldiu      *-fp(2),r0
        push      r0
        call      _strlen
                                        ; Call Occurs
        ldiu      0,r1
        subi      1,sp
        push      r0
        ldiu      *-fp(2),r0
        push      r0
        push      r1
        call      _xr16l784_Send
                                        ; Call Occurs
        subi      3,sp
	.line	4
        ldiu      *-fp(1),bk
        ldiu      *fp,fp
        subi      2,sp
        bu        bk
;*      Branch Occurs to bk 
	.endfunc	280,000000000h,0


	.sect	 ".text"

	.global	_user_CncsRx
	.sym	_user_CncsRx,_user_CncsRx,36,2,0
	.func	283
;******************************************************************************
;* FUNCTION NAME: _user_CncsRx                                                *
;*                                                                            *
;*   Architecture       : TMS320C30                                           *
;*   Calling Convention : Stack Parameter Convention                          *
;*   Function Uses Regs : r0,fp,sp                                            *
;*   Regs Saved         :                                                     *
;*   Stack Frame        : Full (w/ debug)                                     *
;*   Total Frame Size   : 2 Call + 2 Parm + 0 Auto + 0 SOE = 4 words          *
;******************************************************************************
_user_CncsRx:
	.sym	_pBuf,-2,28,9,32
	.sym	_nRxBuffLen,-3,4,9,32
	.line	1
;----------------------------------------------------------------------
; 283 | int user_CncsRx(UCHAR *pBuf,int nRxBuffLen)                            
;----------------------------------------------------------------------
        push      fp
        ldiu      sp,fp
	.line	2
	.line	3
;----------------------------------------------------------------------
; 285 | return xr16l784_GetRxBuffer2Ch(pBuf,nRxBuffLen);                       
;----------------------------------------------------------------------
        ldiu      *-fp(3),r0
        push      r0
        ldiu      *-fp(2),r0
        push      r0
        call      _xr16l784_GetRxBuffer2Ch
                                        ; Call Occurs
        subi      2,sp
	.line	4
        ldiu      *-fp(1),bk
        ldiu      *fp,fp
        subi      2,sp
        bu        bk
;*      Branch Occurs to bk 
	.endfunc	286,000000000h,0


	.sect	 ".text"

	.global	_user_CncsTx
	.sym	_user_CncsTx,_user_CncsTx,32,2,0
	.func	288
;******************************************************************************
;* FUNCTION NAME: _user_CncsTx                                                *
;*                                                                            *
;*   Architecture       : TMS320C30                                           *
;*   Calling Convention : Stack Parameter Convention                          *
;*   Function Uses Regs : r0,r1,fp,sp                                         *
;*   Regs Saved         :                                                     *
;*   Stack Frame        : Full (w/ debug)                                     *
;*   Total Frame Size   : 2 Call + 2 Parm + 0 Auto + 0 SOE = 4 words          *
;******************************************************************************
_user_CncsTx:
	.sym	_pTxBuf,-2,28,9,32
	.sym	_nTxLen,-3,4,9,32
	.line	1
;----------------------------------------------------------------------
; 288 | void user_CncsTx(UCHAR *pTxBuf,int nTxLen)                             
;----------------------------------------------------------------------
        push      fp
        ldiu      sp,fp
	.line	2
	.line	3
;----------------------------------------------------------------------
; 290 | xr16l784_RtsDelayStartSend(XR16L784_2CHL,(UCHAR *)pTxBuf,nTxLen,10);   
; 291 | //xr16l784_Send(XR16L784_2CHL,(UCHAR *)pTxBuf,nTxLen);                 
;----------------------------------------------------------------------
        ldiu      10,r0
        ldiu      1,r1
        push      r0
        ldiu      *-fp(3),r0
        push      r0
        ldiu      *-fp(2),r0
        push      r0
        push      r1
        call      _xr16l784_RtsDelayStartSend
                                        ; Call Occurs
        subi      4,sp
	.line	5
        ldiu      *-fp(1),bk
        ldiu      *fp,fp
        subi      2,sp
        bu        bk
;*      Branch Occurs to bk 
	.endfunc	292,000000000h,0


	.sect	 ".text"

	.global	_user_PacRx
	.sym	_user_PacRx,_user_PacRx,36,2,0
	.func	296
;******************************************************************************
;* FUNCTION NAME: _user_PacRx                                                 *
;*                                                                            *
;*   Architecture       : TMS320C30                                           *
;*   Calling Convention : Stack Parameter Convention                          *
;*   Function Uses Regs : r0,fp,sp                                            *
;*   Regs Saved         :                                                     *
;*   Stack Frame        : Full (w/ debug)                                     *
;*   Total Frame Size   : 2 Call + 2 Parm + 0 Auto + 0 SOE = 4 words          *
;******************************************************************************
_user_PacRx:
	.sym	_pBuf,-2,28,9,32
	.sym	_nRxBuffLen,-3,4,9,32
	.line	1
;----------------------------------------------------------------------
; 296 | int user_PacRx(UCHAR *pBuf,int nRxBuffLen)                             
;----------------------------------------------------------------------
        push      fp
        ldiu      sp,fp
	.line	2
	.line	3
;----------------------------------------------------------------------
; 298 | return xr16l784_GetRxBuffer3Ch(pBuf,nRxBuffLen);                       
;----------------------------------------------------------------------
        ldiu      *-fp(3),r0
        push      r0
        ldiu      *-fp(2),r0
        push      r0
        call      _xr16l784_GetRxBuffer3Ch
                                        ; Call Occurs
        subi      2,sp
	.line	4
        ldiu      *-fp(1),bk
        ldiu      *fp,fp
        subi      2,sp
        bu        bk
;*      Branch Occurs to bk 
	.endfunc	299,000000000h,0


	.sect	 ".text"

	.global	_user_PacTx
	.sym	_user_PacTx,_user_PacTx,32,2,0
	.func	301
;******************************************************************************
;* FUNCTION NAME: _user_PacTx                                                 *
;*                                                                            *
;*   Architecture       : TMS320C30                                           *
;*   Calling Convention : Stack Parameter Convention                          *
;*   Function Uses Regs : r0,r1,fp,sp                                         *
;*   Regs Saved         :                                                     *
;*   Stack Frame        : Full (w/ debug)                                     *
;*   Total Frame Size   : 2 Call + 2 Parm + 0 Auto + 0 SOE = 4 words          *
;******************************************************************************
_user_PacTx:
	.sym	_pTxBuf,-2,28,9,32
	.sym	_nTxLen,-3,4,9,32
	.line	1
;----------------------------------------------------------------------
; 301 | void user_PacTx(UCHAR *pTxBuf,int nTxLen)                              
;----------------------------------------------------------------------
        push      fp
        ldiu      sp,fp
	.line	2
	.line	3
;----------------------------------------------------------------------
; 303 | xr16l784_RtsDelayStartSend(XR16L784_3CHL,(UCHAR *)pTxBuf,nTxLen,10);   
;----------------------------------------------------------------------
        ldiu      10,r0
        ldiu      2,r1
        push      r0
        ldiu      *-fp(3),r0
        push      r0
        ldiu      *-fp(2),r0
        push      r0
        push      r1
        call      _xr16l784_RtsDelayStartSend
                                        ; Call Occurs
        subi      4,sp
	.line	4
        ldiu      *-fp(1),bk
        ldiu      *fp,fp
        subi      2,sp
        bu        bk
;*      Branch Occurs to bk 
	.endfunc	304,000000000h,0


	.sect	 ".text"

	.global	_BitSwap
	.sym	_BitSwap,_BitSwap,44,2,0
	.func	311
;******************************************************************************
;* FUNCTION NAME: _BitSwap                                                    *
;*                                                                            *
;*   Architecture       : TMS320C30                                           *
;*   Calling Convention : Stack Parameter Convention                          *
;*   Function Uses Regs : r0,st                                               *
;*   Regs Saved         :                                                     *
;*   Stack Frame        : Full (w/ debug)                                     *
;*   Total Frame Size   : 2 Call + 1 Parm + 1 Auto + 0 SOE = 4 words          *
;******************************************************************************
_BitSwap:
	.sym	_btDat,-2,12,9,32
	.sym	_btBuf,1,12,1,32
	.line	1
;----------------------------------------------------------------------
; 311 | UCHAR BitSwap(UCHAR btDat)                                             
;----------------------------------------------------------------------
        push      fp
        ldiu      sp,fp
        addi      1,sp
	.line	2
	.line	3
;----------------------------------------------------------------------
; 313 | UCHAR btBuf = 0x00;                                                    
;----------------------------------------------------------------------
        ldiu      0,r0
        sti       r0,*+fp(1)
	.line	5
;----------------------------------------------------------------------
; 315 | btBuf |= MASKBIT(btDat&0x01?1:0,7);                                    
;----------------------------------------------------------------------
        ldiu      1,r0
        tstb      *-fp(2),r0
        beq       L85
;*      Branch Occurs to L85 
        bu        L86
;*      Branch Occurs to L86 
L85:        
        ldiu      0,r0
L86:        
        and       1,r0
        ash       7,r0
        or        *+fp(1),r0
        sti       r0,*+fp(1)
	.line	6
;----------------------------------------------------------------------
; 316 | btBuf |= MASKBIT(btDat&0x02?1:0,6);                                    
;----------------------------------------------------------------------
        ldiu      2,r0
        tstb      *-fp(2),r0
        beq       L88
;*      Branch Occurs to L88 
        bud       L89
	nop
	nop
        ldiu      1,r0
;*      Branch Occurs to L89 
L88:        
        ldiu      0,r0
L89:        
        and       1,r0
        ash       6,r0
        or        *+fp(1),r0
        sti       r0,*+fp(1)
	.line	7
;----------------------------------------------------------------------
; 317 | btBuf |= MASKBIT(btDat&0x04?1:0,5);                                    
;----------------------------------------------------------------------
        ldiu      4,r0
        tstb      *-fp(2),r0
        beq       L91
;*      Branch Occurs to L91 
        bud       L92
	nop
	nop
        ldiu      1,r0
;*      Branch Occurs to L92 
L91:        
        ldiu      0,r0
L92:        
        and       1,r0
        ash       5,r0
        or        *+fp(1),r0
        sti       r0,*+fp(1)
	.line	8
;----------------------------------------------------------------------
; 318 | btBuf |= MASKBIT(btDat&0x08?1:0,4);                                    
;----------------------------------------------------------------------
        ldiu      8,r0
        tstb      *-fp(2),r0
        beq       L94
;*      Branch Occurs to L94 
        bud       L95
	nop
	nop
        ldiu      1,r0
;*      Branch Occurs to L95 
L94:        
        ldiu      0,r0
L95:        
        and       1,r0
        ash       4,r0
        or        *+fp(1),r0
        sti       r0,*+fp(1)
	.line	9
;----------------------------------------------------------------------
; 319 | btBuf |= MASKBIT(btDat&0x10?1:0,3);                                    
;----------------------------------------------------------------------
        ldiu      16,r0
        tstb      *-fp(2),r0
        beq       L97
;*      Branch Occurs to L97 
        bud       L98
	nop
	nop
        ldiu      1,r0
;*      Branch Occurs to L98 
L97:        
        ldiu      0,r0
L98:        
        and       1,r0
        ash       3,r0
        or        *+fp(1),r0
        sti       r0,*+fp(1)
	.line	10
;----------------------------------------------------------------------
; 320 | btBuf |= MASKBIT(btDat&0x20?1:0,2);                                    
;----------------------------------------------------------------------
        ldiu      32,r0
        tstb      *-fp(2),r0
        beq       L100
;*      Branch Occurs to L100 
        bud       L101
	nop
	nop
        ldiu      1,r0
;*      Branch Occurs to L101 
L100:        
        ldiu      0,r0
L101:        
        and       1,r0
        ash       2,r0
        or        *+fp(1),r0
        sti       r0,*+fp(1)
	.line	11
;----------------------------------------------------------------------
; 321 | btBuf |= MASKBIT(btDat&0x40?1:0,1);                                    
;----------------------------------------------------------------------
        ldiu      64,r0
        tstb      *-fp(2),r0
        beq       L103
;*      Branch Occurs to L103 
        bud       L104
	nop
	nop
        ldiu      1,r0
;*      Branch Occurs to L104 
L103:        
        ldiu      0,r0
L104:        
        and       1,r0
        ash       1,r0
        or        *+fp(1),r0
        sti       r0,*+fp(1)
	.line	12
;----------------------------------------------------------------------
; 322 | btBuf |= MASKBIT(btDat&0x80?1:0,0);                                    
;----------------------------------------------------------------------
        ldiu      128,r0
        tstb      *-fp(2),r0
        beq       L106
;*      Branch Occurs to L106 
        bud       L107
	nop
	nop
        ldiu      1,r0
;*      Branch Occurs to L107 
L106:        
        ldiu      0,r0
L107:        
        and       1,r0
        or        *+fp(1),r0
        sti       r0,*+fp(1)
	.line	14
;----------------------------------------------------------------------
; 324 | return btBuf;                                                          
;----------------------------------------------------------------------
	.line	15
        ldiu      *-fp(1),r1
        ldiu      *fp,fp
        subi      3,sp
        bu        r1
;*      Branch Occurs to r1 
	.endfunc	325,000000000h,1



	.sect	".cinit"
	.field  	1,32
	.field  	_nRxPos$4+0,32
	.field  	0,32		; _nRxPos$4 @ 0

	.sect	".text"

	.sect	".cinit"
	.field  	1,32
	.field  	_nOldUart2RxOneByteGapDelayTime$5+0,32
	.field  	0,32		; _nOldUart2RxOneByteGapDelayTime$5 @ 0

	.sect	".text"

	.sect	".cinit"
	.field  	1,32
	.field  	_nTimeSendCnt$8+0,32
	.field  	0,32		; _nTimeSendCnt$8 @ 0

	.sect	".text"
	.sect	 ".text"

	.global	_user_WithCncsRs232Loop
	.sym	_user_WithCncsRs232Loop,_user_WithCncsRs232Loop,32,2,0
	.func	330
;******************************************************************************
;* FUNCTION NAME: _user_WithCncsRs232Loop                                     *
;*                                                                            *
;*   Architecture       : TMS320C30                                           *
;*   Calling Convention : Stack Parameter Convention                          *
;*   Function Uses Regs : r0,r1,r2,r3,r4,r5,ar0,ar1,fp,ir0,ir1,sp,st          *
;*   Regs Saved         : r4,r5                                               *
;*   Stack Frame        : Full (w/ debug)                                     *
;*   Total Frame Size   : 2 Call + 0 Parm + 988 Auto + 2 SOE = 992 words      *
;******************************************************************************
_user_WithCncsRs232Loop:
	.bss	_nRxPos$4,1
	.sym	_nRxPos,_nRxPos$4,4,3,32
	.bss	_nOldUart2RxOneByteGapDelayTime$5,1
	.sym	_nOldUart2RxOneByteGapDelayTime,_nOldUart2RxOneByteGapDelayTime$5,12,3,32
	.bss	_btRx2chBuf$6,512
	.sym	_btRx2chBuf,_btRx2chBuf$6,60,3,16384,,512
	.bss	_btTx2chBuf$7,512
	.sym	_btTx2chBuf,_btTx2chBuf$7,60,3,16384,,512
	.bss	_nTimeSendCnt$8,1
	.sym	_nTimeSendCnt,_nTimeSendCnt$8,4,3,32
	.sym	_i,1,4,1,32
	.sym	_nRxLen,2,4,1,32
	.sym	_btBuf,3,60,1,8192,,256
	.sym	_sTimeBuf,259,60,1,320,,10
	.sym	_sPotoLen,269,4,1,32
	.sym	_sBcc,270,12,1,32
	.sym	_LL,271,12,1,32
	.sym	_LH,272,12,1,32
	.sym	_HL,273,12,1,32
	.sym	_HH,274,12,1,32
	.sym	_nBlkSize,275,4,1,32
	.sym	_nTempBlkEnd,276,4,1,32
	.sym	_sTxDataSize,277,4,1,32
	.sym	_btTxBuf,278,60,1,4096,,128
	.sym	_szBuf,406,50,1,16384,,512
	.sym	_szBuf2,918,50,1,2048,,64
	.sym	_pNvsram,982,28,1,32
	.sym	_pLicVerDp,983,24,1,32,.fake44
	.sym	_pLic_Cncs,984,24,1,32,.fake42
	.sym	_pCncsLicSd,985,24,1,32,.fake45
	.sym	_pCnsc_Lic_T_F,986,24,1,32,.fake46
	.sym	_pCncs_Lic_T_F_C,987,24,1,32,.fake47
	.sym	_pInfo,988,24,1,32,.fake68
	.line	1
;----------------------------------------------------------------------
; 330 | void user_WithCncsRs232Loop()                                          
; 332 | int i;                                                                 
; 333 | int nRxLen;                                                            
; 334 | UCHAR btBuf[256]; //Ľö˝Ĺ ·ąÁö˝şĆ®żˇĽ­ ŔĐľî żŔ´Â şŻĽö                   
; 335 | UCHAR sTimeBuf[10];//˝Ă°Ł ŔüĽŰ ąöĆŰ.                                   
;----------------------------------------------------------------------
        push      fp
        ldiu      sp,fp
        addi      988,sp
        push      r4
        push      r5
	.line	7
;----------------------------------------------------------------------
; 336 | int sPotoLen = 0; //şí·® ĆĐĹ¶ Index.                                   
;----------------------------------------------------------------------
        ldiu      269,ir0
        ldiu      0,r0
        sti       r0,*+fp(ir0)
	.line	8
;----------------------------------------------------------------------
; 337 | UCHAR sBcc = 0;                                                        
; 338 | static int nRxPos = 0; //Ľö˝Ĺ Ä«żîĹÍ.                                  
; 339 | static UCHAR nOldUart2RxOneByteGapDelayTime = 0; //10ms ŔĚ»ó Ľö˝ĹŔĚ ľĘµ
;     | Ç¸é Ľö˝Ĺ Ăł¸® ÇŃ´Ů.                                                    
; 340 | static UCHAR btRx2chBuf[512]; //Ľö˝Ĺ ąöĆŰ                              
; 341 | static UCHAR btTx2chBuf[512]; //ŔüĽŰ ąöĆŰ.                             
; 342 | static int nTimeSendCnt = 0;                                           
; 343 | UCHAR LL,LH,HL,HH;                                                     
;----------------------------------------------------------------------
        ldiu      270,ir0
        sti       r0,*+fp(ir0)
	.line	16
;----------------------------------------------------------------------
; 345 | int nBlkSize = 0;                                                      
;----------------------------------------------------------------------
        ldiu      275,ir0
        sti       r0,*+fp(ir0)
	.line	17
;----------------------------------------------------------------------
; 346 | int nTempBlkEnd = 0;                                                   
;----------------------------------------------------------------------
        ldiu      276,ir0
        sti       r0,*+fp(ir0)
	.line	18
;----------------------------------------------------------------------
; 347 | int sTxDataSize = 0; //Ľö˝ĹľĆ µĄŔĚĹ¸ size¸¦ şń·á ÇĎż© 128ŔĚ¸í Áß°Ł ŔŰŔ¸
;     | ¸é ¸¶Áö¸· ÇÁ·ąŔÓ ŔĚ´Ů.                                                 
; 349 | UCHAR btTxBuf[128];                                                    
; 350 | char szBuf[512];                                                       
; 351 | char szBuf2[64];                                                       
;----------------------------------------------------------------------
        ldiu      277,ir0
        sti       r0,*+fp(ir0)
	.line	25
;----------------------------------------------------------------------
; 354 | UCHAR *pNvsram = (UCHAR *)NVSRAM_BASE;                                 
;----------------------------------------------------------------------
        ldiu      982,ir0
        ldiu      @CL67,r0
        sti       r0,*+fp(ir0)
	.line	27
;----------------------------------------------------------------------
; 356 | PLIC_DPRAM_Ver pLicVerDp = (LIC_DPRAM_Ver *)NVSRAM_VER; //ąöŔü Á¤ş¸ Ăł¸
;     | ®¸¦ Ŕ§ÇŘ ŔÓŔÇ·Î ¸¸µéľú´Ů.                                              
; 357 | PLIC_CNCS_HD pLic_Cncs;                                                
; 358 | PCNCS_LIC_SD pCncsLicSd;                                               
; 360 | PCNCS_LIC_T_F pCnsc_Lic_T_F;                                           
;----------------------------------------------------------------------
        ldiu      983,ir0
        ldiu      @CL2,r0
        sti       r0,*+fp(ir0)
	.line	32
;----------------------------------------------------------------------
; 361 | PCNCS_LIC_T_F_C pCncs_Lic_T_F_C = (CNCS_LIC_T_F_C *) btRx2chBuf;
;     |                          // °íŔĺ ĆĐĹ¶ ŔüĽŰ żĎ·á Č®ŔÎ ÇÁ·ÎĹäÄÝ Ăß°ˇ(Y.J 
;     | 2011-05-10)                                                            
; 363 | // Fault Block Information;                                            
;----------------------------------------------------------------------
        ldiu      987,ir0
        ldiu      @CL68,r0
        sti       r0,*+fp(ir0)
	.line	35
;----------------------------------------------------------------------
; 364 | PFAULT_INFO pInfo = NULL;                                              
; 366 | // Ľö˝Ĺ                                                                
;----------------------------------------------------------------------
        ldiu      988,ir0
        ldiu      0,r0
        sti       r0,*+fp(ir0)
	.line	38
;----------------------------------------------------------------------
; 367 | nRxLen = user_CncsRx(btBuf,128);                                       
;----------------------------------------------------------------------
        ldiu      128,r1
        ldiu      fp,r0
        push      r1
        addi      3,r0
        push      r0
        call      _user_CncsRx
                                        ; Call Occurs
        subi      2,sp
        sti       r0,*+fp(2)
	.line	39
;----------------------------------------------------------------------
; 368 | if(nRxLen)                                                             
;----------------------------------------------------------------------
        cmpi      0,r0
        beq       L115
;*      Branch Occurs to L115 
	.line	41
;----------------------------------------------------------------------
; 370 | if(!m_Variable.m_nUart2RxOneByteGapDelayTime) nRxPos = 0;              
;----------------------------------------------------------------------
        ldi       @_m_Variable+289,r0
        bne       L113
;*      Branch Occurs to L113 
        ldiu      0,r0
        sti       r0,@_nRxPos$4+0
L113:        
	.line	42
;----------------------------------------------------------------------
; 371 | m_Variable.m_nUart2RxOneByteGapDelayTime = 10;                         
;----------------------------------------------------------------------
        ldiu      10,r0
        sti       r0,@_m_Variable+289
	.line	44
;----------------------------------------------------------------------
; 373 | if(nRxPos + nRxLen < 511)                                              
;----------------------------------------------------------------------
        ldiu      *+fp(2),r0
        addi      @_nRxPos$4+0,r0
        cmpi      511,r0
        bged      L115
        ldilt     @CL68,r0
        ldilt     fp,r1
        ldilt     *+fp(2),r2
;*      Branch Occurs to L115 
	.line	46
;----------------------------------------------------------------------
; 375 | memcpy(&btRx2chBuf[nRxPos],btBuf,nRxLen);                              
;----------------------------------------------------------------------
        addi      @_nRxPos$4+0,r0       ; Unsigned
        addi      3,r1
        push      r2
        push      r1
        push      r0
        call      _memcpy
                                        ; Call Occurs
        subi      3,sp
	.line	47
;----------------------------------------------------------------------
; 376 | nRxPos += nRxLen;                                                      
;----------------------------------------------------------------------
        ldiu      *+fp(2),r0
        addi      @_nRxPos$4+0,r0
        sti       r0,@_nRxPos$4+0
L115:        
	.line	51
;----------------------------------------------------------------------
; 380 | if(nOldUart2RxOneByteGapDelayTime && !m_Variable.m_nUart2RxOneByteGapDe
;     | layTime)                                                               
;----------------------------------------------------------------------
        ldi       @_nOldUart2RxOneByteGapDelayTime$5+0,r0
        beq       L155
;*      Branch Occurs to L155 
        ldi       @_m_Variable+289,r0
        bne       L155
;*      Branch Occurs to L155 
	.line	53
;----------------------------------------------------------------------
; 382 | pCncsLicSd = (CNCS_LIC_SD *)btRx2chBuf;                                
;----------------------------------------------------------------------
        ldiu      985,ir0
        ldiu      @CL68,r0
        sti       r0,*+fp(ir0)
	.line	55
;----------------------------------------------------------------------
; 384 | pCnsc_Lic_T_F = (CNCS_LIC_T_F *) btRx2chBuf;                           
;----------------------------------------------------------------------
        ldiu      986,ir0
        sti       r0,*+fp(ir0)
	.line	57
;----------------------------------------------------------------------
; 386 | if(pCncsLicSd->phHdBuf.btSoh == SOH &&                                 
; 387 |    pCncsLicSd->btEot == EOT &&                                         
; 388 |    sizeof(CNCS_LIC_SD) == nRxPos &&                                    
; 389 |    (TWOBYTE_ASC2HEX(pCncsLicSd->phHdBuf.chDestDev) == 0x11) &&         
; 390 |    (TWOBYTE_ASC2HEX(pCncsLicSd->sCommand) == 0x09) &&  //CNCS°ˇ ˝Ă°Ł ŔŔ
;     | ´ä                                                                     
; 391 |    !((Make1ByteBcc(&pCncsLicSd->phHdBuf.chSrcDev[0],nRxPos-4)^(TWOBYTE_
;     | ASC2HEX(pCncsLicSd->chChkSum)))))                                      
;----------------------------------------------------------------------
        ldiu      985,ir0
        ldiu      *+fp(ir0),ar0
        ldiu      *ar0,r0
        cmpi      1,r0
        bne       L135
;*      Branch Occurs to L135 
        ldiu      *+fp(ir0),ir0
        ldiu      473,ar0
        ldiu      *+ar0(ir0),r0
        cmpi      4,r0
        bne       L135
;*      Branch Occurs to L135 
        ldiu      474,r0
        cmpi      @_nRxPos$4+0,r0
        bne       L135
;*      Branch Occurs to L135 
        ldiu      985,ir0
        ldiu      *+fp(ir0),ar0
        ldiu      *+ar0(3),r0
        push      r0
        call      _ConvAsc2Hex
                                        ; Call Occurs
        ldiu      985,ir0
        subi      1,sp
        ldiu      r0,r4
        ldiu      *+fp(ir0),ar0
        ldiu      *+ar0(4),r0
        ash       4,r4
        push      r0
        call      _ConvAsc2Hex
                                        ; Call Occurs
        and       15,r0
        or3       r4,r0,r0
        and       255,r0
        cmpi      17,r0
        subi      1,sp
        bne       L135
;*      Branch Occurs to L135 
        ldiu      985,ir0
        ldiu      *+fp(ir0),ar0
        ldiu      *+ar0(15),r0
        push      r0
        call      _ConvAsc2Hex
                                        ; Call Occurs
        ldiu      985,ir0
        subi      1,sp
        ldiu      r0,r4
        ldiu      *+fp(ir0),ar0
        ldiu      *+ar0(16),r0
        ash       4,r4
        push      r0
        call      _ConvAsc2Hex
                                        ; Call Occurs
        and       15,r0
        or3       r4,r0,r0
        and       255,r0
        cmpi      9,r0
        subi      1,sp
        bne       L135
;*      Branch Occurs to L135 
        ldiu      1,r1
        ldiu      985,ir0
        ldiu      4,r0
        addi3     r1,*+fp(ir0),r1       ; Unsigned
        subri     @_nRxPos$4+0,r0
        push      r0
        push      r1
        call      _Make1ByteBcc
                                        ; Call Occurs
        ldiu      985,ir0
        subi      2,sp
        ldiu      471,ar0
        ldiu      *+fp(ir0),ir0
        ldiu      *+ar0(ir0),r1
        ldiu      r0,r5
        push      r1
        call      _ConvAsc2Hex
                                        ; Call Occurs
        subi      1,sp
        ldiu      985,ir0
        ldiu      472,ar0
        ldiu      *+fp(ir0),ir0
        ldiu      *+ar0(ir0),r1
        ldiu      r0,r4
        ash       4,r4
        push      r1
        call      _ConvAsc2Hex
                                        ; Call Occurs
        and       15,r0
        or3       r4,r0,r0
        and       255,r0
        xor3      r5,r0,r0
        subi      1,sp
        bne       L135
;*      Branch Occurs to L135 
	.line	66
;----------------------------------------------------------------------
; 395 | m_Variable.m_tmCurTime.second = TWOBYTE_ASC2HEX(pCncsLicSd->sSecond);  
;----------------------------------------------------------------------
        ldiu      985,ir0
        ldiu      *+fp(ir0),ar0
        ldiu      *+ar0(27),r0
        push      r0
        call      _ConvAsc2Hex
                                        ; Call Occurs
        ldiu      985,ir0
        subi      1,sp
        ldiu      r0,r4
        ldiu      *+fp(ir0),ar0
        ldiu      *+ar0(28),r0
        ash       4,r4
        push      r0
        call      _ConvAsc2Hex
                                        ; Call Occurs
        and       15,r0
        or3       r4,r0,r0
        and       255,r0
        sti       r0,@_m_Variable+293
        subi      1,sp
	.line	67
;----------------------------------------------------------------------
; 396 | m_Variable.m_tmCurTime.minute = TWOBYTE_ASC2HEX(pCncsLicSd->sMinute);  
;----------------------------------------------------------------------
        ldiu      985,ir0
        ldiu      *+fp(ir0),ar0
        ldiu      *+ar0(25),r0
        push      r0
        call      _ConvAsc2Hex
                                        ; Call Occurs
        subi      1,sp
        ldiu      985,ir0
        ldiu      *+fp(ir0),ar0
        ldiu      *+ar0(26),r1
        ldiu      r0,r4
        push      r1
        ash       4,r4
        call      _ConvAsc2Hex
                                        ; Call Occurs
        and       15,r0
        or3       r4,r0,r0
        and       255,r0
        sti       r0,@_m_Variable+294
        subi      1,sp
	.line	68
;----------------------------------------------------------------------
; 397 | m_Variable.m_tmCurTime.hour   = TWOBYTE_ASC2HEX(pCncsLicSd->sHour);    
;----------------------------------------------------------------------
        ldiu      985,ir0
        ldiu      *+fp(ir0),ar0
        ldiu      *+ar0(23),r0
        push      r0
        call      _ConvAsc2Hex
                                        ; Call Occurs
        ldiu      985,ir0
        subi      1,sp
        ldiu      *+fp(ir0),ar0
        ldiu      r0,r4
        ldiu      *+ar0(24),r0
        push      r0
        ash       4,r4
        call      _ConvAsc2Hex
                                        ; Call Occurs
        and       15,r0
        or3       r4,r0,r0
        and       255,r0
        sti       r0,@_m_Variable+295
        subi      1,sp
	.line	69
;----------------------------------------------------------------------
; 398 | m_Variable.m_tmCurTime.day    = TWOBYTE_ASC2HEX(pCncsLicSd->sDay);     
;----------------------------------------------------------------------
        ldiu      985,ir0
        ldiu      *+fp(ir0),ar0
        ldiu      *+ar0(21),r0
        push      r0
        call      _ConvAsc2Hex
                                        ; Call Occurs
        subi      1,sp
        ldiu      985,ir0
        ldiu      *+fp(ir0),ar0
        ldiu      *+ar0(22),r1
        ldiu      r0,r4
        ash       4,r4
        push      r1
        call      _ConvAsc2Hex
                                        ; Call Occurs
        and       15,r0
        or3       r4,r0,r0
        and       255,r0
        sti       r0,@_m_Variable+296
        subi      1,sp
	.line	70
;----------------------------------------------------------------------
; 399 | m_Variable.m_tmCurTime.month  = TWOBYTE_ASC2HEX(pCncsLicSd->sMonth);   
;----------------------------------------------------------------------
        ldiu      985,ir0
        ldiu      *+fp(ir0),ar0
        ldiu      *+ar0(19),r0
        push      r0
        call      _ConvAsc2Hex
                                        ; Call Occurs
        ldiu      985,ir0
        subi      1,sp
        ldiu      *+fp(ir0),ar0
        ldiu      r0,r4
        ldiu      *+ar0(20),r0
        push      r0
        ash       4,r4
        call      _ConvAsc2Hex
                                        ; Call Occurs
        and       15,r0
        or3       r4,r0,r0
        and       255,r0
        sti       r0,@_m_Variable+297
        subi      1,sp
	.line	71
;----------------------------------------------------------------------
; 400 | m_Variable.m_tmCurTime.year   = TWOBYTE_ASC2HEX(pCncsLicSd->sYear);    
; 402 | //memset(&m_Variable.m_tmUtcTime, 0x00, sizeof(DATE_TIME_TYPE));       
;----------------------------------------------------------------------
        ldiu      985,ir0
        ldiu      *+fp(ir0),ar0
        ldiu      *+ar0(17),r0
        push      r0
        call      _ConvAsc2Hex
                                        ; Call Occurs
        ldiu      985,ir0
        subi      1,sp
        ldiu      r0,r4
        ldiu      *+fp(ir0),ar0
        ldiu      *+ar0(18),r0
        ash       4,r4
        push      r0
        call      _ConvAsc2Hex
                                        ; Call Occurs
        and       15,r0
        or3       r4,r0,r0
        and       255,r0
        sti       r0,@_m_Variable+298
        subi      1,sp
	.line	75
;----------------------------------------------------------------------
; 404 | if(m_Variable.m_LIC_CNCS_TimSetFlag = GetLocalTimeToUTC(&m_Variable.m_t
;     | mCurTime,0, &m_Variable.m_tmUtcTime))                                  
;----------------------------------------------------------------------
        ldiu      @CL69,r2
        ldiu      @CL70,r1
        ldiu      0,r0
        push      r2
        push      r0
        push      r1
        call      _GetLocalTimeToUTC
                                        ; Call Occurs
        cmpi      0,r0
        beqd      L126
	nop
        sti       r0,@_m_Variable+427
        subi      3,sp
;*      Branch Occurs to L126 
	.line	77
;----------------------------------------------------------------------
; 406 | m_Variable.m_tmUtcTime.year         = ConvDec2Hex(m_Variable.m_tmUtcTim
;     | e.year   );                                                            
;----------------------------------------------------------------------
        ldiu      @_m_Variable+305,r0
        push      r0
        call      _ConvDec2Hex
                                        ; Call Occurs
        sti       r0,@_m_Variable+305
        subi      1,sp
	.line	78
;----------------------------------------------------------------------
; 407 | m_Variable.m_tmUtcTime.month    = ConvDec2Hex(m_Variable.m_tmUtcTime.mo
;     | nth );                                                                 
;----------------------------------------------------------------------
        ldiu      @_m_Variable+304,r0
        push      r0
        call      _ConvDec2Hex
                                        ; Call Occurs
        sti       r0,@_m_Variable+304
        subi      1,sp
	.line	79
;----------------------------------------------------------------------
; 408 | m_Variable.m_tmUtcTime.day          = ConvDec2Hex(m_Variable.m_tmUtcTim
;     | e.day    );                                                            
;----------------------------------------------------------------------
        ldiu      @_m_Variable+303,r0
        push      r0
        call      _ConvDec2Hex
                                        ; Call Occurs
        sti       r0,@_m_Variable+303
        subi      1,sp
	.line	80
;----------------------------------------------------------------------
; 409 | m_Variable.m_tmUtcTime.hour         = ConvDec2Hex(m_Variable.m_tmUtcTim
;     | e.hour   );                                                            
;----------------------------------------------------------------------
        ldiu      @_m_Variable+302,r0
        push      r0
        call      _ConvDec2Hex
                                        ; Call Occurs
        sti       r0,@_m_Variable+302
        subi      1,sp
	.line	81
;----------------------------------------------------------------------
; 410 | m_Variable.m_tmUtcTime.minute   = ConvDec2Hex(m_Variable.m_tmUtcTime.mi
;     | nute);                                                                 
;----------------------------------------------------------------------
        ldiu      @_m_Variable+301,r0
        push      r0
        call      _ConvDec2Hex
                                        ; Call Occurs
        sti       r0,@_m_Variable+301
        subi      1,sp
	.line	82
;----------------------------------------------------------------------
; 411 | m_Variable.m_tmUtcTime.second   = ConvDec2Hex(m_Variable.m_tmUtcTime.se
;     | cond);                                                                 
;----------------------------------------------------------------------
        ldiu      @_m_Variable+300,r0
        push      r0
        call      _ConvDec2Hex
                                        ; Call Occurs
        sti       r0,@_m_Variable+300
        subi      1,sp
	.line	84
;----------------------------------------------------------------------
; 413 | m_Variable.m_nCncsRxCheck1msTimer = 2000;                              
;----------------------------------------------------------------------
        ldiu      2000,r0
        sti       r0,@_m_Variable+429
L126:        
	.line	90
;----------------------------------------------------------------------
; 419 | for(i=0;i<VER_BDD_MAX_CNT;i++)                                         
;----------------------------------------------------------------------
        ldiu      0,r0
        sti       r0,*+fp(1)
        cmpi      32,r0
        bge       L131
;*      Branch Occurs to L131 
L127:        
	.line	92
;----------------------------------------------------------------------
; 421 | if(!MAKE_DWORD(0x00,m_Variable.m_tmUtcTime.year,m_Variable.m_tmUtcTime.
;     | month,m_Variable.m_tmUtcTime.day))                                     
;----------------------------------------------------------------------
        ldiu      255,r1
        ldiu      255,r0
        ldiu      255,r2
        and       @_m_Variable+305,r1
        and       @_m_Variable+304,r0
        and       @_m_Variable+303,r2
        ash       16,r1
        ash       8,r0
        or3       r1,r0,r0
        or3       r0,r2,r0
        bne       L130
;*      Branch Occurs to L130 
	.line	94
;----------------------------------------------------------------------
; 423 | pLicVerDp->VerCnt = FALSE;                                             
;----------------------------------------------------------------------
        ldiu      983,ir0
        ldiu      *+fp(ir0),ar0
        ldiu      0,r0
        sti       r0,*ar0
	.line	95
;----------------------------------------------------------------------
; 424 | memset(pLicVerDp->cvbBuf[i].chVer,'0',4);                              
;----------------------------------------------------------------------
        ldiu      4,r2
        ldiu      48,r1
        ldiu      *+fp(1),r0
        mpyi      10,r0
        addi3     r0,*+fp(ir0),r0       ; Unsigned
        push      r2
        addi      1,r0                  ; Unsigned
        push      r1
        push      r0
        call      _memset
                                        ; Call Occurs
        subi      3,sp
	.line	96
;----------------------------------------------------------------------
; 425 | memset(pLicVerDp->cvbBuf[i].chBuildDate,'0',6);                        
;----------------------------------------------------------------------
        ldiu      *+fp(1),r0
        ldiu      983,ir0
        mpyi      10,r0
        addi3     r0,*+fp(ir0),r0       ; Unsigned
        ldiu      6,r2
        push      r2
        addi      5,r0                  ; Unsigned
        ldiu      48,r1
        push      r1
        push      r0
        call      _memset
                                        ; Call Occurs
        subi      3,sp
	.line	97
;----------------------------------------------------------------------
; 426 | break;                                                                 
; 428 | else                                                                   
;----------------------------------------------------------------------
        bu        L131
;*      Branch Occurs to L131 
L130:        
	.line	101
;----------------------------------------------------------------------
; 430 | pLicVerDp->VerCnt = TRUE;                                              
; 432 | // ąöŔü ŔÔ·Â                                                           
;----------------------------------------------------------------------
        ldiu      983,ir0
        ldiu      *+fp(ir0),ar0
        ldiu      1,r0
        sti       r0,*ar0
	.line	104
;----------------------------------------------------------------------
; 433 | pLicVerDp->cvbBuf[i].chVer[0] = '1';//pCncsLicSd->cvbBuf[i].chVer[0];  
;----------------------------------------------------------------------
        ldiu      *+fp(1),r0
        mpyi      10,r0
        addi3     r0,*+fp(ir0),ar0      ; Unsigned
        ldiu      49,r0
        sti       r0,*+ar0(1)
	.line	105
;----------------------------------------------------------------------
; 434 | pLicVerDp->cvbBuf[i].chVer[1] = '0';//pCncsLicSd->cvbBuf[i].chVer[1];  
;----------------------------------------------------------------------
        ldiu      *+fp(1),r0
        mpyi      10,r0
        addi3     r0,*+fp(ir0),ar0      ; Unsigned
        ldiu      48,r0
        sti       r0,*+ar0(2)
	.line	106
;----------------------------------------------------------------------
; 435 | pLicVerDp->cvbBuf[i].chVer[2] = '0';//pCncsLicSd->cvbBuf[i].chVer[2];  
;----------------------------------------------------------------------
        ldiu      *+fp(1),r0
        mpyi      10,r0
        addi3     r0,*+fp(ir0),ar0      ; Unsigned
        ldiu      48,r0
        sti       r0,*+ar0(3)
	.line	107
;----------------------------------------------------------------------
; 436 | pLicVerDp->cvbBuf[i].chVer[3] = '0';//pCncsLicSd->cvbBuf[i].chVer[3];  
; 439 | // ¸¸µéľîÁř łŻÂĄ ŔÔ·Â                                                  
;----------------------------------------------------------------------
        ldiu      *+fp(1),r0
        mpyi      10,r0
        addi3     r0,*+fp(ir0),ar0      ; Unsigned
        ldiu      48,r0
        sti       r0,*+ar0(4)
	.line	111
;----------------------------------------------------------------------
; 440 | pLicVerDp->cvbBuf[i].chBuildDate[0] = '1';//pCncsLicSd->cvbBuf[i].chBui
;     | ldDate[0];                                                             
;----------------------------------------------------------------------
        ldiu      *+fp(1),r0
        mpyi      10,r0
        addi3     r0,*+fp(ir0),ar0      ; Unsigned
        ldiu      49,r0
        sti       r0,*+ar0(5)
	.line	112
;----------------------------------------------------------------------
; 441 | pLicVerDp->cvbBuf[i].chBuildDate[1] = '2';//pCncsLicSd->cvbBuf[i].chBui
;     | ldDate[1];                                                             
;----------------------------------------------------------------------
        ldiu      *+fp(1),r0
        mpyi      10,r0
        addi3     r0,*+fp(ir0),ar0      ; Unsigned
        ldiu      50,r0
        sti       r0,*+ar0(6)
	.line	113
;----------------------------------------------------------------------
; 442 | pLicVerDp->cvbBuf[i].chBuildDate[2] = '0';//pCncsLicSd->cvbBuf[i].chBui
;     | ldDate[2];                                                             
;----------------------------------------------------------------------
        ldiu      *+fp(1),r0
        mpyi      10,r0
        addi3     r0,*+fp(ir0),ar0      ; Unsigned
        ldiu      48,r0
        sti       r0,*+ar0(7)
	.line	114
;----------------------------------------------------------------------
; 443 | pLicVerDp->cvbBuf[i].chBuildDate[3] = '6';//pCncsLicSd->cvbBuf[i].chBui
;     | ldDate[3];                                                             
;----------------------------------------------------------------------
        ldiu      *+fp(1),r0
        mpyi      10,r0
        addi3     r0,*+fp(ir0),ar0      ; Unsigned
        ldiu      54,r0
        sti       r0,*+ar0(8)
	.line	115
;----------------------------------------------------------------------
; 444 | pLicVerDp->cvbBuf[i].chBuildDate[4] = '2';//pCncsLicSd->cvbBuf[i].chBui
;     | ldDate[4];                                                             
;----------------------------------------------------------------------
        ldiu      *+fp(1),r0
        mpyi      10,r0
        addi3     r0,*+fp(ir0),ar0      ; Unsigned
        ldiu      50,r0
        sti       r0,*+ar0(9)
	.line	116
;----------------------------------------------------------------------
; 445 | pLicVerDp->cvbBuf[i].chBuildDate[5] = '6';//pCncsLicSd->cvbBuf[i].chBui
;     | ldDate[5];                                                             
;----------------------------------------------------------------------
        ldiu      *+fp(1),r0
        mpyi      10,r0
        addi3     r0,*+fp(ir0),ar0      ; Unsigned
        ldiu      54,r0
        sti       r0,*+ar0(10)
	.line	90
        ldiu      1,r0
        addi      *+fp(1),r0
        sti       r0,*+fp(1)
        cmpi      32,r0
        blt       L127
;*      Branch Occurs to L127 
L131:        
	.line	122
;----------------------------------------------------------------------
; 451 | if(TWOBYTE_ASC2HEX(pCncsLicSd->sWaySide) == 0x01 && !m_Variable.m_LIC_C
;     | NCS_Tx_Flag) // wayside on ľË¸˛                                        
;----------------------------------------------------------------------
        ldiu      985,ir0
        ldiu      *+fp(ir0),ar0
        ldiu      *+ar0(29),r0
        push      r0
        call      _ConvAsc2Hex
                                        ; Call Occurs
        ldiu      985,ir0
        subi      1,sp
        ldiu      r0,r4
        ldiu      *+fp(ir0),ar0
        ldiu      *+ar0(30),r0
        ash       4,r4
        push      r0
        call      _ConvAsc2Hex
                                        ; Call Occurs
        and       15,r0
        or3       r4,r0,r0
        and       255,r0
        cmpi      1,r0
        subi      1,sp
        bne       L172
;*      Branch Occurs to L172 
        ldi       @_m_Variable+331,r0
        bne       L172
;*      Branch Occurs to L172 
	.line	124
;----------------------------------------------------------------------
; 453 | m_Variable.m_nCDT_FaultDataStFlag = 1;                                 
; 455 | //2011_03_03 ĽöÁ¤                                                      
;----------------------------------------------------------------------
        ldiu      1,r0
        sti       r0,@_m_Variable+336
	.line	127
;----------------------------------------------------------------------
; 456 | m_Variable.m_nFaultCnt = 0;
;     |  // °íŔĺ °ąĽö¸¦ 0Ŕ¸·Î ĂĘ±âČ­.(Y.J Ăß°ˇ);                               
;----------------------------------------------------------------------
        ldiu      0,r0
        sti       r0,@_m_Variable+334
	.line	128
;----------------------------------------------------------------------
; 457 | memset((UCHAR *)NVSRAM_BASE,0x00,1024); // °íŔĺ şí·°Ŕ» "0" Ŕ¸·Î ĂĘ˝ĂČ­
;     | ÇŃ´Ů. ĂĘ±â Ŕ§Äˇ 0şÎĹÍ 1024±îÁö¸¸ ĂĘ±âČ­ ÇŃ´Ů.                          
;----------------------------------------------------------------------
        ldiu      1024,r2
        ldiu      @CL71,r1
        push      r2
        push      r0
        push      r1
        call      _memset
                                        ; Call Occurs
        subi      3,sp
	.line	129
;----------------------------------------------------------------------
; 458 | ClearFltBlkInfo();                                              // °íŔĺ
;     |  Á¤ş¸¸¦ ClearÇĎ´Â şÎşĐ.                                                
; 460 | //memset(aaa_FaultBlkList, 0xFF, 1024);                                
;----------------------------------------------------------------------
        call      _ClearFltBlkInfo
                                        ; Call Occurs
	.line	133
;----------------------------------------------------------------------
; 462 | m_Variable.m_nNvsramPos = 0;    //ŔüĂĽ ±â·Ď ±¸Á¶ Ŕ§Äˇ¸¦ ĂłŔ˝Ŕ¸·Î       
;----------------------------------------------------------------------
        ldiu      0,r0
        sti       r0,@_m_Variable+348
	.line	134
;----------------------------------------------------------------------
; 463 | m_Variable.m_Recving_Posi = 0;  //ÇöŔç ±îÁö ŔüĽŰÇŃ Ŕ§Äˇ¸¦ ĂłŔ˝Ŕ¸·Î     
;----------------------------------------------------------------------
        sti       r0,@_m_Variable+335
	.line	135
;----------------------------------------------------------------------
; 464 | m_Variable.m_nLnWkTxFlag = 0;   //°íŔĺ ÄÚµĺ ±¸şĐŔ» 0Ŕ¸·Î ĂĘ±âČ­        
;----------------------------------------------------------------------
        sti       r0,@_m_Variable+333
	.line	137
;----------------------------------------------------------------------
; 466 | m_Variable.m_nLnWkTxFlag = TWOBYTE_ASC2HEX(pCncsLicSd->sDaType);       
; 468 | // °íŔĺ ˝Ă°Ł żäĂ» WORD -> DWORD·Î şŻ°ć.(2011.05.08)                    
;----------------------------------------------------------------------
        ldiu      985,ir0
        ldiu      *+fp(ir0),ar0
        ldiu      *+ar0(31),r0
        push      r0
        call      _ConvAsc2Hex
                                        ; Call Occurs
        ldiu      985,ir0
        subi      1,sp
        ldiu      *+fp(ir0),ar0
        ldiu      r0,r4
        ldiu      *+ar0(32),r0
        ash       4,r4
        push      r0
        call      _ConvAsc2Hex
                                        ; Call Occurs
        and       15,r0
        or3       r4,r0,r0
        and       255,r0
        subi      1,sp
        sti       r0,@_m_Variable+333
	.line	140
;----------------------------------------------------------------------
; 469 | m_Variable.m_nDateTime2SecondCnt = MAKE_DWORD( MAKE_BYTE(ConvAsc2Hex(pC
;     | ncsLicSd->sFaultTime[0]),ConvAsc2Hex(pCncsLicSd->sFaultTime[1])),      
; 470 | 
;     |  MAKE_BYTE(ConvAsc2Hex(pCncsLicSd->sFaultTime[2]),ConvAsc2Hex(pCncsLicS
;     | d->sFaultTime[3])),                                                    
; 471 | 
;     |  MAKE_BYTE(ConvAsc2Hex(pCncsLicSd->sFaultTime[4]),ConvAsc2Hex(pCncsLicS
;     | d->sFaultTime[5])),                                                    
; 472 | 
;     |  MAKE_BYTE(ConvAsc2Hex(pCncsLicSd->sFaultTime[6]),ConvAsc2Hex(pCncsLicS
;     | d->sFaultTime[7])));                                                   
;----------------------------------------------------------------------
        ldiu      985,ir0
        ldiu      *+fp(ir0),ar0
        ldiu      *+ar0(33),r0
        push      r0
        call      _ConvAsc2Hex
                                        ; Call Occurs
        subi      1,sp
        ldiu      985,ir0
        ldiu      *+fp(ir0),ar0
        ldiu      r0,r4
        ldiu      *+ar0(34),r0
        ash       4,r4
        push      r0
        call      _ConvAsc2Hex
                                        ; Call Occurs
        ldiu      985,ir0
        subi      1,sp
        and       15,r0
        ldiu      *+fp(ir0),ar0
        or3       r4,r0,r5
        ldiu      *+ar0(35),r0
        and       255,r5
        push      r0
        ash       24,r5
        call      _ConvAsc2Hex
                                        ; Call Occurs
        subi      1,sp
        ldiu      985,ir0
        ldiu      *+fp(ir0),ar0
        ldiu      r0,r4
        ldiu      *+ar0(36),r0
        push      r0
        ash       4,r4
        call      _ConvAsc2Hex
                                        ; Call Occurs
        ldiu      985,ir0
        and       15,r0
        or3       r4,r0,r1
        subi      1,sp
        and       255,r1
        ldiu      *+fp(ir0),ar0
        ash       16,r1
        ldiu      *+ar0(37),r0
        or3       r5,r1,r4
        push      r0
        call      _ConvAsc2Hex
                                        ; Call Occurs
        ldiu      985,ir0
        subi      1,sp
        ldiu      *+fp(ir0),ar0
        ldiu      r0,r5
        ldiu      *+ar0(38),r0
        ash       4,r5
        push      r0
        call      _ConvAsc2Hex
                                        ; Call Occurs
        ldiu      985,ir0
        subi      1,sp
        and       15,r0
        or3       r5,r0,r1
        ldiu      *+fp(ir0),ar0
        and       255,r1
        ldiu      *+ar0(39),r0
        ash       8,r1
        or3       r4,r1,r4
        push      r0
        call      _ConvAsc2Hex
                                        ; Call Occurs
        subi      1,sp
        ldiu      985,ir0
        ldiu      *+fp(ir0),ar0
        ldiu      r0,r5
        ldiu      *+ar0(40),r0
        ash       4,r5
        push      r0
        call      _ConvAsc2Hex
                                        ; Call Occurs
        and       15,r0
        or3       r5,r0,r0
        and       255,r0
        or3       r4,r0,r0
        sti       r0,@_m_Variable+350
        subi      1,sp
        bu        L172
;*      Branch Occurs to L172 
L135:        
	.line	148
;----------------------------------------------------------------------
; 477 | else if(pCncs_Lic_T_F_C->phHdBuf.btSoh == SOH &&
;     |                                                                        
;     |                                           		// °íŔĺ ˝Ă°Ł żäĂ» WORD -> D
;     | WORD·Î şŻ°ć.(2011.05.11)                                               
; 478 |         pCncs_Lic_T_F_C->btEot == EOT &&                               
; 479 |         sizeof(CNCS_LIC_T_F_C) == nRxPos &&                            
; 480 |    (TWOBYTE_ASC2HEX(pCncs_Lic_T_F_C->phHdBuf.chDestDev) == 0x11) &&    
; 481 |    (TWOBYTE_ASC2HEX(pCncsLicSd->sCommand) == 0x07) &&  //°íŔĺ ŔüĽŰ Č®ŔÎ
;     |  ŔŔ´ä(CNCS-> LIC)                                                      
; 482 |    !((Make1ByteBcc(&pCncs_Lic_T_F_C->phHdBuf.chSrcDev[0],nRxPos-4)^(TWO
;     | BYTE_ASC2HEX(pCncs_Lic_T_F_C->chChkSum)))))                            
; 484 |         // Y.J 2011-05-10 żäĂ»ÇŃ °íŔĺ Index¸¦ »çżëÇĎż©, ŔüĽŰÇĎµµ·Ď ĽöÁ¤
;     | .                                                                      
;----------------------------------------------------------------------
        ldiu      987,ir0
        ldiu      *+fp(ir0),ar0
        ldiu      *ar0,r0
        cmpi      1,r0
        bne       L172
;*      Branch Occurs to L172 
        ldiu      *+fp(ir0),ar0
        ldiu      *+ar0(23),r0
        cmpi      4,r0
        bne       L172
;*      Branch Occurs to L172 
        ldiu      24,r0
        cmpi      @_nRxPos$4+0,r0
        bne       L172
;*      Branch Occurs to L172 
        ldiu      *+fp(ir0),ar0
        ldiu      *+ar0(3),r0
        push      r0
        call      _ConvAsc2Hex
                                        ; Call Occurs
        ldiu      987,ir0
        subi      1,sp
        ldiu      r0,r4
        ldiu      *+fp(ir0),ar0
        ldiu      *+ar0(4),r0
        ash       4,r4
        push      r0
        call      _ConvAsc2Hex
                                        ; Call Occurs
        and       15,r0
        or3       r4,r0,r0
        and       255,r0
        cmpi      17,r0
        subi      1,sp
        bne       L172
;*      Branch Occurs to L172 
        ldiu      985,ir0
        ldiu      *+fp(ir0),ar0
        ldiu      *+ar0(15),r0
        push      r0
        call      _ConvAsc2Hex
                                        ; Call Occurs
        ldiu      985,ir0
        subi      1,sp
        ldiu      r0,r4
        ldiu      *+fp(ir0),ar0
        ldiu      *+ar0(16),r0
        ash       4,r4
        push      r0
        call      _ConvAsc2Hex
                                        ; Call Occurs
        and       15,r0
        or3       r4,r0,r0
        and       255,r0
        cmpi      7,r0
        subi      1,sp
        bne       L172
;*      Branch Occurs to L172 
        ldiu      1,r1
        ldiu      987,ir0
        ldiu      4,r0
        addi3     r1,*+fp(ir0),r1       ; Unsigned
        subri     @_nRxPos$4+0,r0
        push      r0
        push      r1
        call      _Make1ByteBcc
                                        ; Call Occurs
        ldiu      987,ir0
        subi      2,sp
        ldiu      *+fp(ir0),ar0
        ldiu      *+ar0(21),r1
        ldiu      r0,r5
        push      r1
        call      _ConvAsc2Hex
                                        ; Call Occurs
        ldiu      987,ir0
        subi      1,sp
        ldiu      *+fp(ir0),ar0
        ldiu      r0,r4
        ldiu      *+ar0(22),r0
        ash       4,r4
        push      r0
        call      _ConvAsc2Hex
                                        ; Call Occurs
        and       15,r0
        or3       r4,r0,r0
        and       255,r0
        xor3      r5,r0,r0
        subi      1,sp
        bne       L172
;*      Branch Occurs to L172 
	.line	156
;----------------------------------------------------------------------
; 485 | sPotoLen = MAKE_WORD(MAKE_BYTE(ConvAsc2Hex(pCnsc_Lic_T_F->sTEXT[0]),Con
;     | vAsc2Hex(pCnsc_Lic_T_F->sTEXT[1])),                                    
; 486 |                      MAKE_BYTE(ConvAsc2Hex(pCnsc_Lic_T_F->sTEXT[2]),Con
;     | vAsc2Hex(pCnsc_Lic_T_F->sTEXT[3])));                                   
;----------------------------------------------------------------------
        ldiu      986,ir0
        ldiu      *+fp(ir0),ar0
        ldiu      *+ar0(17),r0
        push      r0
        call      _ConvAsc2Hex
                                        ; Call Occurs
        ldiu      986,ir0
        subi      1,sp
        ldiu      r0,r4
        ldiu      *+fp(ir0),ar0
        ldiu      *+ar0(18),r0
        ash       4,r4
        push      r0
        call      _ConvAsc2Hex
                                        ; Call Occurs
        ldiu      986,ir0
        and       15,r0
        subi      1,sp
        or3       r4,r0,r5
        ldiu      *+fp(ir0),ar0
        and       255,r5
        ldiu      *+ar0(19),r0
        ash       8,r5
        push      r0
        call      _ConvAsc2Hex
                                        ; Call Occurs
        subi      1,sp
        ldiu      986,ir0
        ldiu      *+fp(ir0),ar0
        ldiu      r0,r4
        ldiu      *+ar0(20),r0
        push      r0
        ash       4,r4
        call      _ConvAsc2Hex
                                        ; Call Occurs
        ldiu      269,ir0
        and       15,r0
        or3       r4,r0,r0
        and       255,r0
        subi      1,sp
        or3       r5,r0,r0
        and       65535,r0
        sti       r0,*+fp(ir0)
	.line	158
;----------------------------------------------------------------------
; 487 | if(sPotoLen)                                                           
; 489 |         // ŔçŔüĽŰÇŇ °íŔĺ şí·Ď Á¤ş¸¸¦ ľňŔ˝.                             
;----------------------------------------------------------------------
        ldi       *+fp(ir0),r0
        beq       L154
;*      Branch Occurs to L154 
	.line	161
;----------------------------------------------------------------------
; 490 | pInfo = GetFltBlkInfo(m_Variable.m_chCarKind);                         
;----------------------------------------------------------------------
        ldiu      @_m_Variable+342,r0
        push      r0
        call      _GetFltBlkInfo
                                        ; Call Occurs
        subi      1,sp
        ldiu      988,ir0
        sti       r0,*+fp(ir0)
	.line	163
;----------------------------------------------------------------------
; 492 | if(pInfo != NULL)                                                      
; 494 |         // ŔüĽŰÇŇ şí·Ď Ŕ§Äˇ·Î ŔĚµż.                                    
;----------------------------------------------------------------------
        ldi       *+fp(ir0),r0
        beq       L153
;*      Branch Occurs to L153 
	.line	166
;----------------------------------------------------------------------
; 495 | m_Variable.m_Recving_Posi = pInfo->nStPosi + ((sPotoLen-1) * 128);     
; 497 | // ŔüĽŰÇŇ şí·Ď Ĺ©±â¸¦ ±¸ÇĎ´Â şÎşĐ.                                     
;----------------------------------------------------------------------
        ldiu      269,ir1
        ldiu      1,r0
        ldiu      *+fp(ir0),ar0
        subi3     r0,*+fp(ir1),r0
        mpyi      128,r0
        addi      *+ar0(1),r0
        sti       r0,@_m_Variable+335
	.line	169
;----------------------------------------------------------------------
; 498 | if(sPotoLen < pInfo->nTCnt) //  (sPotoLen*128) <= nTempBlkEnd)         
;----------------------------------------------------------------------
        ldiu      *+fp(ir0),ar0
        cmpi3     *ar0,*+fp(ir1)
        bged      L146
	nop
        ldige     988,ir0
        ldige     269,ir1
;*      Branch Occurs to L146 
	.line	171
;----------------------------------------------------------------------
; 500 | nBlkSize = 128;                                                        
;----------------------------------------------------------------------
        ldiu      275,ir0
        ldiu      128,r0
        sti       r0,*+fp(ir0)
        bu        L150
;*      Branch Occurs to L150 
	.line	173
;----------------------------------------------------------------------
; 502 | else if(sPotoLen == pInfo->nTCnt)                                      
;----------------------------------------------------------------------
L146:        
        ldiu      *+fp(ir0),ar0
        cmpi3     *ar0,*+fp(ir1)
        bned      L149
	nop
        ldine     275,ir0
        ldine     0,r0
;*      Branch Occurs to L149 
	.line	175
;----------------------------------------------------------------------
; 504 | nBlkSize = (pInfo->nEdPosi - pInfo->nStPosi) % 128; // - ((sPotoLen - 1
;     | ) * 128);                                                              
; 506 | else                                                                   
;----------------------------------------------------------------------
        ldiu      988,ir1
        ldiu      *+fp(ir0),ir0
        ldiu      2,ar0
        ldiu      *+fp(ir1),ar1
        subi3     *+ar1,*+ar0(ir0),r1
        ldiu      r1,r0
        ldiu      275,ir1
        ash       -6,r0
        lsh       @CL72,r0
        addi3     r0,r1,r0
        andn      127,r0
        subri     r1,r0
        sti       r0,*+fp(ir1)
        bu        L150
;*      Branch Occurs to L150 
	.line	179
;----------------------------------------------------------------------
; 508 | nBlkSize = 0;                                                          
;----------------------------------------------------------------------
L149:        
        sti       r0,*+fp(ir0)
L150:        
	.line	182
;----------------------------------------------------------------------
; 511 | if(nBlkSize < 0) nBlkSize = 0;                                         
; 513 | // şí·ĎŔÇ ¸¶Áö¸· Ŕ§Äˇ¸¦ ÁöÁ¤.                                          
;----------------------------------------------------------------------
        ldiu      275,ir0
        ldi       *+fp(ir0),r0
        bge       L152
;*      Branch Occurs to L152 
        ldiu      0,r0
        sti       r0,*+fp(ir0)
L152:        
	.line	185
;----------------------------------------------------------------------
; 514 | nTempBlkEnd = pInfo->nEdPosi;                                          
;----------------------------------------------------------------------
        ldiu      988,ir0
        ldiu      *+fp(ir0),ar0
        ldiu      276,ir0
        ldiu      *+ar0(2),r0
        sti       r0,*+fp(ir0)
L153:        
	.line	188
;----------------------------------------------------------------------
; 517 | sTxDataSize = nBlkSize + 2;                                            
; 519 | // °íŔĺ µĄŔĚĹÍ¸¦ ŔüĽŰÇĎ´Â şÎşĐ.                                        
;----------------------------------------------------------------------
        ldiu      2,r0
        ldiu      275,ir0
        ldiu      277,ir1
        addi3     r0,*+fp(ir0),r0
        sti       r0,*+fp(ir1)
	.line	191
;----------------------------------------------------------------------
; 520 | user_FaultDataTx(btTx2chBuf,sTxDataSize,TRUE,sPotoLen);                
;----------------------------------------------------------------------
        ldiu      269,ir0
        ldiu      1,r2
        ldiu      @CL73,r3

        ldiu      *+fp(ir1),r0
||      ldiu      *+fp(ir0),r1

        push      r1
        push      r2
        push      r0
        push      r3
        call      _user_FaultDataTx
                                        ; Call Occurs
        subi      4,sp
	.line	192
;----------------------------------------------------------------------
; 521 | user_CncsTx(btTx2chBuf,(sTxDataSize*2)+18);                            
; 523 | // ŔüĽŰ ČÄ, şí·Ď Ŕ§Äˇ¸¦ ¸¶Áö¸· Ŕ§Äˇ·Î şążř.                            
;----------------------------------------------------------------------
        ldiu      277,ir0
        ldiu      2,r1
        mpyi3     r1,*+fp(ir0),r1
        addi      18,r1
        push      r1
        ldiu      @CL73,r0
        push      r0
        call      _user_CncsTx
                                        ; Call Occurs
        subi      2,sp
	.line	195
;----------------------------------------------------------------------
; 524 | m_Variable.m_Recving_Posi = nTempBlkEnd;                               
; 526 | else                                                                   
; 527 | //ąŮ·Î Áľ·á ÄÚµĺ°ˇ Ľö˝Ĺ µÉĽö ŔÖ´Ů.                                     
;----------------------------------------------------------------------
        ldiu      276,ir0
        ldiu      *+fp(ir0),r0
        sti       r0,@_m_Variable+335
        bu        L172
;*      Branch Occurs to L172 
L154:        
	.line	200
;----------------------------------------------------------------------
; 529 | user_FtpEnd_CarNumFun();                                               
; 533 | else // µĄŔĚĹ¸ ŔüĽŰ                                                    
;----------------------------------------------------------------------
        call      _user_FtpEnd_CarNumFun
                                        ; Call Occurs
        bu        L172
;*      Branch Occurs to L172 
L155:        
	.line	206
;----------------------------------------------------------------------
; 535 | if(m_Variable.m_nTxDbg1msTimer > 150) //150ms ¸¶´Ů ÇŃąřľż ˝ÇÇŕ ÇŃ´Ů.   
; 537 |         //°íŔĺ Á¤ş¸ ŔüĽŰ.                                              
;----------------------------------------------------------------------
        ldiu      @_m_Variable+351,r0
        cmpi      150,r0
        bls       L172
;*      Branch Occurs to L172 
	.line	209
;----------------------------------------------------------------------
; 538 | if(m_Variable.m_LIC_CNCS_Tx_Flag)                                      
;----------------------------------------------------------------------
        ldi       @_m_Variable+331,r0
        beq       L168
;*      Branch Occurs to L168 
	.line	211
;----------------------------------------------------------------------
; 540 | m_Variable.m_nTxDbg1msTimer = 0;                                       
;----------------------------------------------------------------------
        ldiu      0,r0
        sti       r0,@_m_Variable+351
	.line	213
;----------------------------------------------------------------------
; 542 | m_Variable.m_LIC_CNCS_TX_DelyTime++;                                   
; 544 | // 150*50  = 7500  = 7.5ĂĘ µżľČ °íŔĺ şí·° »çŔĚ°ˇ ŔŔ´äŔĚ ľřŔ¸¸é, Áľ·á ÇŃ
;     | ´Ů.                                                                    
;----------------------------------------------------------------------
        ldiu      1,r0
        addi      @_m_Variable+332,r0
        sti       r0,@_m_Variable+332
	.line	216
;----------------------------------------------------------------------
; 545 | if(m_Variable.m_LIC_CNCS_TX_DelyTime > 50){m_Variable.m_bLnWkFtpEndFlag
;     |  = TRUE;}                                                              
;----------------------------------------------------------------------
        cmpi      50,r0
        ble       L159
;*      Branch Occurs to L159 
        ldiu      1,r0
        sti       r0,@_m_Variable+349
L159:        
	.line	218
;----------------------------------------------------------------------
; 547 | if((m_Variable.m_nNvsramPos !=  (m_Variable.m_Recving_Posi)) && (m_Vari
;     | able.m_nNvsramPos >= (m_Variable.m_Recving_Posi+128)))                 
;----------------------------------------------------------------------
        ldiu      @_m_Variable+348,r0
        cmpi      @_m_Variable+335,r0
        beqd      L164
	nop
        ldine     128,r0
        ldine     @_m_Variable+348,r1
;*      Branch Occurs to L164 
        addi      @_m_Variable+335,r0   ; Unsigned
        cmpi3     r0,r1
        blo       L164
;*      Branch Occurs to L164 
	.line	220
;----------------------------------------------------------------------
; 549 | m_Variable.m_nFaultCnt++;                                              
;----------------------------------------------------------------------
        ldiu      1,r0
        addi      @_m_Variable+334,r0
        sti       r0,@_m_Variable+334
	.line	221
;----------------------------------------------------------------------
; 550 | if(m_Variable.m_nFaultCnt == 1)                                        
;----------------------------------------------------------------------
        cmpi      1,r0
        bne       L163
;*      Branch Occurs to L163 
	.line	222
;----------------------------------------------------------------------
; 551 | SetFltBlkStPos(m_Variable.m_chCarKind, m_Variable.m_Recving_Posi);
;     |                                                                  // Ăąą
;     | řÂ° şí·ĎŔĎ °ćżě, °íŔĺ Á¤ş¸ŔÇ ˝ĂŔŰ Ŕ§Äˇ¸¦ ±â·Ď.                         
;----------------------------------------------------------------------
        ldiu      @_m_Variable+335,r0
        push      r0
        ldiu      @_m_Variable+342,r0
        push      r0
        call      _SetFltBlkStPos
                                        ; Call Occurs
        subi      2,sp
L163:        
	.line	224
;----------------------------------------------------------------------
; 553 | sTxDataSize = 128 + 2;                                                 
;----------------------------------------------------------------------
        ldiu      277,ir0
        ldiu      130,r0
        sti       r0,*+fp(ir0)
	.line	226
;----------------------------------------------------------------------
; 555 | user_FaultDataTx(btTx2chBuf,sTxDataSize,FALSE,0);                      
;----------------------------------------------------------------------
        ldiu      0,r1
        ldiu      @CL73,r2
        ldiu      *+fp(ir0),r3
        ldiu      0,r0
        push      r1
        push      r0
        push      r3
        push      r2
        call      _user_FaultDataTx
                                        ; Call Occurs
        subi      4,sp
	.line	228
;----------------------------------------------------------------------
; 557 | m_Variable.m_Recving_Posi += 128;                                      
;----------------------------------------------------------------------
        ldiu      128,r0
        addi      @_m_Variable+335,r0
        sti       r0,@_m_Variable+335
	.line	230
;----------------------------------------------------------------------
; 559 | user_CncsTx(btTx2chBuf,(sTxDataSize*2)+18);                            
; 561 | else                                                                   
; 562 | //ąŮ·Î Áľ·á ÄÚµĺ°ˇ Ľö˝Ĺ µÉĽö ŔÖ´Ů.                                     
;----------------------------------------------------------------------
        ldiu      277,ir0
        ldiu      2,r1
        mpyi3     r1,*+fp(ir0),r1
        addi      18,r1
        ldiu      @CL73,r0
        push      r1
        push      r0
        call      _user_CncsTx
                                        ; Call Occurs
        subi      2,sp
        bu        L172
;*      Branch Occurs to L172 
L164:        
	.line	234
;----------------------------------------------------------------------
; 563 | if(m_Variable.m_bLnWkFtpEndFlag)                                       
;----------------------------------------------------------------------
        ldi       @_m_Variable+349,r0
        beq       L172
;*      Branch Occurs to L172 
	.line	236
;----------------------------------------------------------------------
; 565 | m_Variable.m_nFaultCnt++;                                              
; 566 | //aaa_CarAFautlCnt = m_nFaultCnt;                                      
;----------------------------------------------------------------------
        ldiu      1,r0
        addi      @_m_Variable+334,r0
        sti       r0,@_m_Variable+334
	.line	239
;----------------------------------------------------------------------
; 568 | if(m_Variable.m_nFaultCnt == 1)                                        
;----------------------------------------------------------------------
        cmpi      1,r0
        bne       L167
;*      Branch Occurs to L167 
	.line	240
;----------------------------------------------------------------------
; 569 | SetFltBlkStPos(m_Variable.m_chCarKind, m_Variable.m_Recving_Posi);
;     |                                                                  // Ăąą
;     | řÂ° şí·ĎŔĎ °ćżě, °íŔĺ Á¤ş¸ŔÇ ˝ĂŔŰ Ŕ§Äˇ¸¦ ±â·Ď.                         
; 571 | // °íŔĺ Á¤ş¸¸¦ ŔúŔĺÇĎ´Â şÎşĐ.                                          
;----------------------------------------------------------------------
        ldiu      @_m_Variable+335,r0
        push      r0
        ldiu      @_m_Variable+342,r0
        push      r0
        call      _SetFltBlkStPos
                                        ; Call Occurs
        subi      2,sp
L167:        
	.line	243
;----------------------------------------------------------------------
; 572 | SetFltBlkEdInfo(m_Variable.m_chCarKind, m_Variable.m_nNvsramPos, m_Vari
;     | able.m_nFaultCnt);                                                     
;----------------------------------------------------------------------
        ldiu      @_m_Variable+334,r1
        ldiu      @_m_Variable+348,r0
        push      r1
        push      r0
        ldiu      @_m_Variable+342,r0
        push      r0
        call      _SetFltBlkEdInfo
                                        ; Call Occurs
        subi      3,sp
	.line	245
;----------------------------------------------------------------------
; 574 | sTxDataSize = (m_Variable.m_nNvsramPos - m_Variable.m_Recving_Posi) + 2
;     | ;                                                                      
;----------------------------------------------------------------------
        ldiu      277,ir0
        ldiu      @_m_Variable+335,r0
        subri     @_m_Variable+348,r0   ; Unsigned
        addi      2,r0                  ; Unsigned
        sti       r0,*+fp(ir0)
	.line	246
;----------------------------------------------------------------------
; 575 | user_FaultDataTx(btTx2chBuf,sTxDataSize,TRUE,0);                       
;----------------------------------------------------------------------
        ldiu      1,r0
        ldiu      0,r1
        ldiu      *+fp(ir0),r3
        ldiu      @CL73,r2
        push      r1
        push      r0
        push      r3
        push      r2
        call      _user_FaultDataTx
                                        ; Call Occurs
        subi      4,sp
	.line	247
;----------------------------------------------------------------------
; 576 | m_Variable.m_Recving_Posi += (sTxDataSize-2);                          
; 578 | // user_FtpEnd_CarNumFun();                                            
;----------------------------------------------------------------------
        ldiu      277,ir0
        ldiu      *+fp(ir0),r0
        addi      @_m_Variable+335,r0
        subi      2,r0
        sti       r0,@_m_Variable+335
	.line	251
;----------------------------------------------------------------------
; 580 | user_CncsTx(btTx2chBuf,(sTxDataSize*2)+18);                            
;----------------------------------------------------------------------
        ldiu      2,r1
        mpyi3     r1,*+fp(ir0),r1
        ldiu      @CL73,r0
        addi      18,r1
        push      r1
        push      r0
        call      _user_CncsTx
                                        ; Call Occurs
        subi      2,sp
	.line	253
;----------------------------------------------------------------------
; 582 | m_Variable.m_LIC_CNCS_Tx_Flag = FALSE;                                 
; 585 | else                                                                   
; 586 | //˝Ă°Ł Á¤ş¸ żäĂ». LIC -> CNCS ·Î ˝Ă°Ł Á¤ş¸¸¦ żäĂ» ÇŃ´Ů.(LIC´Â ż­Â÷ ąřČŁ
;     | ¸¦ Ć÷ÇÔÇĎż© ŔüĽŰ ÇŃ´Ů.)                                                
;----------------------------------------------------------------------
        ldiu      0,r0
        sti       r0,@_m_Variable+331
        bu        L172
;*      Branch Occurs to L172 
L168:        
	.line	258
;----------------------------------------------------------------------
; 587 | if(m_Variable.m_nTxDbg1msTimer > 1000)                                 
;----------------------------------------------------------------------
        ldiu      @_m_Variable+351,r0
        cmpi      1000,r0
        bls       L172
;*      Branch Occurs to L172 
	.line	260
;----------------------------------------------------------------------
; 589 | m_Variable.m_nTxDbg1msTimer = 0;                                       
;----------------------------------------------------------------------
        ldiu      0,r0
        sti       r0,@_m_Variable+351
	.line	262
;----------------------------------------------------------------------
; 591 | nTimeSendCnt++;                                                        
;----------------------------------------------------------------------
        ldiu      1,r0
        addi      @_nTimeSendCnt$8+0,r0
        sti       r0,@_nTimeSendCnt$8+0
	.line	263
;----------------------------------------------------------------------
; 592 | nTimeSendCnt = nTimeSendCnt%255;                                       
;----------------------------------------------------------------------
        ldiu      255,r1
        call      MOD_I30
                                        ; Call Occurs
        sti       r0,@_nTimeSendCnt$8+0
	.line	265
;----------------------------------------------------------------------
; 594 | pCnsc_Lic_T_F = (CNCS_LIC_T_F *) btTx2chBuf;                           
;----------------------------------------------------------------------
        ldiu      986,ir0
        ldiu      @CL73,r0
        sti       r0,*+fp(ir0)
	.line	267
;----------------------------------------------------------------------
; 596 | sTxDataSize = 4;                                                       
;----------------------------------------------------------------------
        ldiu      277,ir0
        ldiu      4,r0
        sti       r0,*+fp(ir0)
	.line	269
;----------------------------------------------------------------------
; 598 | pCnsc_Lic_T_F->phHdBuf.btSoh =  0x01;                                  
;----------------------------------------------------------------------
        ldiu      986,ir0
        ldiu      *+fp(ir0),ar0
        ldiu      1,r0
        sti       r0,*ar0
	.line	270
;----------------------------------------------------------------------
; 599 | pCnsc_Lic_T_F->phHdBuf.chSrcDev[0] =  ConvHex2Asc(BYTE_H(0x11));       
;----------------------------------------------------------------------
        push      r0
        call      _ConvHex2Asc
                                        ; Call Occurs
        ldiu      986,ir0
        subi      1,sp
        ldiu      *+fp(ir0),ar0
        sti       r0,*+ar0(1)
	.line	271
;----------------------------------------------------------------------
; 600 | pCnsc_Lic_T_F->phHdBuf.chSrcDev[1] =  ConvHex2Asc(BYTE_L(0x11));       
;----------------------------------------------------------------------
        ldiu      1,r0
        push      r0
        call      _ConvHex2Asc
                                        ; Call Occurs
        ldiu      986,ir0
        subi      1,sp
        ldiu      *+fp(ir0),ar0
        sti       r0,*+ar0(2)
	.line	272
;----------------------------------------------------------------------
; 601 | pCnsc_Lic_T_F->phHdBuf.chDestDev[0] =  ConvHex2Asc(BYTE_H(0x15));      
;----------------------------------------------------------------------
        ldiu      1,r0
        push      r0
        call      _ConvHex2Asc
                                        ; Call Occurs
        subi      1,sp
        ldiu      986,ir0
        ldiu      *+fp(ir0),ar0
        sti       r0,*+ar0(3)
	.line	273
;----------------------------------------------------------------------
; 602 | pCnsc_Lic_T_F->phHdBuf.chDestDev[1] =  ConvHex2Asc(BYTE_L(0x15));      
;----------------------------------------------------------------------
        ldiu      5,r0
        push      r0
        call      _ConvHex2Asc
                                        ; Call Occurs
        ldiu      986,ir0
        subi      1,sp
        ldiu      *+fp(ir0),ar0
        sti       r0,*+ar0(4)
	.line	275
;----------------------------------------------------------------------
; 604 | pCnsc_Lic_T_F->phHdBuf.chMsgCnt[0] = ConvHex2Asc(BYTE_H(WORD_H(nTimeSen
;     | dCnt)));                                                               
;----------------------------------------------------------------------
        ldiu      @_nTimeSendCnt$8+0,r0
        ash       -8,r0
        and       255,r0
        ash       -4,r0
        and       15,r0
        push      r0
        call      _ConvHex2Asc
                                        ; Call Occurs
        subi      1,sp
        ldiu      986,ir0
        ldiu      *+fp(ir0),ar0
        sti       r0,*+ar0(5)
	.line	276
;----------------------------------------------------------------------
; 605 | pCnsc_Lic_T_F->phHdBuf.chMsgCnt[1] = ConvHex2Asc(BYTE_L(WORD_H(nTimeSen
;     | dCnt)));                                                               
;----------------------------------------------------------------------
        ldiu      @_nTimeSendCnt$8+0,r0
        ash       -8,r0
        and       15,r0
        push      r0
        call      _ConvHex2Asc
                                        ; Call Occurs
        subi      1,sp
        ldiu      986,ir0
        ldiu      *+fp(ir0),ar0
        sti       r0,*+ar0(6)
	.line	277
;----------------------------------------------------------------------
; 606 | pCnsc_Lic_T_F->phHdBuf.chMsgCnt[2] = ConvHex2Asc(BYTE_H(WORD_L(nTimeSen
;     | dCnt)));                                                               
;----------------------------------------------------------------------
        ldiu      255,r0
        and       @_nTimeSendCnt$8+0,r0
        ash       -4,r0
        and       15,r0
        push      r0
        call      _ConvHex2Asc
                                        ; Call Occurs
        ldiu      986,ir0
        subi      1,sp
        ldiu      *+fp(ir0),ar0
        sti       r0,*+ar0(7)
	.line	278
;----------------------------------------------------------------------
; 607 | pCnsc_Lic_T_F->phHdBuf.chMsgCnt[3] = ConvHex2Asc(BYTE_L(WORD_L(nTimeSen
;     | dCnt)));                                                               
;----------------------------------------------------------------------
        ldiu      15,r0
        and       @_nTimeSendCnt$8+0,r0
        push      r0
        call      _ConvHex2Asc
                                        ; Call Occurs
        subi      1,sp
        ldiu      986,ir0
        ldiu      *+fp(ir0),ar0
        sti       r0,*+ar0(8)
	.line	280
;----------------------------------------------------------------------
; 609 | pCnsc_Lic_T_F->phHdBuf.chCmdCode[0] = ConvHex2Asc(BYTE_H(0x10));       
;----------------------------------------------------------------------
        ldiu      1,r0
        push      r0
        call      _ConvHex2Asc
                                        ; Call Occurs
        subi      1,sp
        ldiu      986,ir0
        ldiu      *+fp(ir0),ar0
        sti       r0,*+ar0(9)
	.line	281
;----------------------------------------------------------------------
; 610 | pCnsc_Lic_T_F->phHdBuf.chCmdCode[1] = ConvHex2Asc(BYTE_L(0x10));       
;----------------------------------------------------------------------
        ldiu      0,r0
        push      r0
        call      _ConvHex2Asc
                                        ; Call Occurs
        ldiu      986,ir0
        subi      1,sp
        ldiu      *+fp(ir0),ar0
        sti       r0,*+ar0(10)
	.line	283
;----------------------------------------------------------------------
; 612 | pCnsc_Lic_T_F->phHdBuf.chDataLen[0] = ConvHex2Asc(BYTE_H(WORD_H(sTxData
;     | Size))); // ±ćŔĚ                                                       
;----------------------------------------------------------------------
        ldiu      277,ir0
        ldiu      -8,r0
        ash3      r0,*+fp(ir0),r0
        and       255,r0
        ash       -4,r0
        and       15,r0
        push      r0
        call      _ConvHex2Asc
                                        ; Call Occurs
        ldiu      986,ir0
        subi      1,sp
        ldiu      *+fp(ir0),ar0
        sti       r0,*+ar0(11)
	.line	284
;----------------------------------------------------------------------
; 613 | pCnsc_Lic_T_F->phHdBuf.chDataLen[1] = ConvHex2Asc(BYTE_L(WORD_H(sTxData
;     | Size))); // ±ćŔĚ                                                       
;----------------------------------------------------------------------
        ldiu      277,ir0
        ldiu      -8,r0
        ash3      r0,*+fp(ir0),r0
        and       15,r0
        push      r0
        call      _ConvHex2Asc
                                        ; Call Occurs
        subi      1,sp
        ldiu      986,ir0
        ldiu      *+fp(ir0),ar0
        sti       r0,*+ar0(12)
	.line	285
;----------------------------------------------------------------------
; 614 | pCnsc_Lic_T_F->phHdBuf.chDataLen[2] = ConvHex2Asc(BYTE_H(WORD_L(sTxData
;     | Size))); // ±ćŔĚ                                                       
;----------------------------------------------------------------------
        ldiu      277,ir0
        ldiu      255,r0
        and3      r0,*+fp(ir0),r0
        ash       -4,r0
        and       15,r0
        push      r0
        call      _ConvHex2Asc
                                        ; Call Occurs
        subi      1,sp
        ldiu      986,ir0
        ldiu      *+fp(ir0),ar0
        sti       r0,*+ar0(13)
	.line	286
;----------------------------------------------------------------------
; 615 | pCnsc_Lic_T_F->phHdBuf.chDataLen[3] = ConvHex2Asc(BYTE_L(WORD_L(sTxData
;     | Size))); // ±ćŔĚ                                                       
;----------------------------------------------------------------------
        ldiu      277,ir0
        ldiu      15,r0
        and3      r0,*+fp(ir0),r0
        push      r0
        call      _ConvHex2Asc
                                        ; Call Occurs
        ldiu      986,ir0
        subi      1,sp
        ldiu      *+fp(ir0),ar0
        sti       r0,*+ar0(14)
	.line	288
;----------------------------------------------------------------------
; 617 | pCnsc_Lic_T_F->sCommand[0] = ConvHex2Asc(BYTE_H(0x08));                
;----------------------------------------------------------------------
        ldiu      0,r0
        push      r0
        call      _ConvHex2Asc
                                        ; Call Occurs
        subi      1,sp
        ldiu      986,ir0
        ldiu      *+fp(ir0),ar0
        sti       r0,*+ar0(15)
	.line	289
;----------------------------------------------------------------------
; 618 | pCnsc_Lic_T_F->sCommand[1] = ConvHex2Asc(BYTE_L(0x08));                
;----------------------------------------------------------------------
        ldiu      8,r0
        push      r0
        call      _ConvHex2Asc
                                        ; Call Occurs
        ldiu      986,ir0
        subi      1,sp
        ldiu      *+fp(ir0),ar0
        sti       r0,*+ar0(16)
	.line	291
;----------------------------------------------------------------------
; 620 | pCnsc_Lic_T_F->sTEXT[0] = ConvHex2Asc(BYTE_H(WORD_H(m_Variable.m_nCarNo
;     | )));  //ż­Â÷ ąřČŁ ŔüĽŰ                                                 
;----------------------------------------------------------------------
        ldiu      @_m_Variable+341,r0
        lsh       -8,r0
        and       255,r0
        lsh       -4,r0
        and       15,r0
        push      r0
        call      _ConvHex2Asc
                                        ; Call Occurs
        subi      1,sp
        ldiu      986,ir0
        ldiu      *+fp(ir0),ar0
        sti       r0,*+ar0(17)
	.line	292
;----------------------------------------------------------------------
; 621 | pCnsc_Lic_T_F->sTEXT[1] = ConvHex2Asc(BYTE_L(WORD_H(m_Variable.m_nCarNo
;     | )));  //ż­Â÷ ąřČŁ ŔüĽŰ                                                 
;----------------------------------------------------------------------
        ldiu      @_m_Variable+341,r0
        lsh       -8,r0
        and       15,r0
        push      r0
        call      _ConvHex2Asc
                                        ; Call Occurs
        ldiu      986,ir0
        subi      1,sp
        ldiu      *+fp(ir0),ar0
        sti       r0,*+ar0(18)
	.line	293
;----------------------------------------------------------------------
; 622 | pCnsc_Lic_T_F->sTEXT[2] = ConvHex2Asc(BYTE_H(WORD_L(m_Variable.m_nCarNo
;     | )));  //ż­Â÷ ąřČŁ ŔüĽŰ                                                 
;----------------------------------------------------------------------
        ldiu      255,r0
        and       @_m_Variable+341,r0
        lsh       -4,r0
        and       15,r0
        push      r0
        call      _ConvHex2Asc
                                        ; Call Occurs
        subi      1,sp
        ldiu      986,ir0
        ldiu      *+fp(ir0),ar0
        sti       r0,*+ar0(19)
	.line	294
;----------------------------------------------------------------------
; 623 | pCnsc_Lic_T_F->sTEXT[3] = ConvHex2Asc(BYTE_L(WORD_L(m_Variable.m_nCarNo
;     | )));  //ż­Â÷ ąřČŁ ŔüĽŰ                                                 
;----------------------------------------------------------------------
        ldiu      15,r0
        and       @_m_Variable+341,r0
        push      r0
        call      _ConvHex2Asc
                                        ; Call Occurs
        subi      1,sp
        ldiu      986,ir0
        ldiu      *+fp(ir0),ar0
        sti       r0,*+ar0(20)
	.line	296
;----------------------------------------------------------------------
; 625 | pCnsc_Lic_T_F->chContactSignalBuf[0] = ConvHex2Asc(BYTE_H(m_Variable.m_
;     | btCttSignalA.BYTE));                                                   
;----------------------------------------------------------------------
        ldiu      @_m_Variable+425,r0
        lsh       -4,r0
        and       15,r0
        push      r0
        call      _ConvHex2Asc
                                        ; Call Occurs
        ldiu      986,ir0
        subi      1,sp
        ldiu      *+fp(ir0),ar0
        sti       r0,*+ar0(21)
	.line	297
;----------------------------------------------------------------------
; 626 | pCnsc_Lic_T_F->chContactSignalBuf[1] = ConvHex2Asc(BYTE_L(m_Variable.m_
;     | btCttSignalA.BYTE));                                                   
;----------------------------------------------------------------------
        ldiu      15,r0
        and       @_m_Variable+425,r0
        push      r0
        call      _ConvHex2Asc
                                        ; Call Occurs
        ldiu      986,ir0
        subi      1,sp
        ldiu      *+fp(ir0),ar0
        sti       r0,*+ar0(22)
	.line	299
;----------------------------------------------------------------------
; 628 | sBcc = Make1ByteBcc(&pCnsc_Lic_T_F->phHdBuf.chSrcDev[0],(sTxDataSize*2)
;     | +14);                                                                  
;----------------------------------------------------------------------
        ldiu      986,ir1
        ldiu      1,r1
        ldiu      277,ir0
        ldiu      2,r0
        mpyi3     r0,*+fp(ir0),r0
        addi3     r1,*+fp(ir1),r1       ; Unsigned
        addi      14,r0
        push      r0
        push      r1
        call      _Make1ByteBcc
                                        ; Call Occurs
        ldiu      270,ir0
        subi      2,sp
        sti       r0,*+fp(ir0)
	.line	301
;----------------------------------------------------------------------
; 630 | pCnsc_Lic_T_F->chChkSum[0] = ConvHex2Asc(BYTE_H(sBcc));                
;----------------------------------------------------------------------
        ldiu      -4,r0
        lsh3      r0,*+fp(ir0),r0
        and       15,r0
        push      r0
        call      _ConvHex2Asc
                                        ; Call Occurs
        subi      1,sp
        ldiu      986,ir0
        ldiu      *+fp(ir0),ar0
        sti       r0,*+ar0(23)
	.line	302
;----------------------------------------------------------------------
; 631 | pCnsc_Lic_T_F->chChkSum[1] = ConvHex2Asc(BYTE_L(sBcc));                
;----------------------------------------------------------------------
        ldiu      270,ir0
        ldiu      15,r0
        and3      r0,*+fp(ir0),r0
        push      r0
        call      _ConvHex2Asc
                                        ; Call Occurs
        ldiu      986,ir0
        subi      1,sp
        ldiu      *+fp(ir0),ar0
        sti       r0,*+ar0(24)
	.line	304
;----------------------------------------------------------------------
; 633 | pCnsc_Lic_T_F->btEot = 0x04;                                           
;----------------------------------------------------------------------
        ldiu      *+fp(ir0),ar0
        ldiu      4,r0
        sti       r0,*+ar0(25)
	.line	306
;----------------------------------------------------------------------
; 635 | user_CncsTx(&pCnsc_Lic_T_F->phHdBuf.btSoh,(sTxDataSize*2)+18);         
;----------------------------------------------------------------------
        ldiu      277,ir0
        ldiu      2,r0
        mpyi3     r0,*+fp(ir0),r0
        addi      18,r0
        ldiu      986,ir1
        push      r0
        ldiu      *+fp(ir1),r0
        push      r0
        call      _user_CncsTx
                                        ; Call Occurs
        subi      2,sp
L172:        
	.line	311
;----------------------------------------------------------------------
; 640 | nOldUart2RxOneByteGapDelayTime = m_Variable.m_nUart2RxOneByteGapDelayTi
;     | me;                                                                    
;----------------------------------------------------------------------
        ldiu      @_m_Variable+289,r0
        sti       r0,@_nOldUart2RxOneByteGapDelayTime$5+0
	.line	312
        pop       r5
        ldiu      *-fp(1),bk
        pop       r4
        ldiu      *fp,fp
        subi      990,sp
        bu        bk
;*      Branch Occurs to bk 
	.endfunc	641,000000030h,988


	.sect	 ".text"

	.global	_ClearFltBlkInfo
	.sym	_ClearFltBlkInfo,_ClearFltBlkInfo,32,2,0
	.func	644
;******************************************************************************
;* FUNCTION NAME: _ClearFltBlkInfo                                            *
;*                                                                            *
;*   Architecture       : TMS320C30                                           *
;*   Calling Convention : Stack Parameter Convention                          *
;*   Function Uses Regs : r0,r1,r2,fp,sp                                      *
;*   Regs Saved         :                                                     *
;*   Stack Frame        : Full (w/ debug)                                     *
;*   Total Frame Size   : 2 Call + 0 Parm + 0 Auto + 0 SOE = 2 words          *
;******************************************************************************
_ClearFltBlkInfo:
	.line	1
;----------------------------------------------------------------------
; 644 | void ClearFltBlkInfo()                                                 
;----------------------------------------------------------------------
        push      fp
        ldiu      sp,fp
	.line	3
;----------------------------------------------------------------------
; 646 | memset(&m_Variable.m_tFaultInfo, 0x00, sizeof(m_Variable.m_tFaultInfo))
;     | ;                        // °íŔĺ Á¤ş¸ »čÁ¦.                            
;----------------------------------------------------------------------
        ldiu      6,r2
        ldiu      0,r0
        ldiu      @CL74,r1
        push      r2
        push      r0
        push      r1
        call      _memset
                                        ; Call Occurs
        subi      3,sp
	.line	4
        ldiu      *-fp(1),bk
        ldiu      *fp,fp
        subi      2,sp
        bu        bk
;*      Branch Occurs to bk 
	.endfunc	647,000000000h,0


	.sect	 ".text"

	.global	_SetFltBlkStPos
	.sym	_SetFltBlkStPos,_SetFltBlkStPos,32,2,0
	.func	650
;******************************************************************************
;* FUNCTION NAME: _SetFltBlkStPos                                             *
;*                                                                            *
;*   Architecture       : TMS320C30                                           *
;*   Calling Convention : Stack Parameter Convention                          *
;*   Function Uses Regs : r0,ar0,fp,sp,st                                     *
;*   Regs Saved         :                                                     *
;*   Stack Frame        : Full (w/ debug)                                     *
;*   Total Frame Size   : 2 Call + 2 Parm + 1 Auto + 0 SOE = 5 words          *
;******************************************************************************
_SetFltBlkStPos:
	.sym	_chCarKind,-2,2,9,32
	.sym	_nStPosi,-3,4,9,32
	.sym	_pInfo,1,24,1,32,.fake68
	.line	1
;----------------------------------------------------------------------
; 650 | void SetFltBlkStPos(char chCarKind, int nStPosi)                       
;----------------------------------------------------------------------
        push      fp
        ldiu      sp,fp
        addi      1,sp
	.line	2
	.line	3
;----------------------------------------------------------------------
; 652 | PFAULT_INFO pInfo = GetFltBlkInfo(chCarKind);                          
;----------------------------------------------------------------------
        ldiu      *-fp(2),r0
        push      r0
        call      _GetFltBlkInfo
                                        ; Call Occurs
        subi      1,sp
        sti       r0,*+fp(1)
	.line	5
;----------------------------------------------------------------------
; 654 | if(pInfo != NULL)                                                      
;----------------------------------------------------------------------
        cmpi      0,r0
        beq       L180
;*      Branch Occurs to L180 
	.line	6
;----------------------------------------------------------------------
; 655 | pInfo->nStPosi = nStPosi;
;     |                  // °íŔĺ ˝ĂŔŰ Ŕ§Äˇ¸¦ ŔúŔĺ.                             
;----------------------------------------------------------------------
        ldiu      r0,ar0
        ldiu      *-fp(3),r0
        sti       r0,*+ar0(1)
L180:        
	.line	7
        ldiu      *-fp(1),bk
        ldiu      *fp,fp
        subi      3,sp
        bu        bk
;*      Branch Occurs to bk 
	.endfunc	656,000000000h,1


	.sect	 ".text"

	.global	_SetFltBlkEdInfo
	.sym	_SetFltBlkEdInfo,_SetFltBlkEdInfo,32,2,0
	.func	659
;******************************************************************************
;* FUNCTION NAME: _SetFltBlkEdInfo                                            *
;*                                                                            *
;*   Architecture       : TMS320C30                                           *
;*   Calling Convention : Stack Parameter Convention                          *
;*   Function Uses Regs : r0,ar0,fp,sp,st                                     *
;*   Regs Saved         :                                                     *
;*   Stack Frame        : Full (w/ debug)                                     *
;*   Total Frame Size   : 2 Call + 3 Parm + 1 Auto + 0 SOE = 6 words          *
;******************************************************************************
_SetFltBlkEdInfo:
	.sym	_chCarKind,-2,2,9,32
	.sym	_nEndPosi,-3,4,9,32
	.sym	_nFltTCnt,-4,4,9,32
	.sym	_pInfo,1,24,1,32,.fake68
	.line	1
;----------------------------------------------------------------------
; 659 | void SetFltBlkEdInfo(char chCarKind, int nEndPosi, int nFltTCnt)       
;----------------------------------------------------------------------
        push      fp
        ldiu      sp,fp
        addi      1,sp
	.line	2
	.line	3
;----------------------------------------------------------------------
; 661 | PFAULT_INFO pInfo = GetFltBlkInfo(chCarKind);                          
;----------------------------------------------------------------------
        ldiu      *-fp(2),r0
        push      r0
        call      _GetFltBlkInfo
                                        ; Call Occurs
        subi      1,sp
        sti       r0,*+fp(1)
	.line	5
;----------------------------------------------------------------------
; 663 | if(pInfo != NULL)                                                      
;----------------------------------------------------------------------
        cmpi      0,r0
        beq       L184
;*      Branch Occurs to L184 
	.line	7
;----------------------------------------------------------------------
; 665 | pInfo->nTCnt = nFltTCnt;
;     |                          // °íŔĺ ŔüĂĽ °ąĽö¸¦ ±â·Ď.                     
;----------------------------------------------------------------------
        ldiu      r0,ar0
        ldiu      *-fp(4),r0
        sti       r0,*ar0
	.line	8
;----------------------------------------------------------------------
; 666 | pInfo->nEdPosi = nEndPosi;
;     |                          // °íŔĺ ¸¶Áö¸· Ŕ§Äˇ¸¦ ŔúŔĺ.                   
;----------------------------------------------------------------------
        ldiu      *+fp(1),ar0
        ldiu      *-fp(3),r0
        sti       r0,*+ar0(2)
L184:        
	.line	10
        ldiu      *-fp(1),bk
        ldiu      *fp,fp
        subi      3,sp
        bu        bk
;*      Branch Occurs to bk 
	.endfunc	668,000000000h,1


	.sect	 ".text"

	.global	_GetFltBlkInfo
	.sym	_GetFltBlkInfo,_GetFltBlkInfo,104,2,0,.fake68
	.func	671
;******************************************************************************
;* FUNCTION NAME: _GetFltBlkInfo                                              *
;*                                                                            *
;*   Architecture       : TMS320C30                                           *
;*   Calling Convention : Stack Parameter Convention                          *
;*   Function Uses Regs : r0,st                                               *
;*   Regs Saved         :                                                     *
;*   Stack Frame        : Full (w/ debug)                                     *
;*   Total Frame Size   : 2 Call + 1 Parm + 1 Auto + 0 SOE = 4 words          *
;******************************************************************************
_GetFltBlkInfo:
	.sym	_chCarKind,-2,2,9,32
	.sym	_nIdx,1,4,1,32
	.line	1
;----------------------------------------------------------------------
; 671 | PFAULT_INFO GetFltBlkInfo(char chCarKind)                              
;----------------------------------------------------------------------
        push      fp
        ldiu      sp,fp
        addi      1,sp
	.line	2
	.line	3
;----------------------------------------------------------------------
; 673 | int nIdx = chCarKind - 'A';                                            
;----------------------------------------------------------------------
        ldiu      65,r0
        subri     *-fp(2),r0
        sti       r0,*+fp(1)
	.line	5
;----------------------------------------------------------------------
; 675 | if(nIdx < eCDT_MAXIMUM)                                                
;----------------------------------------------------------------------
        cmpi      2,r0
        bge       L188
;*      Branch Occurs to L188 
	.line	6
;----------------------------------------------------------------------
; 676 | return &m_Variable.m_tFaultInfo[nIdx];                                 
;----------------------------------------------------------------------
        bud       L189
	nop
        mpyi      3,r0
        addi      @CL74,r0              ; Unsigned
;*      Branch Occurs to L189 
L188:        
	.line	8
;----------------------------------------------------------------------
; 678 | return NULL;                                                           
;----------------------------------------------------------------------
        ldiu      0,r0
L189:        
	.line	9
        ldiu      *-fp(1),r1
        ldiu      *fp,fp
        subi      3,sp
        bu        r1
;*      Branch Occurs to r1 
	.endfunc	679,000000000h,1


	.sect	 ".text"

	.global	_GetFltBlkStPos
	.sym	_GetFltBlkStPos,_GetFltBlkStPos,36,2,0
	.func	682
;******************************************************************************
;* FUNCTION NAME: _GetFltBlkStPos                                             *
;*                                                                            *
;*   Architecture       : TMS320C30                                           *
;*   Calling Convention : Stack Parameter Convention                          *
;*   Function Uses Regs : r0,ar0,fp,sp,st                                     *
;*   Regs Saved         :                                                     *
;*   Stack Frame        : Full (w/ debug)                                     *
;*   Total Frame Size   : 2 Call + 1 Parm + 2 Auto + 0 SOE = 5 words          *
;******************************************************************************
_GetFltBlkStPos:
	.sym	_chCarKind,-2,2,9,32
	.sym	_nStPos,1,4,1,32
	.sym	_pInfo,2,24,1,32,.fake68
	.line	1
;----------------------------------------------------------------------
; 682 | int GetFltBlkStPos(char chCarKind)                                     
;----------------------------------------------------------------------
        push      fp
        ldiu      sp,fp
        addi      2,sp
	.line	2
	.line	3
;----------------------------------------------------------------------
; 684 | int nStPos = -1;                                                       
;----------------------------------------------------------------------
        ldiu      -1,r0
        sti       r0,*+fp(1)
	.line	4
;----------------------------------------------------------------------
; 685 | PFAULT_INFO pInfo = GetFltBlkInfo(chCarKind);                          
;----------------------------------------------------------------------
        ldiu      *-fp(2),r0
        push      r0
        call      _GetFltBlkInfo
                                        ; Call Occurs
        subi      1,sp
        sti       r0,*+fp(2)
	.line	6
;----------------------------------------------------------------------
; 687 | if(pInfo != NULL)                                                      
;----------------------------------------------------------------------
        cmpi      0,r0
        beq       L193
;*      Branch Occurs to L193 
	.line	7
;----------------------------------------------------------------------
; 688 | nStPos = pInfo->nStPosi;                                               
;----------------------------------------------------------------------
        ldiu      r0,ar0
        ldiu      *+ar0(1),r0
        sti       r0,*+fp(1)
L193:        
	.line	9
;----------------------------------------------------------------------
; 690 | return nStPos;                                                         
;----------------------------------------------------------------------
        ldiu      *+fp(1),r0
	.line	10
        ldiu      *-fp(1),bk
        ldiu      *fp,fp
        subi      4,sp
        bu        bk
;*      Branch Occurs to bk 
	.endfunc	691,000000000h,2


	.sect	 ".text"

	.global	_user_FaultDataTx
	.sym	_user_FaultDataTx,_user_FaultDataTx,32,2,0
	.func	693
;******************************************************************************
;* FUNCTION NAME: _user_FaultDataTx                                           *
;*                                                                            *
;*   Architecture       : TMS320C30                                           *
;*   Calling Convention : Stack Parameter Convention                          *
;*   Function Uses Regs : r0,r1,r2,ar0,fp,sp,st                               *
;*   Regs Saved         :                                                     *
;*   Stack Frame        : Full (w/ debug)                                     *
;*   Total Frame Size   : 2 Call + 4 Parm + 3 Auto + 0 SOE = 9 words          *
;******************************************************************************
_user_FaultDataTx:
	.sym	_pTxBuf,-2,28,9,32
	.sym	_nLen,-3,12,9,32
	.sym	_nEndFlag,-4,12,9,32
	.sym	_nFltIdx,-5,4,9,32
	.sym	_sTempData,1,12,1,32
	.sym	_pLic_Cncs,2,24,1,32,.fake42
	.sym	_pNvsram,3,28,1,32
	.line	1
;----------------------------------------------------------------------
; 693 | void user_FaultDataTx(UCHAR *pTxBuf,UCHAR nLen,UCHAR nEndFlag,int nFltI
;     | dx)                                                                    
;----------------------------------------------------------------------
        push      fp
        ldiu      sp,fp
        addi      3,sp
	.line	2
	.line	3
;----------------------------------------------------------------------
; 695 | UCHAR sTempData = 0;                                                   
; 696 | PLIC_CNCS_HD pLic_Cncs;                                                
;----------------------------------------------------------------------
        ldiu      0,r0
        sti       r0,*+fp(1)
	.line	5
;----------------------------------------------------------------------
; 697 | UCHAR *pNvsram = (UCHAR *)NVSRAM_BASE;                                 
;----------------------------------------------------------------------
        ldiu      @CL67,r0
        sti       r0,*+fp(3)
	.line	7
;----------------------------------------------------------------------
; 699 | pLic_Cncs =(LIC_CNCS_HD *) pTxBuf;                                     
;----------------------------------------------------------------------
        ldiu      *-fp(2),r0
        sti       r0,*+fp(2)
	.line	9
;----------------------------------------------------------------------
; 701 | pLic_Cncs->phHdBuf.btSoh = 0x01;                                       
;----------------------------------------------------------------------
        ldiu      r0,ar0
        ldiu      1,r0
        sti       r0,*ar0
	.line	10
;----------------------------------------------------------------------
; 702 | pLic_Cncs->phHdBuf.chSrcDev[0] =  ConvHex2Asc(BYTE_H(0x11));           
;----------------------------------------------------------------------
        push      r0
        call      _ConvHex2Asc
                                        ; Call Occurs
        subi      1,sp
        ldiu      *+fp(2),ar0
        sti       r0,*+ar0(1)
	.line	11
;----------------------------------------------------------------------
; 703 | pLic_Cncs->phHdBuf.chSrcDev[1] =  ConvHex2Asc(BYTE_L(0x11));           
;----------------------------------------------------------------------
        ldiu      1,r0
        push      r0
        call      _ConvHex2Asc
                                        ; Call Occurs
        subi      1,sp
        ldiu      *+fp(2),ar0
        sti       r0,*+ar0(2)
	.line	12
;----------------------------------------------------------------------
; 704 | pLic_Cncs->phHdBuf.chDestDev[0] =  ConvHex2Asc(BYTE_H(0x15));          
;----------------------------------------------------------------------
        ldiu      1,r0
        push      r0
        call      _ConvHex2Asc
                                        ; Call Occurs
        subi      1,sp
        ldiu      *+fp(2),ar0
        sti       r0,*+ar0(3)
	.line	13
;----------------------------------------------------------------------
; 705 | pLic_Cncs->phHdBuf.chDestDev[1] =  ConvHex2Asc(BYTE_L(0x15));          
; 707 | // °íŔĺ ŔÎµ¦˝ş¸¦ ˝Ĺ±Ô·Î »ýĽş(Y.J ĽöÁ¤)                                 
;----------------------------------------------------------------------
        ldiu      5,r0
        push      r0
        call      _ConvHex2Asc
                                        ; Call Occurs
        subi      1,sp
        ldiu      *+fp(2),ar0
        sti       r0,*+ar0(4)
	.line	16
;----------------------------------------------------------------------
; 708 | if(!nFltIdx) nFltIdx = m_Variable.m_nFaultCnt;                         
;----------------------------------------------------------------------
        ldi       *-fp(5),r0
        bne       L198
;*      Branch Occurs to L198 
        ldiu      @_m_Variable+334,r0
        sti       r0,*-fp(5)
L198:        
	.line	18
;----------------------------------------------------------------------
; 710 | pLic_Cncs->phHdBuf.chMsgCnt[0] = ConvHex2Asc(BYTE_H(WORD_H(nFltIdx))); 
;----------------------------------------------------------------------
        ldiu      *-fp(5),r0
        ash       -8,r0
        and       255,r0
        ash       -4,r0
        and       15,r0
        push      r0
        call      _ConvHex2Asc
                                        ; Call Occurs
        subi      1,sp
        ldiu      *+fp(2),ar0
        sti       r0,*+ar0(5)
	.line	19
;----------------------------------------------------------------------
; 711 | pLic_Cncs->phHdBuf.chMsgCnt[1] = ConvHex2Asc(BYTE_L(WORD_H(nFltIdx))); 
;----------------------------------------------------------------------
        ldiu      *-fp(5),r0
        ash       -8,r0
        and       15,r0
        push      r0
        call      _ConvHex2Asc
                                        ; Call Occurs
        subi      1,sp
        ldiu      *+fp(2),ar0
        sti       r0,*+ar0(6)
	.line	20
;----------------------------------------------------------------------
; 712 | pLic_Cncs->phHdBuf.chMsgCnt[2] = ConvHex2Asc(BYTE_H(WORD_L(nFltIdx))); 
;----------------------------------------------------------------------
        ldiu      255,r0
        and       *-fp(5),r0
        ash       -4,r0
        and       15,r0
        push      r0
        call      _ConvHex2Asc
                                        ; Call Occurs
        subi      1,sp
        ldiu      *+fp(2),ar0
        sti       r0,*+ar0(7)
	.line	21
;----------------------------------------------------------------------
; 713 | pLic_Cncs->phHdBuf.chMsgCnt[3] = ConvHex2Asc(BYTE_L(WORD_L(nFltIdx))); 
;----------------------------------------------------------------------
        ldiu      15,r0
        and       *-fp(5),r0
        push      r0
        call      _ConvHex2Asc
                                        ; Call Occurs
        subi      1,sp
        ldiu      *+fp(2),ar0
        sti       r0,*+ar0(8)
	.line	23
;----------------------------------------------------------------------
; 715 | pLic_Cncs->phHdBuf.chCmdCode[0] = ConvHex2Asc(BYTE_H(0x10));           
;----------------------------------------------------------------------
        ldiu      1,r0
        push      r0
        call      _ConvHex2Asc
                                        ; Call Occurs
        subi      1,sp
        ldiu      *+fp(2),ar0
        sti       r0,*+ar0(9)
	.line	24
;----------------------------------------------------------------------
; 716 | pLic_Cncs->phHdBuf.chCmdCode[1] = ConvHex2Asc(BYTE_L(0x10));           
;----------------------------------------------------------------------
        ldiu      0,r0
        push      r0
        call      _ConvHex2Asc
                                        ; Call Occurs
        subi      1,sp
        ldiu      *+fp(2),ar0
        sti       r0,*+ar0(10)
	.line	26
;----------------------------------------------------------------------
; 718 | pLic_Cncs->phHdBuf.chDataLen[0] = ConvHex2Asc(BYTE_H(WORD_H(nLen)));   
;----------------------------------------------------------------------
        ldiu      *-fp(3),r0
        lsh       -8,r0
        and       255,r0
        lsh       -4,r0
        and       15,r0
        push      r0
        call      _ConvHex2Asc
                                        ; Call Occurs
        subi      1,sp
        ldiu      *+fp(2),ar0
        sti       r0,*+ar0(11)
	.line	27
;----------------------------------------------------------------------
; 719 | pLic_Cncs->phHdBuf.chDataLen[1] = ConvHex2Asc(BYTE_L(WORD_H(nLen)));   
;----------------------------------------------------------------------
        ldiu      *-fp(3),r0
        lsh       -8,r0
        and       15,r0
        push      r0
        call      _ConvHex2Asc
                                        ; Call Occurs
        subi      1,sp
        ldiu      *+fp(2),ar0
        sti       r0,*+ar0(12)
	.line	28
;----------------------------------------------------------------------
; 720 | pLic_Cncs->phHdBuf.chDataLen[2] = ConvHex2Asc(BYTE_H(WORD_L(nLen)));   
;----------------------------------------------------------------------
        ldiu      255,r0
        and       *-fp(3),r0
        lsh       -4,r0
        and       15,r0
        push      r0
        call      _ConvHex2Asc
                                        ; Call Occurs
        subi      1,sp
        ldiu      *+fp(2),ar0
        sti       r0,*+ar0(13)
	.line	29
;----------------------------------------------------------------------
; 721 | pLic_Cncs->phHdBuf.chDataLen[3] = ConvHex2Asc(BYTE_L(WORD_L(nLen)));   
;----------------------------------------------------------------------
        ldiu      15,r0
        and       *-fp(3),r0
        push      r0
        call      _ConvHex2Asc
                                        ; Call Occurs
        subi      1,sp
        ldiu      *+fp(2),ar0
        sti       r0,*+ar0(14)
	.line	31
;----------------------------------------------------------------------
; 723 | if(nEndFlag)                                                           
;----------------------------------------------------------------------
        ldi       *-fp(4),r0
        beq       L200
;*      Branch Occurs to L200 
	.line	33
;----------------------------------------------------------------------
; 725 | pLic_Cncs->sCommand[0] = ConvHex2Asc(BYTE_H(0x06));//°íŔĺ Á¤ş¸ Ľö˝Ĺ łˇ.
;----------------------------------------------------------------------
        ldiu      0,r0
        push      r0
        call      _ConvHex2Asc
                                        ; Call Occurs
        subi      1,sp
        ldiu      *+fp(2),ar0
        sti       r0,*+ar0(15)
	.line	34
;----------------------------------------------------------------------
; 726 | pLic_Cncs->sCommand[1] = ConvHex2Asc(BYTE_L(0x06));//°íŔĺ Á¤ş¸ Ľö˝Ĺ łˇ.
; 728 | else                                                                   
;----------------------------------------------------------------------
        ldiu      6,r0
        push      r0
        call      _ConvHex2Asc
                                        ; Call Occurs
        subi      1,sp
        ldiu      *+fp(2),ar0
        sti       r0,*+ar0(16)
        bu        L201
;*      Branch Occurs to L201 
L200:        
	.line	38
;----------------------------------------------------------------------
; 730 | pLic_Cncs->sCommand[0] = ConvHex2Asc(BYTE_H(0x04));//°íŔĺ Á¤ş¸ Ľö˝Ĺ Áß.
;----------------------------------------------------------------------
        ldiu      0,r0
        push      r0
        call      _ConvHex2Asc
                                        ; Call Occurs
        subi      1,sp
        ldiu      *+fp(2),ar0
        sti       r0,*+ar0(15)
	.line	39
;----------------------------------------------------------------------
; 731 | pLic_Cncs->sCommand[1] = ConvHex2Asc(BYTE_L(0x04));//°íŔĺ Á¤ş¸ Ľö˝Ĺ Áß.
;----------------------------------------------------------------------
        ldiu      4,r0
        push      r0
        call      _ConvHex2Asc
                                        ; Call Occurs
        subi      1,sp
        ldiu      *+fp(2),ar0
        sti       r0,*+ar0(16)
L201:        
	.line	42
;----------------------------------------------------------------------
; 734 | pLic_Cncs->sCarKind[0] = ConvHex2Asc(BYTE_H(m_Variable.m_chCarKind));  
;----------------------------------------------------------------------
        ldiu      @_m_Variable+342,r0
        ash       -4,r0
        and       15,r0
        push      r0
        call      _ConvHex2Asc
                                        ; Call Occurs
        subi      1,sp
        ldiu      *+fp(2),ar0
        sti       r0,*+ar0(17)
	.line	43
;----------------------------------------------------------------------
; 735 | pLic_Cncs->sCarKind[1] = ConvHex2Asc(BYTE_L(m_Variable.m_chCarKind));  
;----------------------------------------------------------------------
        ldiu      15,r0
        and       @_m_Variable+342,r0
        push      r0
        call      _ConvHex2Asc
                                        ; Call Occurs
        subi      1,sp
        ldiu      *+fp(2),ar0
        sti       r0,*+ar0(18)
	.line	45
;----------------------------------------------------------------------
; 737 | FunConvHexAsc(&pNvsram[m_Variable.m_Recving_Posi],(char *)pLic_Cncs->sT
;     | extDataAsc,(nLen-2));                                                  
;----------------------------------------------------------------------
        ldiu      19,r2
        ldiu      @_m_Variable+335,r1
        addi      *+fp(3),r1            ; Unsigned
        ldiu      2,r0
        addi      *+fp(2),r2            ; Unsigned
        subri     *-fp(3),r0            ; Unsigned
        push      r0
        push      r2
        push      r1
        call      _FunConvHexAsc
                                        ; Call Occurs
        subi      3,sp
	.line	47
;----------------------------------------------------------------------
; 739 | sTempData = Make1ByteBcc(&pLic_Cncs->phHdBuf.chSrcDev[0],(nLen*2)+14); 
;----------------------------------------------------------------------
        ldiu      1,r1
        addi      *+fp(2),r1            ; Unsigned
        ldiu      *-fp(3),r0
        mpyi      2,r0
        addi      14,r0                 ; Unsigned
        push      r0
        push      r1
        call      _Make1ByteBcc
                                        ; Call Occurs
        subi      2,sp
        sti       r0,*+fp(1)
	.line	49
;----------------------------------------------------------------------
; 741 | pLic_Cncs->sTextDataAsc[((nLen-2)*2)] = ConvHex2Asc(BYTE_H(sTempData));
;----------------------------------------------------------------------
        lsh       -4,r0
        and       15,r0
        push      r0
        call      _ConvHex2Asc
                                        ; Call Occurs
        subi      1,sp
        ldiu      2,ar0
        subri     *-fp(3),ar0           ; Unsigned
        mpyi      2,ar0
        addi      *+fp(2),ar0           ; Unsigned
        sti       r0,*+ar0(19)
	.line	50
;----------------------------------------------------------------------
; 742 | pLic_Cncs->sTextDataAsc[((nLen-2)*2)+1] = ConvHex2Asc(BYTE_L(sTempData)
;     | );                                                                     
;----------------------------------------------------------------------
        ldiu      15,r0
        and       *+fp(1),r0
        push      r0
        call      _ConvHex2Asc
                                        ; Call Occurs
        subi      1,sp
        ldiu      2,ar0
        subri     *-fp(3),ar0           ; Unsigned
        mpyi      2,ar0
        addi      *+fp(2),ar0           ; Unsigned
        sti       r0,*+ar0(20)
	.line	52
;----------------------------------------------------------------------
; 744 | pLic_Cncs->sTextDataAsc[((nLen-2)*2)+2] = 0x04;                        
;----------------------------------------------------------------------
        ldiu      2,ar0
        subri     *-fp(3),ar0           ; Unsigned
        mpyi      2,ar0
        addi      *+fp(2),ar0           ; Unsigned
        ldiu      4,r0
        sti       r0,*+ar0(21)
	.line	54
;----------------------------------------------------------------------
; 746 | m_Variable.m_LIC_CNCS_TX_DelyTime = 0;                                 
;----------------------------------------------------------------------
        ldiu      0,r0
        sti       r0,@_m_Variable+332
	.line	55
        ldiu      *-fp(1),bk
        ldiu      *fp,fp
        subi      5,sp
        bu        bk
;*      Branch Occurs to bk 
	.endfunc	747,000000000h,3


	.sect	 ".text"

	.global	_user_FtpEnd_CarNumFun
	.sym	_user_FtpEnd_CarNumFun,_user_FtpEnd_CarNumFun,32,2,0
	.func	752
;******************************************************************************
;* FUNCTION NAME: _user_FtpEnd_CarNumFun                                      *
;*                                                                            *
;*   Architecture       : TMS320C30                                           *
;*   Calling Convention : Stack Parameter Convention                          *
;*   Function Uses Regs : r0                                                  *
;*   Regs Saved         :                                                     *
;*   Stack Frame        : Full (w/ debug)                                     *
;*   Total Frame Size   : 2 Call + 0 Parm + 0 Auto + 0 SOE = 2 words          *
;******************************************************************************
_user_FtpEnd_CarNumFun:
	.line	1
;----------------------------------------------------------------------
; 752 | void user_FtpEnd_CarNumFun()                                           
;----------------------------------------------------------------------
        push      fp
        ldiu      sp,fp
	.line	3
;----------------------------------------------------------------------
; 754 | m_Variable.m_bLnWkFtpEndFlag = FALSE;                                  
;----------------------------------------------------------------------
        ldiu      0,r0
        sti       r0,@_m_Variable+349
	.line	5
;----------------------------------------------------------------------
; 756 | m_Variable.m_LIC_CNCS_Tx_Flag = FALSE; //°íŔĺ Á¤ş¸ ¸¶Áö¸· şí·° ŔĚąÇ·Î Ŕ
;     | üĽŰ łˇ.                                                                
;----------------------------------------------------------------------
        sti       r0,@_m_Variable+331
	.line	6
;----------------------------------------------------------------------
; 757 | m_Variable.m_nNvsramPos = 0;                                           
;----------------------------------------------------------------------
        sti       r0,@_m_Variable+348
	.line	7
;----------------------------------------------------------------------
; 758 | m_Variable.m_Recving_Posi = 0;                                         
;----------------------------------------------------------------------
        sti       r0,@_m_Variable+335
	.line	8
;----------------------------------------------------------------------
; 759 | m_Variable.m_nLnWkWaySideOnRxOk = 0;                                   
;----------------------------------------------------------------------
        sti       r0,@_m_Variable+346
	.line	9
;----------------------------------------------------------------------
; 760 | m_Variable.m_nFaultCnt = 0;                                            
; 761 | //m_chCarKind = 'A';                                                   
;----------------------------------------------------------------------
        sti       r0,@_m_Variable+334
	.line	11
;----------------------------------------------------------------------
; 762 | m_Variable.m_nLnWkTxFlag = 0;                                          
;----------------------------------------------------------------------
        sti       r0,@_m_Variable+333
	.line	52
        ldiu      *-fp(1),r1
        ldiu      *fp,fp
        subi      2,sp
        bu        r1
;*      Branch Occurs to r1 
	.endfunc	803,000000000h,0



	.sect	".cinit"
	.field  	1,32
	.field  	_d_CI_Fault+0,32
	.field  	0,32		; _d_CI_Fault @ 0

	.sect	".text"

	.global	_d_CI_Fault
	.bss	_d_CI_Fault,1
	.sym	_d_CI_Fault,_d_CI_Fault,4,2,32

	.sect	".cinit"
	.field  	1,32
	.field  	_d_CI_Index+0,32
	.field  	0,32		; _d_CI_Index @ 0

	.sect	".text"

	.global	_d_CI_Index
	.bss	_d_CI_Index,1
	.sym	_d_CI_Index,_d_CI_Index,4,2,32

	.sect	".cinit"
	.field  	1,32
	.field  	_nRxPos$9+0,32
	.field  	0,32		; _nRxPos$9 @ 0

	.sect	".text"

	.sect	".cinit"
	.field  	1,32
	.field  	_nOldUart3RxOneByteGapDelayTime$10+0,32
	.field  	0,32		; _nOldUart3RxOneByteGapDelayTime$10 @ 0

	.sect	".text"

	.sect	".cinit"
	.field  	1,32
	.field  	_sCarNumBCD_H$12+0,32
	.field  	0,32		; _sCarNumBCD_H$12 @ 0

	.sect	".text"

	.sect	".cinit"
	.field  	1,32
	.field  	_sCarNumBCD_L$13+0,32
	.field  	0,32		; _sCarNumBCD_L$13 @ 0

	.sect	".text"
	.sect	 ".text"

	.global	_user_WithPacRs485Loop
	.sym	_user_WithPacRs485Loop,_user_WithPacRs485Loop,32,2,0
	.func	811
;******************************************************************************
;* FUNCTION NAME: _user_WithPacRs485Loop                                      *
;*                                                                            *
;*   Architecture       : TMS320C30                                           *
;*   Calling Convention : Stack Parameter Convention                          *
;*   Function Uses Regs : r0,r1,r2,r4,ar0,ar1,fp,ir0,ir1,sp,st                *
;*   Regs Saved         : r4                                                  *
;*   Stack Frame        : Full (w/ debug)                                     *
;*   Total Frame Size   : 2 Call + 0 Parm + 438 Auto + 1 SOE = 441 words      *
;******************************************************************************
_user_WithPacRs485Loop:
	.bss	_nRxPos$9,1
	.sym	_nRxPos,_nRxPos$9,4,3,32
	.bss	_nOldUart3RxOneByteGapDelayTime$10,1
	.sym	_nOldUart3RxOneByteGapDelayTime,_nOldUart3RxOneByteGapDelayTime$10,12,3,32
	.bss	_btRx3chBuf$11,300
	.sym	_btRx3chBuf,_btRx3chBuf$11,60,3,9600,,300
	.bss	_sCarNumBCD_H$12,1
	.sym	_sCarNumBCD_H,_sCarNumBCD_H$12,12,3,32
	.bss	_sCarNumBCD_L$13,1
	.sym	_sCarNumBCD_L,_sCarNumBCD_L$13,12,3,32
	.sym	_i,1,4,1,32
	.sym	_nRxLen,2,4,1,32
	.sym	_nCciCnt,3,4,1,32
	.sym	_btTmp,4,12,1,32
	.sym	_btTmpBuf,5,60,1,3200,,100
	.sym	_btBuf,105,60,1,9600,,300
	.sym	_sAdd1,405,12,1,32
	.sym	_sAdd2,406,12,1,32
	.sym	_sAdd3,407,12,1,32
	.sym	_pLnWkDp,408,24,1,32,.fake10
	.sym	_pPaSdrBuf,409,24,1,32,.fake13
	.sym	_lsLicSdBuf,410,8,1,768,.fake36
	.sym	_pPa_PaBuf,434,24,1,32,.fake34
	.sym	_pCcp_Pac,435,24,1,32,.fake35
	.sym	_pPac_Pac_Sta,436,24,1,32,.fake14
	.sym	_pCommStatus,437,24,1,32,.fake49
	.sym	_pCommStatus_Lic,438,24,1,32,.fake57
	.line	1
;----------------------------------------------------------------------
; 811 | void user_WithPacRs485Loop()                                           
; 813 | int i;                                                                 
; 814 | int nRxLen;                                                            
;----------------------------------------------------------------------
        push      fp
        ldiu      sp,fp
        addi      438,sp
        push      r4
	.line	5
;----------------------------------------------------------------------
; 815 | int nCciCnt = 0;                                                       
; 816 | UCHAR btTmp;                                                           
; 817 | UCHAR btTmpBuf[100];                                                   
; 818 | UCHAR btBuf[300];                                                      
; 819 | static int nRxPos = 0;                                                 
; 820 | static UCHAR nOldUart3RxOneByteGapDelayTime = 0;                       
; 821 | static UCHAR btRx3chBuf[300];                                          
; 823 | static UCHAR sCarNumBCD_H = 0;                                         
; 824 | static UCHAR sCarNumBCD_L = 0;                                         
;----------------------------------------------------------------------
        ldiu      0,r0
        sti       r0,*+fp(3)
	.line	17
;----------------------------------------------------------------------
; 827 | UCHAR sAdd1 = 0;                                                       
;----------------------------------------------------------------------
        ldiu      405,ir0
        sti       r0,*+fp(ir0)
	.line	18
;----------------------------------------------------------------------
; 828 | UCHAR sAdd2 = 0;                                                       
;----------------------------------------------------------------------
        ldiu      406,ir0
        sti       r0,*+fp(ir0)
	.line	19
;----------------------------------------------------------------------
; 829 | UCHAR sAdd3 = 0;                                                       
;----------------------------------------------------------------------
        ldiu      407,ir0
        sti       r0,*+fp(ir0)
	.line	22
;----------------------------------------------------------------------
; 832 | PLNWKDP pLnWkDp = (LNWKDP *)DPRAM_BASE;                                
; 834 | PPACSDR pPaSdrBuf;                                                     
; 835 | LICSD lsLicSdBuf;                                                      
; 836 | PPAC_PAC pPa_PaBuf;                                                    
; 838 | PCCP_PAC pCcp_Pac;                                                     
; 840 | PCRA_STATION pPac_Pac_Sta;                                             
; 842 | PCOMMSTATUS_PA pCommStatus;                                            
; 843 | PCOMMSTATUS_LIC pCommStatus_Lic;                                       
; 846 | // Ľö˝Ĺ                                                                
;----------------------------------------------------------------------
        ldiu      408,ir0
        ldiu      @CL75,r0
        sti       r0,*+fp(ir0)
	.line	37
;----------------------------------------------------------------------
; 847 | nRxLen = user_PacRx(btBuf,128);                                        
;----------------------------------------------------------------------
        ldiu      128,r1
        ldiu      fp,r0
        push      r1
        addi      105,r0
        push      r0
        call      _user_PacRx
                                        ; Call Occurs
        subi      2,sp
        sti       r0,*+fp(2)
	.line	38
;----------------------------------------------------------------------
; 848 | if(nRxLen)                                                             
;----------------------------------------------------------------------
        cmpi      0,r0
        beq       L212
;*      Branch Occurs to L212 
	.line	40
;----------------------------------------------------------------------
; 850 | if(!m_Variable.m_nUart3RxOneByteGapDelayTime) nRxPos = 0;              
;----------------------------------------------------------------------
        ldi       @_m_Variable+290,r0
        bne       L210
;*      Branch Occurs to L210 
        ldiu      0,r0
        sti       r0,@_nRxPos$9+0
L210:        
	.line	41
;----------------------------------------------------------------------
; 851 | m_Variable.m_nUart3RxOneByteGapDelayTime = 3;                          
;----------------------------------------------------------------------
        ldiu      3,r0
        sti       r0,@_m_Variable+290
	.line	43
;----------------------------------------------------------------------
; 853 | if(nRxPos + nRxLen < 300)                                              
;----------------------------------------------------------------------
        ldiu      *+fp(2),r0
        addi      @_nRxPos$9+0,r0
        cmpi      300,r0
        bged      L212
        ldilt     @CL76,r0
        ldilt     fp,r1
        ldilt     *+fp(2),r2
;*      Branch Occurs to L212 
	.line	45
;----------------------------------------------------------------------
; 855 | memcpy(&btRx3chBuf[nRxPos],btBuf,nRxLen);                              
;----------------------------------------------------------------------
        addi      @_nRxPos$9+0,r0       ; Unsigned
        addi      105,r1
        push      r2
        push      r1
        push      r0
        call      _memcpy
                                        ; Call Occurs
        subi      3,sp
	.line	46
;----------------------------------------------------------------------
; 856 | nRxPos += nRxLen;                                                      
;----------------------------------------------------------------------
        ldiu      *+fp(2),r0
        addi      @_nRxPos$9+0,r0
        sti       r0,@_nRxPos$9+0
L212:        
	.line	51
;----------------------------------------------------------------------
; 861 | if(nOldUart3RxOneByteGapDelayTime && !m_Variable.m_nUart3RxOneByteGapDe
;     | layTime)                                                               
;----------------------------------------------------------------------
        ldi       @_nOldUart3RxOneByteGapDelayTime$10+0,r0
        beq       L277
;*      Branch Occurs to L277 
        ldi       @_m_Variable+290,r0
        bne       L277
;*      Branch Occurs to L277 
	.line	54
;----------------------------------------------------------------------
; 864 | if(nRxPos >= 10)                                                       
;----------------------------------------------------------------------
        ldiu      @_nRxPos$9+0,r0
        cmpi      10,r0
        blt       L277
;*      Branch Occurs to L277 
	.line	56
;----------------------------------------------------------------------
; 866 | pPaSdrBuf = (PACSDR *)btRx3chBuf;                                      
;----------------------------------------------------------------------
        ldiu      409,ir0
        ldiu      @CL76,r0
        sti       r0,*+fp(ir0)
	.line	58
;----------------------------------------------------------------------
; 868 | pPa_PaBuf = (PAC_PAC *)btRx3chBuf;                                     
;----------------------------------------------------------------------
        ldiu      434,ir0
        sti       r0,*+fp(ir0)
	.line	61
;----------------------------------------------------------------------
; 871 | pCcp_Pac = (CCP_PAC *)btRx3chBuf;                                      
; 873 | //PAC -> LIC şÎşĐ ÇÁ·ÎĹäÄÝŔ» şĐ¸® ÇŃ´Ů.                                
; 874 | if(                                                                    
;----------------------------------------------------------------------
        ldiu      435,ir0
        sti       r0,*+fp(ir0)
	.line	65
;----------------------------------------------------------------------
; 875 | WORD_L(pPaSdrBuf->phHdBuf.btSoh) == SOH &&                             
; 876 | WORD_L(pPaSdrBuf->btEot) == EOT &&                                     
; 877 | sizeof(PACSDR) == nRxPos &&                                            
; 878 | (TWOBYTE_ASC2HEX(pPaSdrBuf->phHdBuf.chDestDev) == m_Variable.m_chCarKin
;     | dNum)&&                                                                
; 880 | ConvAsc2Hex(pPaSdrBuf->nCRC[0]) == BYTE_H(WORD_H(crc16_ccitt(&pPaSdrBuf
;     | ->phHdBuf.chSrcDev[0],nRxPos-6)))&&                                    
; 881 | ConvAsc2Hex(pPaSdrBuf->nCRC[1]) == BYTE_L(WORD_H(crc16_ccitt(&pPaSdrBuf
;     | ->phHdBuf.chSrcDev[0],nRxPos-6)))&&                                    
; 882 | ConvAsc2Hex(pPaSdrBuf->nCRC[2]) == BYTE_H(WORD_L(crc16_ccitt(&pPaSdrBuf
;     | ->phHdBuf.chSrcDev[0],nRxPos-6)))&&                                    
; 883 | ConvAsc2Hex(pPaSdrBuf->nCRC[3]) == BYTE_L(WORD_L(crc16_ccitt(&pPaSdrBuf
;     | ->phHdBuf.chSrcDev[0],nRxPos-6))))                                     
; 885 | switch(TWOBYTE_ASC2HEX(pPaSdrBuf->phHdBuf.chCmdCode))                  
; 887 | case REQ_CMD: //PAC -> LIC                                             
;----------------------------------------------------------------------
        ldiu      409,ir0
        ldiu      *+fp(ir0),ar0
        ldiu      255,r0
        and3      r0,*ar0,r0
        cmpi      1,r0
        bne       L231
;*      Branch Occurs to L231 
        ldiu      *+fp(ir0),ar0
        ldiu      255,r0
        and       *+ar0(17),r0
        cmpi      4,r0
        bne       L231
;*      Branch Occurs to L231 
        ldiu      18,r0
        cmpi      @_nRxPos$9+0,r0
        bne       L231
;*      Branch Occurs to L231 
        ldiu      *+fp(ir0),ar0
        ldiu      *+ar0(3),r0
        push      r0
        call      _ConvAsc2Hex
                                        ; Call Occurs
        ldiu      409,ir0
        subi      1,sp
        ldiu      r0,r4
        ldiu      *+fp(ir0),ar0
        ldiu      *+ar0(4),r0
        ash       4,r4
        push      r0
        call      _ConvAsc2Hex
                                        ; Call Occurs
        and       15,r0
        or3       r4,r0,r0
        and       255,r0
        cmpi      @_m_Variable+344,r0
        subi      1,sp
        bne       L231
;*      Branch Occurs to L231 
        ldiu      1,r1
        ldiu      409,ir0
        ldiu      6,r0
        addi3     r1,*+fp(ir0),r1       ; Unsigned
        subri     @_nRxPos$9+0,r0
        push      r0
        push      r1
        call      _crc16_ccitt
                                        ; Call Occurs
        ldiu      409,ir0
        ldiu      r0,r4
        subi      2,sp
        lsh       -8,r4
        ldiu      *+fp(ir0),ar0
        and       255,r4
        ldiu      *+ar0(13),r0
        lsh       -4,r4
        and       15,r4
        push      r0
        call      _ConvAsc2Hex
                                        ; Call Occurs
        cmpi3     r4,r0
        subi      1,sp
        bne       L231
;*      Branch Occurs to L231 
        ldiu      1,r1
        ldiu      409,ir0
        ldiu      6,r0
        addi3     r1,*+fp(ir0),r1       ; Unsigned
        subri     @_nRxPos$9+0,r0
        push      r0
        push      r1
        call      _crc16_ccitt
                                        ; Call Occurs
        subi      2,sp
        ldiu      409,ir0
        ldiu      r0,r4
        ldiu      *+fp(ir0),ar0
        ldiu      *+ar0(14),r0
        lsh       -8,r4
        push      r0
        and       15,r4
        call      _ConvAsc2Hex
                                        ; Call Occurs
        cmpi3     r4,r0
        subi      1,sp
        bne       L231
;*      Branch Occurs to L231 
        ldiu      1,r1
        ldiu      409,ir0
        ldiu      6,r0
        addi3     r1,*+fp(ir0),r1       ; Unsigned
        subri     @_nRxPos$9+0,r0
        push      r0
        push      r1
        call      _crc16_ccitt
                                        ; Call Occurs
        ldiu      409,ir0
        subi      2,sp
        ldiu      r0,r4
        ldiu      *+fp(ir0),ar0
        and       255,r4
        ldiu      *+ar0(15),r0
        lsh       -4,r4
        push      r0
        and       15,r4
        call      _ConvAsc2Hex
                                        ; Call Occurs
        cmpi3     r4,r0
        subi      1,sp
        bne       L231
;*      Branch Occurs to L231 
        ldiu      1,r1
        ldiu      409,ir0
        ldiu      6,r0
        addi3     r1,*+fp(ir0),r1       ; Unsigned
        subri     @_nRxPos$9+0,r0
        push      r0
        push      r1
        call      _crc16_ccitt
                                        ; Call Occurs
        ldiu      409,ir0
        subi      2,sp
        ldiu      *+fp(ir0),ar0
        ldiu      r0,r4
        ldiu      *+ar0(16),r0
        and       15,r4
        push      r0
        call      _ConvAsc2Hex
                                        ; Call Occurs
        cmpi3     r4,r0
        subi      1,sp
        bne       L231
;*      Branch Occurs to L231 
        bud       L228
        ldiu      409,ir0
        ldiu      *+fp(ir0),ar0
        ldiu      *+ar0(7),r0
;*      Branch Occurs to L228 
	.line	79
;----------------------------------------------------------------------
; 889 | lsLicSdBuf.phHdBuf.btSoh = SOH;                                        
;----------------------------------------------------------------------
L225:        
        sti       r0,*+fp(ir0)
	.line	80
;----------------------------------------------------------------------
; 890 | lsLicSdBuf.phHdBuf.chSrcDev[0] = ConvHex2Asc(BYTE_H(m_Variable.m_chCarK
;     | indNum));                                                              
;----------------------------------------------------------------------
        ldiu      @_m_Variable+344,r0
        ash       -4,r0
        and       15,r0
        push      r0
        call      _ConvHex2Asc
                                        ; Call Occurs
        subi      1,sp
        ldiu      411,ir0
        sti       r0,*+fp(ir0)
	.line	81
;----------------------------------------------------------------------
; 891 | lsLicSdBuf.phHdBuf.chSrcDev[1] = ConvHex2Asc(BYTE_L(m_Variable.m_chCarK
;     | indNum));                                                              
;----------------------------------------------------------------------
        ldiu      15,r0
        and       @_m_Variable+344,r0
        push      r0
        call      _ConvHex2Asc
                                        ; Call Occurs
        ldiu      412,ir0
        subi      1,sp
        sti       r0,*+fp(ir0)
	.line	82
;----------------------------------------------------------------------
; 892 | lsLicSdBuf.phHdBuf.chDestDev[0] = pPaSdrBuf->phHdBuf.chSrcDev[0];      
;----------------------------------------------------------------------
        ldiu      409,ir0
        ldiu      *+fp(ir0),ar0
        ldiu      413,ir0
        ldiu      *+ar0(1),r0
        sti       r0,*+fp(ir0)
	.line	83
;----------------------------------------------------------------------
; 893 | lsLicSdBuf.phHdBuf.chDestDev[1] = pPaSdrBuf->phHdBuf.chSrcDev[1];      
;----------------------------------------------------------------------
        ldiu      409,ir0
        ldiu      *+fp(ir0),ar0
        ldiu      414,ir0
        ldiu      *+ar0(2),r0
        sti       r0,*+fp(ir0)
	.line	84
;----------------------------------------------------------------------
; 894 | lsLicSdBuf.phHdBuf.chMsgCnt[0] = pPaSdrBuf->phHdBuf.chMsgCnt[0];       
;----------------------------------------------------------------------
        ldiu      409,ir0
        ldiu      *+fp(ir0),ar0
        ldiu      415,ir0
        ldiu      *+ar0(5),r0
        sti       r0,*+fp(ir0)
	.line	85
;----------------------------------------------------------------------
; 895 | lsLicSdBuf.phHdBuf.chMsgCnt[1] = pPaSdrBuf->phHdBuf.chMsgCnt[1];       
;----------------------------------------------------------------------
        ldiu      409,ir0
        ldiu      *+fp(ir0),ar0
        ldiu      416,ir0
        ldiu      *+ar0(6),r0
        sti       r0,*+fp(ir0)
	.line	86
;----------------------------------------------------------------------
; 896 | lsLicSdBuf.phHdBuf.chCmdCode[0] = ConvHex2Asc(BYTE_H(RPY_CMD));        
;----------------------------------------------------------------------
        ldiu      1,r0
        push      r0
        call      _ConvHex2Asc
                                        ; Call Occurs
        subi      1,sp
        ldiu      417,ir0
        sti       r0,*+fp(ir0)
	.line	87
;----------------------------------------------------------------------
; 897 | lsLicSdBuf.phHdBuf.chCmdCode[1] = ConvHex2Asc(BYTE_L(RPY_CMD));        
;----------------------------------------------------------------------
        ldiu      1,r0
        push      r0
        call      _ConvHex2Asc
                                        ; Call Occurs
        ldiu      418,ir0
        subi      1,sp
        sti       r0,*+fp(ir0)
	.line	88
;----------------------------------------------------------------------
; 898 | lsLicSdBuf.phHdBuf.chDataLen[0] = ConvHex2Asc(BYTE_H(((sizeof(LICSD)-16
;     | )/2)));                                                                
;----------------------------------------------------------------------
        ldiu      0,r0
        push      r0
        call      _ConvHex2Asc
                                        ; Call Occurs
        subi      1,sp
        ldiu      419,ir0
        sti       r0,*+fp(ir0)
	.line	89
;----------------------------------------------------------------------
; 899 | lsLicSdBuf.phHdBuf.chDataLen[1] = ConvHex2Asc(BYTE_L(((sizeof(LICSD)-16
;     | )/2)));                                                                
;----------------------------------------------------------------------
        ldiu      4,r0
        push      r0
        call      _ConvHex2Asc
                                        ; Call Occurs
        subi      1,sp
        ldiu      420,ir0
        sti       r0,*+fp(ir0)
	.line	91
;----------------------------------------------------------------------
; 901 | lsLicSdBuf.DATA1.BIT.All_Doors_Closed = m_Variable.m_btCttSignalA.BIT.A
;     | ll_Doors_Closed;                                                       
;----------------------------------------------------------------------
        ldiu      8,r0
        and       @_m_Variable+425,r0
        lsh       -3,r0
        and       1,r0
        ldiu      422,ir1
        ash       3,r0
        ldiu      *+fp(ir1),r1
        andn      8,r1
        ldiu      422,ir0
        or3       r1,r0,r0
        sti       r0,*+fp(ir0)
	.line	92
;----------------------------------------------------------------------
; 902 | lsLicSdBuf.DATA1.BIT.EP_Mode = m_Variable.m_btCttSignalA.BIT.EP_Mode;  
;----------------------------------------------------------------------
        ldiu      4,r0
        and       @_m_Variable+425,r0
        lsh       -2,r0
        and       1,r0
        ldiu      *+fp(ir1),r1
        ash       2,r0
        andn      4,r1
        or3       r1,r0,r0
        sti       r0,*+fp(ir0)
	.line	93
;----------------------------------------------------------------------
; 903 | lsLicSdBuf.DATA1.BIT.Traction = m_Variable.m_btCttSignalA.BIT.Traction;
;----------------------------------------------------------------------
        ldiu      2,r0
        and       @_m_Variable+425,r0
        lsh       -1,r0
        and       1,r0
        ldiu      *+fp(ir1),r1
        ash       1,r0
        andn      2,r1
        or3       r1,r0,r0
        sti       r0,*+fp(ir0)
	.line	94
;----------------------------------------------------------------------
; 904 | lsLicSdBuf.DATA1.BIT.Atcive_Cab = m_Variable.m_btCttSignalA.BIT.Atcive_
;     | Cab;                                                                   
;----------------------------------------------------------------------
        ldiu      1,r0
        ldiu      *+fp(ir1),r1
        and       @_m_Variable+425,r0
        andn      1,r1
        or3       r1,r0,r0
        sti       r0,*+fp(ir0)
	.line	96
;----------------------------------------------------------------------
; 906 | lsLicSdBuf.DATA2.BIT.CI_Fault = m_Variable.m_bCiFaultFlag;             
;----------------------------------------------------------------------
        ldiu      1,r0
        ldiu      421,ir1
        and       @_m_Variable+432,r0
        ldiu      *+fp(ir1),r1
        andn      4,r1
        ash       2,r0
        ldiu      421,ir0
        or3       r1,r0,r0
        sti       r0,*+fp(ir0)
	.line	97
;----------------------------------------------------------------------
; 907 | lsLicSdBuf.DATA2.BIT.DST = 0;                                          
;----------------------------------------------------------------------
        ldiu      *+fp(ir1),r0
        andn      8,r0
        sti       r0,*+fp(ir0)
	.line	99
;----------------------------------------------------------------------
; 909 | lsLicSdBuf.DATA1.BYTE = ConvHex2Asc(BYTE_L(lsLicSdBuf.DATA1.BYTE));    
;----------------------------------------------------------------------
        ldiu      422,ir0
        ldiu      15,r0
        and3      r0,*+fp(ir0),r0
        push      r0
        call      _ConvHex2Asc
                                        ; Call Occurs
        subi      1,sp
        ldiu      422,ir0
        sti       r0,*+fp(ir0)
	.line	101
;----------------------------------------------------------------------
; 911 | lsLicSdBuf.DATA2.BYTE = ConvHex2Asc(BYTE_L(lsLicSdBuf.DATA2.BYTE));    
;----------------------------------------------------------------------
        ldiu      421,ir0
        ldiu      15,r0
        and3      r0,*+fp(ir0),r0
        push      r0
        call      _ConvHex2Asc
                                        ; Call Occurs
        subi      1,sp
        ldiu      421,ir0
        sti       r0,*+fp(ir0)
	.line	103
;----------------------------------------------------------------------
; 913 | lsLicSdBuf.CI_Index_Num[0] = ConvHex2Asc(BYTE_H(m_Variable.m_nCarPos));
;----------------------------------------------------------------------
        ldiu      @_m_Variable+338,r0
        ash       -4,r0
        and       15,r0
        push      r0
        call      _ConvHex2Asc
                                        ; Call Occurs
        subi      1,sp
        ldiu      423,ir0
        sti       r0,*+fp(ir0)
	.line	104
;----------------------------------------------------------------------
; 914 | lsLicSdBuf.CI_Index_Num[1] = ConvHex2Asc(BYTE_L(m_Variable.m_nCarPos));
;----------------------------------------------------------------------
        ldiu      15,r0
        and       @_m_Variable+338,r0
        push      r0
        call      _ConvHex2Asc
                                        ; Call Occurs
        subi      1,sp
        ldiu      424,ir0
        sti       r0,*+fp(ir0)
	.line	106
;----------------------------------------------------------------------
; 916 | lsLicSdBuf.chCarn[0][0] = ConvHex2Asc(BYTE_H(WORD_H(m_Variable.m_nCarNo
;     | ))); // Car Number(-.ąéŔÚ¸®)                                           
;----------------------------------------------------------------------
        ldiu      @_m_Variable+341,r0
        lsh       -8,r0
        and       255,r0
        lsh       -4,r0
        and       15,r0
        push      r0
        call      _ConvHex2Asc
                                        ; Call Occurs
        subi      1,sp
        ldiu      425,ir0
        sti       r0,*+fp(ir0)
	.line	107
;----------------------------------------------------------------------
; 917 | lsLicSdBuf.chCarn[0][1] = ConvHex2Asc(BYTE_L(WORD_H(m_Variable.m_nCarNo
;     | )));                                                                   
;----------------------------------------------------------------------
        ldiu      @_m_Variable+341,r0
        lsh       -8,r0
        and       15,r0
        push      r0
        call      _ConvHex2Asc
                                        ; Call Occurs
        ldiu      426,ir0
        subi      1,sp
        sti       r0,*+fp(ir0)
	.line	108
;----------------------------------------------------------------------
; 918 | lsLicSdBuf.chCarn[1][0] = ConvHex2Asc(BYTE_H(m_Variable.m_nCarNo)); //
;     | Car Number(˝ĘŔÚ¸®,ŔĎŔÚ¸®)                                              
;----------------------------------------------------------------------
        ldiu      @_m_Variable+341,r0
        lsh       -4,r0
        and       15,r0
        push      r0
        call      _ConvHex2Asc
                                        ; Call Occurs
        ldiu      427,ir0
        subi      1,sp
        sti       r0,*+fp(ir0)
	.line	109
;----------------------------------------------------------------------
; 919 | lsLicSdBuf.chCarn[1][1] = ConvHex2Asc(BYTE_L(m_Variable.m_nCarNo));    
;----------------------------------------------------------------------
        ldiu      15,r0
        and       @_m_Variable+341,r0
        push      r0
        call      _ConvHex2Asc
                                        ; Call Occurs
        subi      1,sp
        ldiu      428,ir0
        sti       r0,*+fp(ir0)
	.line	111
;----------------------------------------------------------------------
; 921 | btTmp = crc16_ccitt(&lsLicSdBuf.phHdBuf.chSrcDev[0],sizeof(LICSD)-6);  
;----------------------------------------------------------------------
        ldiu      18,r1
        ldiu      411,r0
        push      r1
        addi      fp,r0
        push      r0
        call      _crc16_ccitt
                                        ; Call Occurs
        subi      2,sp
        sti       r0,*+fp(4)
	.line	112
;----------------------------------------------------------------------
; 922 | lsLicSdBuf.nCRC[0] = ConvHex2Asc(BYTE_H(WORD_H(btTmp)));               
;----------------------------------------------------------------------
        lsh       -8,r0
        and       255,r0
        lsh       -4,r0
        and       15,r0
        push      r0
        call      _ConvHex2Asc
                                        ; Call Occurs
        subi      1,sp
        ldiu      429,ir0
        sti       r0,*+fp(ir0)
	.line	113
;----------------------------------------------------------------------
; 923 | lsLicSdBuf.nCRC[1] = ConvHex2Asc(BYTE_L(WORD_H(btTmp)));               
;----------------------------------------------------------------------
        ldiu      *+fp(4),r0
        lsh       -8,r0
        and       15,r0
        push      r0
        call      _ConvHex2Asc
                                        ; Call Occurs
        subi      1,sp
        ldiu      430,ir0
        sti       r0,*+fp(ir0)
	.line	114
;----------------------------------------------------------------------
; 924 | lsLicSdBuf.nCRC[2] = ConvHex2Asc(BYTE_H(WORD_L(btTmp)));               
;----------------------------------------------------------------------
        ldiu      255,r0
        and       *+fp(4),r0
        lsh       -4,r0
        and       15,r0
        push      r0
        call      _ConvHex2Asc
                                        ; Call Occurs
        ldiu      431,ir0
        subi      1,sp
        sti       r0,*+fp(ir0)
	.line	115
;----------------------------------------------------------------------
; 925 | lsLicSdBuf.nCRC[3] = ConvHex2Asc(BYTE_L(WORD_L(btTmp)));               
;----------------------------------------------------------------------
        ldiu      15,r0
        and       *+fp(4),r0
        push      r0
        call      _ConvHex2Asc
                                        ; Call Occurs
        ldiu      432,ir0
        subi      1,sp
        sti       r0,*+fp(ir0)
	.line	116
;----------------------------------------------------------------------
; 926 | lsLicSdBuf.btEot = EOT;                                                
;----------------------------------------------------------------------
        ldiu      433,ir0
        ldiu      4,r0
        sti       r0,*+fp(ir0)
	.line	118
;----------------------------------------------------------------------
; 928 | user_PacTx((UCHAR *)&lsLicSdBuf,sizeof(LICSD));                        
;----------------------------------------------------------------------
        ldiu      24,r0
        push      r0
        ldiu      410,r0
        addi      fp,r0
        push      r0
        call      _user_PacTx
                                        ; Call Occurs
        subi      2,sp
	.line	120
;----------------------------------------------------------------------
; 930 | break;                                                                 
; 931 | default:                                                               
;----------------------------------------------------------------------
        bu        L277
;*      Branch Occurs to L277 
	.line	122
;----------------------------------------------------------------------
; 932 | break;                                                                 
; 936 | else                                                                   
;----------------------------------------------------------------------
	.line	75
L228:        
        push      r0
        call      _ConvAsc2Hex
                                        ; Call Occurs
        ldiu      409,ir0
        subi      1,sp
        ldiu      r0,r4
        ldiu      *+fp(ir0),ar0
        ldiu      *+ar0(8),r0
        ash       4,r4
        push      r0
        call      _ConvAsc2Hex
                                        ; Call Occurs
        and       15,r0
        or3       r4,r0,r0
        and       255,r0
        cmpi      16,r0
        beqd      L225
        subi      1,sp
        ldieq     410,ir0
        ldieq     1,r0
;*      Branch Occurs to L225 
        bu        L277
;*      Branch Occurs to L277 
L231:        
	.line	127
;----------------------------------------------------------------------
; 937 | if(WORD_L(pPa_PaBuf->phHdBuf.btSoh) == SOH &&  // PAC <-> PAC żˇĽ­ »óĹÂ
;     |  Á¤ş¸¸¦ ĂßĂâÇŃ´Ů.                                                      
; 938 |             WORD_L(pPa_PaBuf->btEot) == EOT &&                         
; 939 |             sizeof(PAC_PAC) == nRxPos &&                               
; 940 |                 //(TWOBYTE_ASC2HEX(pPa_PaBuf->phHdBuf.chSrcDev) == PAC_
;     | DEV_NO) &&                                                             
; 941 |             //(TWOBYTE_ASC2HEX(pPa_PaBuf->phHdBuf.chDestDev) == PAC_DEV
;     | _NO) &&                                                                
; 943 |             ConvAsc2Hex(pPa_PaBuf->nCRC[0]) == BYTE_H(WORD_H(crc16_ccit
;     | t(&pPa_PaBuf->phHdBuf.chSrcDev[0],nRxPos-6)))&&                        
; 944 |                 ConvAsc2Hex(pPa_PaBuf->nCRC[1]) == BYTE_L(WORD_H(crc16_
;     | ccitt(&pPa_PaBuf->phHdBuf.chSrcDev[0],nRxPos-6)))&&                    
; 945 |                 ConvAsc2Hex(pPa_PaBuf->nCRC[2]) == BYTE_H(WORD_L(crc16_
;     | ccitt(&pPa_PaBuf->phHdBuf.chSrcDev[0],nRxPos-6)))&&                    
; 946 |                 ConvAsc2Hex(pPa_PaBuf->nCRC[3]) == BYTE_L(WORD_L(crc16_
;     | ccitt(&pPa_PaBuf->phHdBuf.chSrcDev[0],nRxPos-6)))                      
; 947 |             )                                                          
;----------------------------------------------------------------------
        ldiu      434,ir0
        ldiu      *+fp(ir0),ar0
        ldiu      255,r0
        and3      r0,*ar0,r0
        cmpi      1,r0
        bne       L262
;*      Branch Occurs to L262 
        ldiu      *+fp(ir0),ar0
        ldiu      255,r0
        and       *+ar0(245),r0
        cmpi      4,r0
        bne       L262
;*      Branch Occurs to L262 
        ldiu      246,r0
        cmpi      @_nRxPos$9+0,r0
        bne       L262
;*      Branch Occurs to L262 
        ldiu      1,r1
        ldiu      6,r0
        addi3     r1,*+fp(ir0),r1       ; Unsigned
        subri     @_nRxPos$9+0,r0
        push      r0
        push      r1
        call      _crc16_ccitt
                                        ; Call Occurs
        ldiu      434,ir0
        ldiu      r0,r4
        subi      2,sp
        lsh       -8,r4
        ldiu      *+fp(ir0),ar0
        and       255,r4
        lsh       -4,r4
        ldiu      *+ar0(241),r0
        and       15,r4
        push      r0
        call      _ConvAsc2Hex
                                        ; Call Occurs
        cmpi3     r4,r0
        subi      1,sp
        bne       L262
;*      Branch Occurs to L262 
        ldiu      1,r1
        ldiu      434,ir0
        ldiu      6,r0
        addi3     r1,*+fp(ir0),r1       ; Unsigned
        subri     @_nRxPos$9+0,r0
        push      r0
        push      r1
        call      _crc16_ccitt
                                        ; Call Occurs
        subi      2,sp
        ldiu      434,ir0
        ldiu      r0,r4
        ldiu      *+fp(ir0),ar0
        ldiu      *+ar0(242),r0
        lsh       -8,r4
        push      r0
        and       15,r4
        call      _ConvAsc2Hex
                                        ; Call Occurs
        cmpi3     r4,r0
        subi      1,sp
        bne       L262
;*      Branch Occurs to L262 
        ldiu      1,r1
        ldiu      434,ir0
        ldiu      6,r0
        addi3     r1,*+fp(ir0),r1       ; Unsigned
        subri     @_nRxPos$9+0,r0
        push      r0
        push      r1
        call      _crc16_ccitt
                                        ; Call Occurs
        ldiu      434,ir0
        subi      2,sp
        ldiu      r0,r4
        ldiu      *+fp(ir0),ar0
        and       255,r4
        ldiu      *+ar0(243),r0
        lsh       -4,r4
        push      r0
        and       15,r4
        call      _ConvAsc2Hex
                                        ; Call Occurs
        cmpi3     r4,r0
        subi      1,sp
        bne       L262
;*      Branch Occurs to L262 
        ldiu      1,r1
        ldiu      434,ir0
        ldiu      6,r0
        addi3     r1,*+fp(ir0),r1       ; Unsigned
        subri     @_nRxPos$9+0,r0
        push      r0
        push      r1
        call      _crc16_ccitt
                                        ; Call Occurs
        ldiu      434,ir0
        subi      2,sp
        ldiu      *+fp(ir0),ar0
        ldiu      r0,r4
        ldiu      *+ar0(244),r0
        and       15,r4
        push      r0
        call      _ConvAsc2Hex
                                        ; Call Occurs
        cmpi3     r4,r0
        subi      1,sp
        bne       L262
;*      Branch Occurs to L262 
	.line	139
;----------------------------------------------------------------------
; 949 | memset(m_Variable.m_btCommSt,0x00,sizeof(m_Variable.m_btCommSt));      
;----------------------------------------------------------------------
        ldiu      8,r0
        ldiu      0,r2
        ldiu      @CL3,r1
        push      r0
        push      r2
        push      r1
        call      _memset
                                        ; Call Occurs
        subi      3,sp
	.line	141
;----------------------------------------------------------------------
; 951 | pCommStatus_Lic = (COMMSTATUS_LIC *)m_Variable.m_btCommSt;             
;----------------------------------------------------------------------
        ldiu      438,ir0
        ldiu      @CL3,r0
        sti       r0,*+fp(ir0)
	.line	143
;----------------------------------------------------------------------
; 953 | m_Variable.m_TrainCofVal = TWOBYTE_ASC2HEX(pPa_PaBuf->sCCI); //// Â÷·®
;     | Áß·Ă »óĹÂ Á¤ş¸¸¦ Ŕü´Ţ.                                                 
;----------------------------------------------------------------------
        ldiu      434,ir0
        ldiu      *+fp(ir0),ar0
        ldiu      *+ar0(149),r0
        push      r0
        call      _ConvAsc2Hex
                                        ; Call Occurs
        ldiu      434,ir0
        subi      1,sp
        ldiu      r0,r4
        ldiu      *+fp(ir0),ar0
        ldiu      *+ar0(150),r0
        ash       4,r4
        push      r0
        call      _ConvAsc2Hex
                                        ; Call Occurs
        and       15,r0
        or3       r4,r0,r0
        and       255,r0
        sti       r0,@_m_Variable+337
        subi      1,sp
	.line	145
;----------------------------------------------------------------------
; 955 | if(m_Variable.m_TrainCofVal == 0x10 || m_Variable.m_TrainCofVal == 0x20
;     | )                                                                      
;----------------------------------------------------------------------
        cmpi      16,r0
        beq       L240
;*      Branch Occurs to L240 
        cmpi      32,r0
        bne       L241
;*      Branch Occurs to L241 
L240:        
	.line	147
;----------------------------------------------------------------------
; 957 | m_Variable.m_TrainCofVal = 0x01;                                       
;----------------------------------------------------------------------
        ldiu      1,r0
        sti       r0,@_m_Variable+337
L241:        
	.line	150
;----------------------------------------------------------------------
; 960 | m_Variable.m_btCiFaultVal = TWOBYTE_ASC2HEX(pPa_PaBuf->sCI_Fault); //CI
;     |  °íŔĺ Á¤ş¸.                                                            
; 962 | //MyPrintf("PAC - PAC / TrainCofVal : %02X -- CiFault : %02X -- CarPos
;     | : %02X \r\n ",m_Variable.m_TrainCofVal,m_Variable.m_btCiFaultVal,m_Vari
;     | able.m_nCarPos);                                                       
;----------------------------------------------------------------------
        ldiu      434,ir0
        ldiu      *+fp(ir0),ar0
        ldiu      *+ar0(147),r0
        push      r0
        call      _ConvAsc2Hex
                                        ; Call Occurs
        ldiu      434,ir0
        subi      1,sp
        ldiu      r0,r4
        ldiu      *+fp(ir0),ar0
        ldiu      *+ar0(148),r0
        ash       4,r4
        push      r0
        call      _ConvAsc2Hex
                                        ; Call Occurs
        and       15,r0
        or3       r4,r0,r0
        and       255,r0
        sti       r0,@_m_Variable+340
        subi      1,sp
	.line	155
;----------------------------------------------------------------------
; 965 | for(i=0;i<(WORD_L(m_Variable.m_TrainCofVal));i++)                      
;----------------------------------------------------------------------
        ldiu      0,r0
        sti       r0,*+fp(1)
        ldiu      255,r0
        and       @_m_Variable+337,r0
        ldiu      *+fp(1),r1
        cmpi3     r0,r1
        bge       L277
;*      Branch Occurs to L277 
L242:        
	.line	159
;----------------------------------------------------------------------
; 969 | FunConvAscHex((char *)&pPa_PaBuf->phCRA_Sta[i][9][0],&sCarNumBCD_H,1); 
;----------------------------------------------------------------------
        ldiu      *+fp(1),r0
        ldiu      434,ir0
        ldiu      1,r2
        ldiu      @CL77,r1
        mpyi      22,r0
        addi3     r0,*+fp(ir0),r0       ; Unsigned
        push      r2
        addi      169,r0                ; Unsigned
        push      r1
        push      r0
        call      _FunConvAscHex
                                        ; Call Occurs
        subi      3,sp
	.line	160
;----------------------------------------------------------------------
; 970 | FunConvAscHex((char *)&pPa_PaBuf->phCRA_Sta[i][10][0],&sCarNumBCD_L,1);
; 973 | //8·® ŔüĂĽ ÇÁ·ÎĹäÄÝżˇĽ­ ż­ąřŔ» ŔĚżëÇĎż© ÇöŔç ŔÚ˝ĹŔÇ Ŕ§Äˇ¸¦ Č®ŔÎ ÇŃ´Ů.  
;----------------------------------------------------------------------
        ldiu      434,ir0
        ldiu      *+fp(1),r0
        ldiu      1,r2
        ldiu      @CL78,r1
        mpyi      22,r0
        addi3     r0,*+fp(ir0),r0       ; Unsigned
        addi      171,r0                ; Unsigned
        push      r2
        push      r1
        push      r0
        call      _FunConvAscHex
                                        ; Call Occurs
        subi      3,sp
	.line	165
;----------------------------------------------------------------------
; 975 | if(DWORD_L(m_Variable.m_nCarNo) == MAKE_WORD(sCarNumBCD_H,sCarNumBCD_L)
;     | )                                                                      
; 977 |         // CI Ŕ§Äˇ Á¤ş¸ Č®ŔÎ.                                          
;----------------------------------------------------------------------
        ldiu      255,r0
        and       @_sCarNumBCD_L$13+0,r0
        ldiu      @_sCarNumBCD_H$12+0,r1
        ash       8,r1
        or3       r1,r0,r0
        ldiu      @_m_Variable+341,r1
        and       65535,r0
        and       65535,r1
        cmpi3     r0,r1
        bne       L260
;*      Branch Occurs to L260 
	.line	168
;----------------------------------------------------------------------
; 978 | if(m_Variable.m_chCarKind == 'A')      {m_Variable.m_nCarPos = (i*2)+1;
;     | }                                                                      
;----------------------------------------------------------------------
        ldiu      @_m_Variable+342,r0
        cmpi      65,r0
        bne       L245
;*      Branch Occurs to L245 
        ldiu      *+fp(1),r0
        mpyi      2,r0
        addi      1,r0
        sti       r0,@_m_Variable+338
        bu        L247
;*      Branch Occurs to L247 
L245:        
	.line	169
;----------------------------------------------------------------------
; 979 | else if(m_Variable.m_chCarKind == 'B') {m_Variable.m_nCarPos = (i*2)+2;
;     | }                                                                      
; 981 | //????????????????? 2013_5_2ŔĎ Č®ŔÎ                                    
;----------------------------------------------------------------------
        ldiu      @_m_Variable+342,r0
        cmpi      66,r0
        bne       L247
;*      Branch Occurs to L247 
        ldiu      *+fp(1),r0
        mpyi      2,r0
        addi      2,r0
        sti       r0,@_m_Variable+338
L247:        
	.line	172
;----------------------------------------------------------------------
; 982 | m_Variable.m_nCarPos_Re =MAKE_WORD(ConvAsc2Hex(pPa_PaBuf->sCI_Index[m_V
;     | ariable.m_nCarPos][0]),                                                
; 983 |                                     ConvAsc2Hex(pPa_PaBuf->sCI_Index[m_
;     | Variable.m_nCarPos][1]));                                              
;----------------------------------------------------------------------
        ldiu      @_m_Variable+338,r0
        ldiu      434,ir0
        ash       1,r0
        addi3     r0,*+fp(ir0),ar0      ; Unsigned
        ldiu      *+ar0(131),r0
        push      r0
        call      _ConvAsc2Hex
                                        ; Call Occurs
        ldiu      434,ir0
        ldiu      r0,r4
        ldiu      @_m_Variable+338,r0
        ash       8,r4
        subi      1,sp
        ash       1,r0
        addi3     r0,*+fp(ir0),ar0      ; Unsigned
        ldiu      *+ar0(132),r0
        push      r0
        call      _ConvAsc2Hex
                                        ; Call Occurs
        and       255,r0
        or3       r4,r0,r0
        and       65535,r0
        subi      1,sp
        sti       r0,@_m_Variable+339
	.line	175
;----------------------------------------------------------------------
; 985 | if( m_Variable.m_nCarPos !=  m_Variable.m_nCarPos_Re && m_Variable.m_nC
;     | arPos_Re)                                                              
;----------------------------------------------------------------------
        ldiu      @_m_Variable+338,r0
        cmpi      @_m_Variable+339,r0
        beq       L250
;*      Branch Occurs to L250 
        ldi       @_m_Variable+339,r0
        beq       L250
;*      Branch Occurs to L250 
	.line	177
;----------------------------------------------------------------------
; 987 | m_Variable.m_nCarPos =  m_Variable.m_nCarPos_Re;                       
;----------------------------------------------------------------------
        sti       r0,@_m_Variable+338
L250:        
	.line	180
;----------------------------------------------------------------------
; 990 | MyPrintf("PAC - PAC / TrainCofVal : %02X -- CiFault : %02X -- CarPos :
;     | %02X -- CarPosRe : %02X  \r\n ",                                       
; 991 |                     m_Variable.m_TrainCofVal,m_Variable.m_btCiFaultVal,
;     | m_Variable.m_nCarPos,m_Variable.m_nCarPos_Re);                         
; 1001 | //ŔÚ˝ĹŔÇ Ŕ§Äˇ¸¦ Č®ŔÎ ÇĎ°í »óĹÂ °ŞŔ» ŔĐľî żÂ´Ů.                         
;----------------------------------------------------------------------
        ldiu      @_m_Variable+339,r0
        push      r0
        ldiu      @_m_Variable+338,r1
        push      r1
        ldiu      @CL79,r0
        ldiu      @_m_Variable+340,r1
        push      r1
        ldiu      @_m_Variable+337,r1
        push      r1
        push      r0
        call      _MyPrintf
                                        ; Call Occurs
        subi      5,sp
	.line	192
;----------------------------------------------------------------------
; 1002 | FunConvAscHex((char *)&pPa_PaBuf->phCRA_Sta[i][0][0],btTmpBuf,22);     
;----------------------------------------------------------------------
        ldiu      22,r1
        ldiu      *+fp(1),r2
        ldiu      434,ir0
        mpyi      22,r2
        addi3     r2,*+fp(ir0),r2       ; Unsigned
        push      r1
        addi      151,r2                ; Unsigned
        ldiu      fp,r0
        addi      5,r0
        push      r0
        push      r2
        call      _FunConvAscHex
                                        ; Call Occurs
        subi      3,sp
	.line	194
;----------------------------------------------------------------------
; 1004 | pPac_Pac_Sta = (CRA_STATION *) btTmpBuf;                               
;----------------------------------------------------------------------
        ldiu      fp,r0
        ldiu      436,ir0
        addi      5,r0
        sti       r0,*+fp(ir0)
	.line	197
;----------------------------------------------------------------------
; 1007 | if(m_Variable.m_TrainCofVal)                                           
;----------------------------------------------------------------------
        ldi       @_m_Variable+337,r0
        beq       L255
;*      Branch Occurs to L255 
	.line	199
;----------------------------------------------------------------------
; 1009 | m_Variable.m_TrainCofVal =m_Variable.m_TrainCofVal - 1; // żěÁř ÇÁ·ÎĹäÄ
;     | Ý °ŞŔĚ 1 ´ő Ĺ©´Ů.                                                      
;----------------------------------------------------------------------
        ldiu      1,r0
        subri     @_m_Variable+337,r0
        sti       r0,@_m_Variable+337
	.line	201
;----------------------------------------------------------------------
; 1011 | m_Variable.m_TrainCofVal = MIN(3,m_Variable.m_TrainCofVal);            
;----------------------------------------------------------------------
        ldiu      3,r0
        cmpi      @_m_Variable+337,r0
        bge       L253
;*      Branch Occurs to L253 
        bu        L254
;*      Branch Occurs to L254 
L253:        
        ldiu      @_m_Variable+337,r0
L254:        
        sti       r0,@_m_Variable+337
L255:        
	.line	206
;----------------------------------------------------------------------
; 1016 | if(m_Variable.m_chCarKind == 'A')                                      
;----------------------------------------------------------------------
        ldiu      @_m_Variable+342,r0
        cmpi      65,r0
        bne       L258
;*      Branch Occurs to L258 
	.line	210
;----------------------------------------------------------------------
; 1020 | pCommStatus_Lic->BYTE_1.BIT.nCcp = pPac_Pac_Sta->CRA_2.BIT.sACCP1;     
;----------------------------------------------------------------------
        ldiu      436,ir0
        ldiu      438,ir1
        ldiu      8,r0
        ldiu      *+fp(ir0),ar1
        ldiu      *+fp(ir1),ar0
        and       *+ar1(1),r0
        ldiu      *ar0,r1
        lsh       -3,r0
        andn      1,r1
        and       1,r0
        or3       r1,r0,r0
        sti       r0,*ar0
	.line	211
;----------------------------------------------------------------------
; 1021 | pCommStatus_Lic->BYTE_3.BIT.nCncs = pPac_Pac_Sta->CRA_3.BIT.sACNCS;    
; 1022 | //pCommStatus_Lic->BYTE_1.BIT.nGps = pPac_Pac_Sta->CRA_2.BIT.sAGPS;    
;----------------------------------------------------------------------
        ldiu      *+fp(ir0),ar1
        ldiu      *+fp(ir1),ar0
        ldiu      1,r0
        ldiu      *+ar0(2),r1
        and       *+ar1(2),r0
        andn      4,r1
        ash       2,r0
        or3       r1,r0,r0
        sti       r0,*+ar0(2)
	.line	213
;----------------------------------------------------------------------
; 1023 | pCommStatus_Lic->BYTE_1.BIT.nLic = pPac_Pac_Sta->CRA_3.BIT.sALIC;      
;----------------------------------------------------------------------
        ldiu      *+fp(ir0),ar1
        ldiu      4,r0
        and       *+ar1(2),r0
        ldiu      *+fp(ir1),ar0
        lsh       -2,r0
        ldiu      *ar0,r1
        and       1,r0
        ash       5,r0
        andn      32,r1
        or3       r1,r0,r0
        sti       r0,*ar0
	.line	214
;----------------------------------------------------------------------
; 1024 | pCommStatus_Lic->BYTE_1.BIT.nPac = pPac_Pac_Sta->CRA_3.BIT.sAPAC;      
;----------------------------------------------------------------------
        ldiu      *+fp(ir0),ar1
        ldiu      8,r0
        and       *+ar1(2),r0
        ldiu      *+fp(ir1),ar0
        lsh       -3,r0
        ldiu      *ar0,r1
        and       1,r0
        andn      16,r1
        ash       4,r0
        or3       r1,r0,r0
        sti       r0,*ar0
	.line	215
;----------------------------------------------------------------------
; 1025 | pCommStatus_Lic->BYTE_1.BIT.nVoip = pPac_Pac_Sta->CRA_2.BIT.sAVOIP;    
;----------------------------------------------------------------------
        ldiu      *+fp(ir1),ar0
        ldiu      *+fp(ir0),ar1
        ldiu      *ar0,r1
        ldiu      4,r0
        and       *+ar1(1),r0
        lsh       -2,r0
        andn      8,r1
        and       1,r0
        ash       3,r0
        or3       r1,r0,r0
        sti       r0,*ar0
	.line	216
;----------------------------------------------------------------------
; 1026 | pCommStatus_Lic->BYTE_1.BIT.nVtx = pPac_Pac_Sta->CRA_3.BIT.sAVTX;      
; 1027 | //pCommStatus_Lic->BYTE_1.BIT.nWlr = pPac_Pac_Sta->CRA_2.BIT.sAWLR;    
;----------------------------------------------------------------------
        ldiu      *+fp(ir0),ar0
        ldiu      2,r0
        ldiu      438,ir0
        and       *+ar0(2),r0
        ldiu      *+fp(ir0),ar0
        lsh       -1,r0
        ldiu      *ar0,r1
        and       1,r0
        andn      4,r1
        ash       2,r0
        or3       r1,r0,r0
        sti       r0,*ar0
	.line	220
;----------------------------------------------------------------------
; 1030 | pCommStatus_Lic->BYTE_1.BIT.nFdi = pPac_Pac_Sta->CRA_4.BIT.sAFDI;      
;----------------------------------------------------------------------
        ldiu      436,ir0
        ldiu      *+fp(ir1),ar0
        ldiu      *ar0,r1
        ldiu      *+fp(ir0),ar1
        ldiu      4,r0
        and       *+ar1(3),r0
        lsh       -2,r0
        andn      64,r1
        and       1,r0
        ash       6,r0
        or3       r1,r0,r0
        sti       r0,*ar0
	.line	221
;----------------------------------------------------------------------
; 1031 | pCommStatus_Lic->BYTE_2.BIT.nPii1 = pPac_Pac_Sta->CRA_4.BIT.sAPII1;    
;----------------------------------------------------------------------
        ldiu      *+fp(ir0),ar1
        ldiu      2,r0
        and       *+ar1(3),r0
        lsh       -1,r0
        and       1,r0
        ldiu      *+fp(ir1),ar0
        ash       3,r0
        ldiu      *+ar0(1),r1
        andn      8,r1
        or3       r1,r0,r0
        sti       r0,*+ar0(1)
	.line	222
;----------------------------------------------------------------------
; 1032 | pCommStatus_Lic->BYTE_2.BIT.nPii2 = pPac_Pac_Sta->CRA_4.BIT.sAPII2;    
;----------------------------------------------------------------------
        ldiu      1,r0
        ldiu      *+fp(ir0),ar1
        ldiu      *+fp(ir1),ar0
        and       *+ar1(3),r0
        ldiu      *+ar0(1),r1
        ash       4,r0
        andn      16,r1
        or3       r1,r0,r0
        sti       r0,*+ar0(1)
	.line	223
;----------------------------------------------------------------------
; 1033 | pCommStatus_Lic->BYTE_1.BIT.nSdi1 = pPac_Pac_Sta->CRA_5.BIT.sASDI1;    
;----------------------------------------------------------------------
        ldiu      *+fp(ir0),ar1
        ldiu      8,r0
        and       *+ar1(4),r0
        lsh       -3,r0
        ldiu      *+fp(ir1),ar0
        and       1,r0
        ash       7,r0
        ldiu      *ar0,r1
        andn      128,r1
        or3       r1,r0,r0
        sti       r0,*ar0
	.line	224
;----------------------------------------------------------------------
; 1034 | pCommStatus_Lic->BYTE_2.BIT.nSdi2 = pPac_Pac_Sta->CRA_5.BIT.sASDI2;    
;----------------------------------------------------------------------
        ldiu      *+fp(ir1),ar0
        ldiu      *+fp(ir0),ar1
        ldiu      *+ar0(1),r1
        ldiu      4,r0
        and       *+ar1(4),r0
        lsh       -2,r0
        andn      1,r1
        and       1,r0
        or3       r1,r0,r0
        sti       r0,*+ar0(1)
	.line	225
;----------------------------------------------------------------------
; 1035 | pCommStatus_Lic->BYTE_2.BIT.nSdi3 = pPac_Pac_Sta->CRA_5.BIT.sASDI3;    
;----------------------------------------------------------------------
        ldiu      *+fp(ir1),ar0
        ldiu      *+fp(ir0),ar1
        ldiu      *+ar0(1),r1
        ldiu      2,r0
        and       *+ar1(4),r0
        lsh       -1,r0
        and       1,r0
        andn      2,r1
        ash       1,r0
        or3       r1,r0,r0
        sti       r0,*+ar0(1)
	.line	226
;----------------------------------------------------------------------
; 1036 | pCommStatus_Lic->BYTE_2.BIT.nSdi4 = pPac_Pac_Sta->CRA_5.BIT.sASDI4;    
;----------------------------------------------------------------------
        ldiu      *+fp(ir0),ar1
        ldiu      1,r0
        ldiu      *+fp(ir1),ar0
        and       *+ar1(4),r0
        ldiu      *+ar0(1),r1
        ash       2,r0
        andn      4,r1
        or3       r1,r0,r0
        sti       r0,*+ar0(1)
	.line	228
;----------------------------------------------------------------------
; 1038 | pCommStatus_Lic->BYTE_2.BIT.nPid1_1 = pPac_Pac_Sta->CRA_6.BIT.sAPID1_1;
;----------------------------------------------------------------------
        ldiu      *+fp(ir0),ar1
        ldiu      8,r0
        and       *+ar1(5),r0
        lsh       -3,r0
        and       1,r0
        ldiu      *+fp(ir1),ar0
        ash       5,r0
        ldiu      *+ar0(1),r1
        andn      32,r1
        or3       r1,r0,r0
        sti       r0,*+ar0(1)
	.line	229
;----------------------------------------------------------------------
; 1039 | pCommStatus_Lic->BYTE_2.BIT.nPid1_2 = pPac_Pac_Sta->CRA_6.BIT.sAPID1_2;
;----------------------------------------------------------------------
        ldiu      *+fp(ir0),ar1
        ldiu      4,r0
        and       *+ar1(5),r0
        lsh       -2,r0
        ldiu      *+fp(ir1),ar0
        and       1,r0
        ldiu      *+ar0(1),r1
        andn      64,r1
        ash       6,r0
        or3       r1,r0,r0
        sti       r0,*+ar0(1)
	.line	230
;----------------------------------------------------------------------
; 1040 | pCommStatus_Lic->BYTE_2.BIT.nPid1_3 = pPac_Pac_Sta->CRA_6.BIT.sAPID1_3;
;----------------------------------------------------------------------
        ldiu      *+fp(ir0),ar0
        ldiu      2,r0
        and       *+ar0(5),r0
        ldiu      438,ir0
        lsh       -1,r0
        ldiu      *+fp(ir0),ar0
        and       1,r0
        ldiu      *+ar0(1),r1
        andn      128,r1
        ash       7,r0
        or3       r1,r0,r0
        sti       r0,*+ar0(1)
	.line	231
;----------------------------------------------------------------------
; 1041 | pCommStatus_Lic->BYTE_3.BIT.nPid1_4 = pPac_Pac_Sta->CRA_6.BIT.sAPID1_4;
;----------------------------------------------------------------------
        ldiu      *+fp(ir1),ar0
        ldiu      436,ir0
        ldiu      1,r0
        ldiu      *+ar0(2),r1
        ldiu      *+fp(ir0),ar1
        andn      1,r1
        and       *+ar1(5),r0
        or3       r1,r0,r0
        sti       r0,*+ar0(2)
	.line	232
;----------------------------------------------------------------------
; 1042 | pCommStatus_Lic->BYTE_3.BIT.nPid2_1 = pPac_Pac_Sta->CRA_7.BIT.sAPID2_1;
; 1044 | //pCommStatus_Lic->BYTE_4.BIT.nDph = pPac_Pac_Sta->CRA_9.BIT.sADPH;    
; 1045 | //pCommStatus_Lic->BYTE_4.BIT.nDpo = pPac_Pac_Sta->CRA_9.BIT.sADPO;    
; 1046 | //pCommStatus_Lic->BYTE_4.BIT.nPei1 = pPac_Pac_Sta->CRA_7.BIT.sAPEI1;  
; 1047 | //pCommStatus_Lic->BYTE_4.BIT.nPei2 = pPac_Pac_Sta->CRA_7.BIT.sAPEI2;  
; 1051 | //pCommStatus_Lic->BYTE_1.BYTE = d_MDSFaulgTestBuf[0];                 
; 1052 | //pCommStatus_Lic->BYTE_2.BYTE = d_MDSFaulgTestBuf[1];                 
; 1053 | //pCommStatus_Lic->BYTE_3.BYTE = d_MDSFaulgTestBuf[2];                 
; 1054 | //pCommStatus_Lic->BYTE_4.BYTE = d_MDSFaulgTestBuf[3];                 
;----------------------------------------------------------------------
        ldiu      *+fp(ir0),ar0
        ldiu      8,r0
        and       *+ar0(6),r0
        lsh       -3,r0
        ldiu      438,ir0
        and       1,r0
        ldiu      *+fp(ir0),ar0
        ash       1,r0
        ldiu      *+ar0(2),r1
        andn      2,r1
        or3       r1,r0,r0
        sti       r0,*+ar0(2)
	.line	249
;----------------------------------------------------------------------
; 1059 | break;                                                                 
;----------------------------------------------------------------------
        bu        L277
;*      Branch Occurs to L277 
L258:        
	.line	251
;----------------------------------------------------------------------
; 1061 | else if(m_Variable.m_chCarKind == 'B') //ÇÁ·ÎĹäÄÝżˇ´Â MA ż­Â÷ ąřČŁ¸¸ ŔÖ
;     | Ŕ¸ąÇ·Î MB´Â ˝ş˝ş·Î ŔÎ˝Ä ÇŘľß ÇŃ´Ů.                                     
;----------------------------------------------------------------------
        ldiu      @_m_Variable+342,r0
        cmpi      66,r0
        bne       L260
;*      Branch Occurs to L260 
	.line	283
;----------------------------------------------------------------------
; 1093 | pCommStatus_Lic->BYTE_1.BIT.nCcp = pPac_Pac_Sta->CRA_2.BIT.sBCCP1;     
;----------------------------------------------------------------------
        ldiu      436,ir0
        ldiu      438,ir1
        ldiu      128,r0
        ldiu      *+fp(ir0),ar1
        ldiu      *+fp(ir1),ar0
        and       *+ar1(1),r0
        ldiu      *ar0,r1
        lsh       -7,r0
        andn      1,r1
        and       1,r0
        or3       r1,r0,r0
        sti       r0,*ar0
	.line	284
;----------------------------------------------------------------------
; 1094 | pCommStatus_Lic->BYTE_3.BIT.nCncs = pPac_Pac_Sta->CRA_3.BIT.sBCNCS;    
; 1095 | //pCommStatus_Lic->BYTE_1.BIT.nGps pPac_Pac_Sta->CRA_2.BIT.sBGPS;      
;----------------------------------------------------------------------
        ldiu      *+fp(ir0),ar1
        ldiu      *+fp(ir1),ar0
        ldiu      16,r0
        ldiu      *+ar0(2),r1
        and       *+ar1(2),r0
        lsh       -4,r0
        andn      4,r1
        and       1,r0
        ash       2,r0
        or3       r1,r0,r0
        sti       r0,*+ar0(2)
	.line	286
;----------------------------------------------------------------------
; 1096 | pCommStatus_Lic->BYTE_1.BIT.nLic = pPac_Pac_Sta->CRA_3.BIT.sBLIC;      
;----------------------------------------------------------------------
        ldiu      *+fp(ir0),ar1
        ldiu      64,r0
        and       *+ar1(2),r0
        lsh       -6,r0
        ldiu      *+fp(ir1),ar0
        and       1,r0
        ldiu      *ar0,r1
        ash       5,r0
        andn      32,r1
        or3       r1,r0,r0
        sti       r0,*ar0
	.line	287
;----------------------------------------------------------------------
; 1097 | pCommStatus_Lic->BYTE_1.BIT.nPac = pPac_Pac_Sta->CRA_3.BIT.sBPAC;      
;----------------------------------------------------------------------
        ldiu      *+fp(ir1),ar1
        ldiu      *+fp(ir0),ar0
        ldiu      128,r0
        and       *+ar0(2),r0
        lsh       -7,r0
        and       1,r0
        ldiu      *ar1,r1
        ash       4,r0
        andn      16,r1
        or3       r1,r0,r0
        sti       r0,*ar1
	.line	288
;----------------------------------------------------------------------
; 1098 | pCommStatus_Lic->BYTE_1.BIT.nVoip = pPac_Pac_Sta->CRA_2.BIT.sBVOIP;    
;----------------------------------------------------------------------
        ldiu      *+fp(ir0),ar0
        ldiu      64,r0
        ldiu      438,ir0
        and       *+ar0(1),r0
        ldiu      *+fp(ir0),ar0
        ldiu      *ar0,r1
        andn      8,r1
        lsh       -6,r0
        and       1,r0
        ash       3,r0
        or3       r1,r0,r0
        sti       r0,*ar0
	.line	289
;----------------------------------------------------------------------
; 1099 | pCommStatus_Lic->BYTE_1.BIT.nVtx = pPac_Pac_Sta->CRA_3.BIT.sBVTX;      
; 1100 | //pCommStatus_Lic->BYTE_1.BIT.nWlr pPac_Pac_Sta->CRA_2.BIT.sBWLR;      
;----------------------------------------------------------------------
        ldiu      436,ir0
        ldiu      32,r0
        ldiu      *+fp(ir0),ar0
        ldiu      438,ir0
        and       *+ar0(2),r0
        ldiu      *+fp(ir0),ar0
        ldiu      *ar0,r1
        andn      4,r1
        lsh       -5,r0
        and       1,r0
        ash       2,r0
        or3       r1,r0,r0
        sti       r0,*ar0
	.line	293
;----------------------------------------------------------------------
; 1103 | pCommStatus_Lic->BYTE_1.BIT.nFdi = pPac_Pac_Sta->CRA_4.BIT.sBFDI;      
;----------------------------------------------------------------------
        ldiu      436,ir0
        ldiu      64,r0
        ldiu      *+fp(ir0),ar0
        ldiu      438,ir0
        and       *+ar0(3),r0
        ldiu      *+fp(ir0),ar0
        lsh       -6,r0
        ldiu      *ar0,r1
        and       1,r0
        andn      64,r1
        ash       6,r0
        or3       r1,r0,r0
        sti       r0,*ar0
	.line	294
;----------------------------------------------------------------------
; 1104 | pCommStatus_Lic->BYTE_2.BIT.nPii1 = pPac_Pac_Sta->CRA_4.BIT.sBPII1;    
;----------------------------------------------------------------------
        ldiu      436,ir0
        ldiu      *+fp(ir0),ar1
        ldiu      32,r0
        and       *+ar1(3),r0
        ldiu      *+fp(ir1),ar0
        lsh       -5,r0
        ldiu      *+ar0(1),r1
        and       1,r0
        andn      8,r1
        ash       3,r0
        or3       r1,r0,r0
        sti       r0,*+ar0(1)
	.line	295
;----------------------------------------------------------------------
; 1105 | pCommStatus_Lic->BYTE_2.BIT.nPii2 = pPac_Pac_Sta->CRA_4.BIT.sBPII2;    
;----------------------------------------------------------------------
        ldiu      *+fp(ir1),ar0
        ldiu      *+fp(ir0),ar1
        ldiu      *+ar0(1),r1
        ldiu      16,r0
        and       *+ar1(3),r0
        lsh       -4,r0
        andn      16,r1
        and       1,r0
        ash       4,r0
        or3       r1,r0,r0
        sti       r0,*+ar0(1)
	.line	296
;----------------------------------------------------------------------
; 1106 | pCommStatus_Lic->BYTE_1.BIT.nSdi1 = pPac_Pac_Sta->CRA_5.BIT.sBSDI1;    
;----------------------------------------------------------------------
        ldiu      *+fp(ir0),ar1
        ldiu      128,r0
        and       *+ar1(4),r0
        ldiu      *+fp(ir1),ar0
        lsh       -7,r0
        ldiu      *ar0,r1
        and       1,r0
        andn      128,r1
        ash       7,r0
        or3       r1,r0,r0
        sti       r0,*ar0
	.line	297
;----------------------------------------------------------------------
; 1107 | pCommStatus_Lic->BYTE_2.BIT.nSdi2 = pPac_Pac_Sta->CRA_5.BIT.sBSDI2;    
;----------------------------------------------------------------------
        ldiu      *+fp(ir0),ar1
        ldiu      64,r0
        and       *+ar1(4),r0
        ldiu      *+fp(ir1),ar0
        lsh       -6,r0
        ldiu      *+ar0(1),r1
        and       1,r0
        andn      1,r1
        or3       r1,r0,r0
        sti       r0,*+ar0(1)
	.line	298
;----------------------------------------------------------------------
; 1108 | pCommStatus_Lic->BYTE_2.BIT.nSdi3 = pPac_Pac_Sta->CRA_5.BIT.sBSDI3;    
;----------------------------------------------------------------------
        ldiu      *+fp(ir0),ar1
        ldiu      32,r0
        and       *+ar1(4),r0
        lsh       -5,r0
        and       1,r0
        ldiu      *+fp(ir1),ar0
        ash       1,r0
        ldiu      *+ar0(1),r1
        andn      2,r1
        or3       r1,r0,r0
        sti       r0,*+ar0(1)
	.line	299
;----------------------------------------------------------------------
; 1109 | pCommStatus_Lic->BYTE_2.BIT.nSdi4 = pPac_Pac_Sta->CRA_5.BIT.sBSDI4;    
;----------------------------------------------------------------------
        ldiu      16,r0
        ldiu      *+fp(ir0),ar1
        ldiu      *+fp(ir1),ar0
        and       *+ar1(4),r0
        lsh       -4,r0
        and       1,r0
        ash       2,r0
        ldiu      *+ar0(1),r1
        andn      4,r1
        or3       r1,r0,r0
        sti       r0,*+ar0(1)
	.line	301
;----------------------------------------------------------------------
; 1111 | pCommStatus_Lic->BYTE_2.BIT.nPid1_1 = pPac_Pac_Sta->CRA_6.BIT.sBPID1_1;
;----------------------------------------------------------------------
        ldiu      *+fp(ir0),ar1
        ldiu      128,r0
        and       *+ar1(5),r0
        lsh       -7,r0
        and       1,r0
        ldiu      *+fp(ir1),ar0
        ash       5,r0
        ldiu      *+ar0(1),r1
        andn      32,r1
        or3       r1,r0,r0
        sti       r0,*+ar0(1)
	.line	302
;----------------------------------------------------------------------
; 1112 | pCommStatus_Lic->BYTE_2.BIT.nPid1_2 = pPac_Pac_Sta->CRA_6.BIT.sBPID1_2;
;----------------------------------------------------------------------
        ldiu      *+fp(ir0),ar0
        ldiu      64,r0
        ldiu      438,ir0
        and       *+ar0(5),r0
        ldiu      *+fp(ir0),ar0
        lsh       -6,r0
        ldiu      *+ar0(1),r1
        and       1,r0
        andn      64,r1
        ash       6,r0
        or3       r1,r0,r0
        sti       r0,*+ar0(1)
	.line	303
;----------------------------------------------------------------------
; 1113 | pCommStatus_Lic->BYTE_2.BIT.nPid1_3 = pPac_Pac_Sta->CRA_6.BIT.sBPID1_3;
;----------------------------------------------------------------------
        ldiu      436,ir0
        ldiu      *+fp(ir0),ar1
        ldiu      32,r0
        and       *+ar1(5),r0
        lsh       -5,r0
        ldiu      *+fp(ir1),ar0
        and       1,r0
        ldiu      *+ar0(1),r1
        andn      128,r1
        ash       7,r0
        or3       r1,r0,r0
        sti       r0,*+ar0(1)
	.line	304
;----------------------------------------------------------------------
; 1114 | pCommStatus_Lic->BYTE_3.BIT.nPid1_4 = pPac_Pac_Sta->CRA_6.BIT.sBPID1_4;
;----------------------------------------------------------------------
        ldiu      438,ir0
        ldiu      436,ir1
        ldiu      16,r0
        ldiu      *+fp(ir1),ar1
        ldiu      *+fp(ir0),ar0
        and       *+ar1(5),r0
        ldiu      *+ar0(2),r1
        lsh       -4,r0
        and       1,r0
        andn      1,r1
        or3       r1,r0,r0
        sti       r0,*+ar0(2)
	.line	305
;----------------------------------------------------------------------
; 1115 | pCommStatus_Lic->BYTE_3.BIT.nPid2_1 = pPac_Pac_Sta->CRA_7.BIT.sBPID2_1;
; 1117 | //pCommStatus_Lic->BYTE_4.BIT.nDph = pPac_Pac_Sta->CRA_9.BIT.sBDPH;    
; 1118 | //pCommStatus_Lic->BYTE_4.BIT.nDpo = pPac_Pac_Sta->CRA_9.BIT.sBDPO;    
; 1119 | //pCommStatus_Lic->BYTE_4.BIT.nPei1 = pPac_Pac_Sta->CRA_7.BIT.sBPEI1;  
; 1120 | //pCommStatus_Lic->BYTE_4.BIT.nPei2 = pPac_Pac_Sta->CRA_7.BIT.sBPEI2;  
;----------------------------------------------------------------------
        ldiu      436,ir0
        ldiu      *+fp(ir0),ar0
        ldiu      128,r0
        ldiu      438,ir0
        and       *+ar0(6),r0
        ldiu      *+fp(ir0),ar0
        lsh       -7,r0
        ldiu      *+ar0(2),r1
        and       1,r0
        andn      2,r1
        ash       1,r0
        or3       r1,r0,r0
        sti       r0,*+ar0(2)
	.line	312
;----------------------------------------------------------------------
; 1122 | break;                                                                 
; 1130 | else                                                                   
;----------------------------------------------------------------------
        bu        L277
;*      Branch Occurs to L277 
L260:        
	.line	155
        ldiu      1,r0
        addi      *+fp(1),r0
        sti       r0,*+fp(1)
        ldiu      255,r0
        ldiu      *+fp(1),r1
        and       @_m_Variable+337,r0
        cmpi3     r0,r1
        blt       L242
;*      Branch Occurs to L242 
        bu        L277
;*      Branch Occurs to L277 
L262:        
	.line	321
;----------------------------------------------------------------------
; 1131 | if(WORD_L(pCcp_Pac->phHdBuf.btSoh) == SOH &&  // CCP -> PAC żˇĽ­ »óĹÂ Á
;     | ¤ş¸¸¦ ĂßĂâÇŃ´Ů.                                                        
; 1132 |         WORD_L(pCcp_Pac->btEot) == EOT &&                              
; 1133 |         sizeof(CCP_PAC) == nRxPos &&                                   
; 1134 |         ((TWOBYTE_ASC2HEX(pCcp_Pac->phHdBuf.chSrcDev) == CCP_DEV_NO)||(
;     | TWOBYTE_ASC2HEX(pCcp_Pac->phHdBuf.chSrcDev) == CCP_BAKDEV_NO)) &&      
; 1135 |         //(TWOBYTE_ASC2HEX(pCcp_Pac->phHdBuf.chDestDev) == PAC_DEV_NO)&
;     | &                                                                      
; 1137 |         ConvAsc2Hex(pCcp_Pac->nCRC[0]) == BYTE_H(WORD_H(crc16_ccitt(&pC
;     | cp_Pac->phHdBuf.chSrcDev[0],nRxPos-6)))&&                              
; 1138 |         ConvAsc2Hex(pCcp_Pac->nCRC[1]) == BYTE_L(WORD_H(crc16_ccitt(&pC
;     | cp_Pac->phHdBuf.chSrcDev[0],nRxPos-6)))&&                              
; 1139 |         ConvAsc2Hex(pCcp_Pac->nCRC[2]) == BYTE_H(WORD_L(crc16_ccitt(&pC
;     | cp_Pac->phHdBuf.chSrcDev[0],nRxPos-6)))&&                              
; 1140 |         ConvAsc2Hex(pCcp_Pac->nCRC[3]) == BYTE_L(WORD_L(crc16_ccitt(&pC
;     | cp_Pac->phHdBuf.chSrcDev[0],nRxPos-6)))                                
; 1141 |         )                                                              
;----------------------------------------------------------------------
        ldiu      435,ir0
        ldiu      *+fp(ir0),ar0
        ldiu      255,r0
        and3      r0,*ar0,r0
        cmpi      1,r0
        bne       L277
;*      Branch Occurs to L277 
        ldiu      *+fp(ir0),ar0
        ldiu      255,r0
        and       *+ar0(155),r0
        cmpi      4,r0
        bne       L277
;*      Branch Occurs to L277 
        ldiu      156,r0
        cmpi      @_nRxPos$9+0,r0
        bne       L277
;*      Branch Occurs to L277 
        ldiu      *+fp(ir0),ar0
        ldiu      *+ar0(1),r0
        push      r0
        call      _ConvAsc2Hex
                                        ; Call Occurs
        ldiu      435,ir0
        subi      1,sp
        ldiu      r0,r4
        ldiu      *+fp(ir0),ar0
        ldiu      *+ar0(2),r0
        ash       4,r4
        push      r0
        call      _ConvAsc2Hex
                                        ; Call Occurs
        and       15,r0
        or3       r4,r0,r0
        and       255,r0
        cmpi      17,r0
        subi      1,sp
        beq       L267
;*      Branch Occurs to L267 
        ldiu      435,ir0
        ldiu      *+fp(ir0),ar0
        ldiu      *+ar0(1),r0
        push      r0
        call      _ConvAsc2Hex
                                        ; Call Occurs
        ldiu      435,ir0
        subi      1,sp
        ldiu      r0,r4
        ldiu      *+fp(ir0),ar0
        ldiu      *+ar0(2),r0
        ash       4,r4
        push      r0
        call      _ConvAsc2Hex
                                        ; Call Occurs
        and       15,r0
        or3       r4,r0,r0
        and       255,r0
        cmpi      18,r0
        subi      1,sp
        bne       L277
;*      Branch Occurs to L277 
L267:        
        ldiu      1,r0
        ldiu      435,ir0
        ldiu      6,r1
        addi3     r0,*+fp(ir0),r0       ; Unsigned
        subri     @_nRxPos$9+0,r1
        push      r1
        push      r0
        call      _crc16_ccitt
                                        ; Call Occurs
        ldiu      435,ir0
        ldiu      r0,r4
        subi      2,sp
        lsh       -8,r4
        ldiu      *+fp(ir0),ar0
        and       255,r4
        ldiu      *+ar0(151),r0
        lsh       -4,r4
        and       15,r4
        push      r0
        call      _ConvAsc2Hex
                                        ; Call Occurs
        cmpi3     r4,r0
        subi      1,sp
        bne       L277
;*      Branch Occurs to L277 
        ldiu      1,r1
        ldiu      435,ir0
        ldiu      6,r0
        addi3     r1,*+fp(ir0),r1       ; Unsigned
        subri     @_nRxPos$9+0,r0
        push      r0
        push      r1
        call      _crc16_ccitt
                                        ; Call Occurs
        subi      2,sp
        ldiu      435,ir0
        ldiu      r0,r4
        ldiu      *+fp(ir0),ar0
        ldiu      *+ar0(152),r0
        lsh       -8,r4
        push      r0
        and       15,r4
        call      _ConvAsc2Hex
                                        ; Call Occurs
        cmpi3     r4,r0
        subi      1,sp
        bne       L277
;*      Branch Occurs to L277 
        ldiu      1,r1
        ldiu      435,ir0
        ldiu      6,r0
        addi3     r1,*+fp(ir0),r1       ; Unsigned
        subri     @_nRxPos$9+0,r0
        push      r0
        push      r1
        call      _crc16_ccitt
                                        ; Call Occurs
        ldiu      435,ir0
        subi      2,sp
        ldiu      r0,r4
        ldiu      *+fp(ir0),ar0
        and       255,r4
        ldiu      *+ar0(153),r0
        lsh       -4,r4
        push      r0
        and       15,r4
        call      _ConvAsc2Hex
                                        ; Call Occurs
        cmpi3     r4,r0
        subi      1,sp
        bne       L277
;*      Branch Occurs to L277 
        ldiu      1,r1
        ldiu      435,ir0
        ldiu      6,r0
        addi3     r1,*+fp(ir0),r1       ; Unsigned
        subri     @_nRxPos$9+0,r0
        push      r0
        push      r1
        call      _crc16_ccitt
                                        ; Call Occurs
        ldiu      435,ir0
        subi      2,sp
        ldiu      *+fp(ir0),ar0
        ldiu      r0,r4
        ldiu      *+ar0(154),r1
        and       15,r4
        push      r1
        call      _ConvAsc2Hex
                                        ; Call Occurs
        cmpi3     r4,r0
        subi      1,sp
        bne       L277
;*      Branch Occurs to L277 
	.line	334
;----------------------------------------------------------------------
; 1144 | if(m_Variable.m_chCarKind == 'A')                                      
;----------------------------------------------------------------------
        ldiu      @_m_Variable+342,r0
        cmpi      65,r0
        bne       L274
;*      Branch Occurs to L274 
	.line	336
;----------------------------------------------------------------------
; 1146 | m_Variable.m_nCarPos_Re = MAKE_WORD(ConvAsc2Hex(pCcp_Pac->sCI_Index[0][
;     | 0]),                                                                   
; 1147 |                                     ConvAsc2Hex(pCcp_Pac->sCI_Index[0][
;     | 1]));                                                                  
;----------------------------------------------------------------------
        ldiu      435,ir0
        ldiu      *+fp(ir0),ar0
        ldiu      *+ar0(123),r0
        push      r0
        call      _ConvAsc2Hex
                                        ; Call Occurs
        ldiu      435,ir0
        subi      1,sp
        ldiu      r0,r4
        ldiu      *+fp(ir0),ar0
        ldiu      *+ar0(124),r0
        ash       8,r4
        push      r0
        call      _ConvAsc2Hex
                                        ; Call Occurs
        and       255,r0
        or3       r4,r0,r0
        and       65535,r0
        sti       r0,@_m_Variable+339
        subi      1,sp
	.line	339
;----------------------------------------------------------------------
; 1149 | if(m_Variable.m_nCarPos_Re)                                            
;----------------------------------------------------------------------
        beq       L277
;*      Branch Occurs to L277 
	.line	341
;----------------------------------------------------------------------
; 1151 | m_Variable.m_nCarPos = m_Variable.m_nCarPos_Re;                        
;----------------------------------------------------------------------
        sti       r0,@_m_Variable+338
        bu        L277
;*      Branch Occurs to L277 
L274:        
	.line	345
;----------------------------------------------------------------------
; 1155 | else if(m_Variable.m_chCarKind == 'B')                                 
;----------------------------------------------------------------------
        ldiu      @_m_Variable+342,r0
        cmpi      66,r0
        bne       L277
;*      Branch Occurs to L277 
	.line	347
;----------------------------------------------------------------------
; 1157 | m_Variable.m_nCarPos_Re = MAKE_WORD(ConvAsc2Hex(pCcp_Pac->sCI_Index[1][
;     | 0]),                                                                   
; 1158 | 
;     |  ConvAsc2Hex(pCcp_Pac->sCI_Index[1][1]));                              
;----------------------------------------------------------------------
        ldiu      435,ir0
        ldiu      *+fp(ir0),ar0
        ldiu      *+ar0(125),r0
        push      r0
        call      _ConvAsc2Hex
                                        ; Call Occurs
        ldiu      435,ir0
        subi      1,sp
        ldiu      r0,r4
        ldiu      *+fp(ir0),ar0
        ldiu      *+ar0(126),r0
        ash       8,r4
        push      r0
        call      _ConvAsc2Hex
                                        ; Call Occurs
        and       255,r0
        or3       r4,r0,r0
        and       65535,r0
        sti       r0,@_m_Variable+339
        subi      1,sp
	.line	350
;----------------------------------------------------------------------
; 1160 | if(m_Variable.m_nCarPos_Re)                                            
;----------------------------------------------------------------------
        beq       L277
;*      Branch Occurs to L277 
	.line	352
;----------------------------------------------------------------------
; 1162 | m_Variable.m_nCarPos = m_Variable.m_nCarPos_Re;                        
;----------------------------------------------------------------------
        sti       r0,@_m_Variable+338
L277:        
	.line	386
;----------------------------------------------------------------------
; 1196 | nOldUart3RxOneByteGapDelayTime = m_Variable.m_nUart3RxOneByteGapDelayTi
;     | me;                                                                    
;----------------------------------------------------------------------
        ldiu      @_m_Variable+290,r0
        sti       r0,@_nOldUart3RxOneByteGapDelayTime$10+0
	.line	387
        ldiu      *-fp(1),bk
        pop       r4
        ldiu      *fp,fp
        subi      440,sp
        bu        bk
;*      Branch Occurs to bk 
	.endfunc	1197,000000010h,438


	.sect	 ".text"

	.global	_GetLocalTimeToUTC
	.sym	_GetLocalTimeToUTC,_GetLocalTimeToUTC,36,2,0
	.func	1202
;******************************************************************************
;* FUNCTION NAME: _GetLocalTimeToUTC                                          *
;*                                                                            *
;*   Architecture       : TMS320C30                                           *
;*   Calling Convention : Stack Parameter Convention                          *
;*   Function Uses Regs : r0,r1,r4,ar0,ar1,fp,sp,st                           *
;*   Regs Saved         : r4                                                  *
;*   Stack Frame        : Full (w/ debug)                                     *
;*   Total Frame Size   : 2 Call + 3 Parm + 5 Auto + 1 SOE = 11 words         *
;******************************************************************************
_GetLocalTimeToUTC:
	.sym	_pLocal,-2,24,9,32,.fake7
	.sym	_nHour,-3,4,9,32
	.sym	_pUTC,-4,24,9,32,.fake7
	.sym	_nHourT,1,4,1,32
	.sym	_nDayT,2,4,1,32
	.sym	_nLastDays,3,4,1,32
	.sym	_nMonthT,4,4,1,32
	.sym	_nYearT,5,4,1,32
	.line	1
;----------------------------------------------------------------------
; 1202 | BOOL GetLocalTimeToUTC( DATE_TIME_PTR pLocal, int nHour, DATE_TIME_PTR
;     | pUTC )                                                                 
;----------------------------------------------------------------------
        push      fp
        ldiu      sp,fp
        addi      5,sp
        push      r4
	.line	2
;----------------------------------------------------------------------
; 1204 | // ˝Ă°ŁŔ» °č»ęÇĎ´Â şÎşĐ.                                               
;----------------------------------------------------------------------
	.line	4
;----------------------------------------------------------------------
; 1205 | int nHourT = pLocal->hour - nHour;                                     
;----------------------------------------------------------------------
        ldiu      *-fp(2),ar0
        ldiu      *-fp(3),r0
        subri     *+ar0(2),r0           ; Unsigned
        sti       r0,*+fp(1)
	.line	5
;----------------------------------------------------------------------
; 1206 | int nDayT = pLocal->day;                                               
;----------------------------------------------------------------------
        ldiu      *+ar0(3),r0
        sti       r0,*+fp(2)
	.line	6
;----------------------------------------------------------------------
; 1207 | int nLastDays = GetDaysOfMonth( pLocal->month, pLocal->year );
;     |                                                                        
;     |                                                                        
;----------------------------------------------------------------------
        ldiu      ar0,ar1
        ldiu      *+ar0(4),r1
        ldiu      *+ar1(5),r0
        push      r0
        push      r1
        call      _GetDaysOfMonth
                                        ; Call Occurs
        subi      2,sp
        sti       r0,*+fp(3)
	.line	7
;----------------------------------------------------------------------
; 1208 | int nMonthT = pLocal->month;                                           
;----------------------------------------------------------------------
        ldiu      *-fp(2),ar0
        ldiu      *+ar0(4),r0
        sti       r0,*+fp(4)
	.line	8
;----------------------------------------------------------------------
; 1209 | int nYearT = 2000 + pLocal->year;                                      
; 1211 | // ˝Ă°Ł Á¤ş¸¸¦ ±¸ÇĎ´Â şÎşĐ.                                            
;----------------------------------------------------------------------
        ldiu      2000,r0
        addi      *+ar0(5),r0           ; Unsigned
        sti       r0,*+fp(5)
	.line	11
;----------------------------------------------------------------------
; 1212 | if(nHourT < 0 ) {                                                      
;----------------------------------------------------------------------
        ldi       *+fp(1),r0
        bge       L282
;*      Branch Occurs to L282 
	.line	12
;----------------------------------------------------------------------
; 1213 | nHourT += 24;                                                          
;----------------------------------------------------------------------
        ldiu      24,r0
        addi      *+fp(1),r0
        sti       r0,*+fp(1)
	.line	13
;----------------------------------------------------------------------
; 1214 | nDayT += -1;                                                           
;----------------------------------------------------------------------
        ldiu      1,r0
        subri     *+fp(2),r0
        sti       r0,*+fp(2)
        bu        L284
;*      Branch Occurs to L284 
L282:        
	.line	15
;----------------------------------------------------------------------
; 1216 | else if( 24 <= nHourT ) {                                              
;----------------------------------------------------------------------
        ldiu      24,r0
        cmpi      *+fp(1),r0
        bgt       L284
;*      Branch Occurs to L284 
	.line	16
;----------------------------------------------------------------------
; 1217 | nHourT -= 24;                                                          
;----------------------------------------------------------------------
        subri     *+fp(1),r0
        sti       r0,*+fp(1)
	.line	17
;----------------------------------------------------------------------
; 1218 | nDayT += 1;                                                            
; 1221 | // ŔĎŔÚ¸¦ ±¸ÇĎ´Â şÎşĐ.                                                 
; 1222 | // ˝Ă°ŁŔ» °č»ęÇĎż© ŔĎŔÚ¸¦ şŻ°ćÇŘľßÇĎ´Â °ćżě.                           
;----------------------------------------------------------------------
        ldiu      1,r0
        addi      *+fp(2),r0
        sti       r0,*+fp(2)
L284:        
	.line	22
;----------------------------------------------------------------------
; 1223 | if(nDayT < 1)
;     |                                                                        
;     |                                                                        
;     |                                                                        
;----------------------------------------------------------------------
        ldi       *+fp(2),r0
        bgt       L287
;*      Branch Occurs to L287 
	.line	24
;----------------------------------------------------------------------
; 1225 | nDayT = GetDaysOfMonth( nMonthT, nYearT );                             
;----------------------------------------------------------------------
        ldiu      *+fp(5),r0
        push      r0
        ldiu      *+fp(4),r0
        push      r0
        call      _GetDaysOfMonth
                                        ; Call Occurs
        subi      2,sp
        sti       r0,*+fp(2)
	.line	26
;----------------------------------------------------------------------
; 1227 | if(--nMonthT < 1)                                                      
;----------------------------------------------------------------------
        ldiu      1,r0
        subri     *+fp(4),r0
        bgtd      L290
        sti       r0,*+fp(4)
	nop
        ldile     1,r0
;*      Branch Occurs to L290 
	.line	28
;----------------------------------------------------------------------
; 1229 | nYearT--;                                                              
;----------------------------------------------------------------------
        subri     *+fp(5),r0
        sti       r0,*+fp(5)
	.line	29
;----------------------------------------------------------------------
; 1230 | nMonthT = 12;                                                          
;----------------------------------------------------------------------
        ldiu      12,r0
        sti       r0,*+fp(4)
        bu        L290
;*      Branch Occurs to L290 
L287:        
	.line	32
;----------------------------------------------------------------------
; 1233 | else if(nLastDays < nDayT)                                             
;----------------------------------------------------------------------
        ldiu      *+fp(3),r0
        cmpi      *+fp(2),r0
        bge       L290
;*      Branch Occurs to L290 
	.line	34
;----------------------------------------------------------------------
; 1235 | nDayT = 1;                                                             
;----------------------------------------------------------------------
        ldiu      1,r0
        sti       r0,*+fp(2)
	.line	36
;----------------------------------------------------------------------
; 1237 | if(12 < ++nMonthT)                                                     
;----------------------------------------------------------------------
        ldiu      12,r1
        addi      *+fp(4),r0
        cmpi3     r0,r1
        bged      L290
        sti       r0,*+fp(4)
	nop
        ldilt     1,r0
;*      Branch Occurs to L290 
	.line	38
;----------------------------------------------------------------------
; 1239 | nYearT++;                                                              
;----------------------------------------------------------------------
        addi      *+fp(5),r0
        sti       r0,*+fp(5)
	.line	39
;----------------------------------------------------------------------
; 1240 | nMonthT = 1;                                                           
; 1244 | // °č»ęµČ ˝ĂşĐĂĘ Á¤ş¸¸¦ UTC ˝Ă°ŁŔ¸·Î ŔĚµż˝ĂĹ°´Â şÎşĐ.                  
;----------------------------------------------------------------------
        ldiu      1,r0
        sti       r0,*+fp(4)
L290:        
	.line	44
;----------------------------------------------------------------------
; 1245 | pUTC->second = pLocal->second;                                         
;----------------------------------------------------------------------
        ldiu      *-fp(2),ar0
        ldiu      *-fp(4),ar1
        ldiu      *ar0,r0
        sti       r0,*ar1
	.line	45
;----------------------------------------------------------------------
; 1246 | pUTC->minute = pLocal->minute;                                         
;----------------------------------------------------------------------
        ldiu      *-fp(2),ar1
        ldiu      *-fp(4),ar0
        ldiu      *+ar1(1),r0
        sti       r0,*+ar0(1)
	.line	46
;----------------------------------------------------------------------
; 1247 | pUTC->hour = nHourT;                                                   
;----------------------------------------------------------------------
        ldiu      *-fp(4),ar0
        ldiu      *+fp(1),r0
        sti       r0,*+ar0(2)
	.line	47
;----------------------------------------------------------------------
; 1248 | pUTC->day = nDayT;                                                     
;----------------------------------------------------------------------
        ldiu      *-fp(4),ar0
        ldiu      *+fp(2),r0
        sti       r0,*+ar0(3)
	.line	48
;----------------------------------------------------------------------
; 1249 | pUTC->month = nMonthT;                                                 
;----------------------------------------------------------------------
        ldiu      *-fp(4),ar0
        ldiu      *+fp(4),r0
        sti       r0,*+ar0(4)
	.line	49
;----------------------------------------------------------------------
; 1250 | pUTC->year = nYearT - 2000;                                            
; 1252 | return      (( 10 <= pUTC->year ) &&
;     |                                                                        
;     |                                   // 10łâ ŔĚ»ó                         
; 1253 |                         (( 1 <= pUTC->month ) && ( pUTC->month <= 12 ))
;     |  &&                                                                    
;     |                   // żů                                                
; 1254 |                         (( 1 <= pUTC->day )   && ( pUTC->day <= GetDays
;     | OfMonth(nMonthT, nYearT) )) &&                           // ŔĎ         
; 1255 |                         (( 0 <= pUTC->hour )  && ( pUTC->hour < 24 ))
;     |  &&                                                                    
;     |                   // ˝Ă                                                
; 1256 |                         (( 0 <= pUTC->minute) && ( pUTC->minute < 60 ))
;     |  &&                                                                    
;     |                   // şĐ                                                
;----------------------------------------------------------------------
        ldiu      2000,r0
        ldiu      *-fp(4),ar0
        subri     *+fp(5),r0            ; Unsigned
        sti       r0,*+ar0(5)
	.line	56
;----------------------------------------------------------------------
; 1257 | (( 0 <= pUTC->second) && ( pUTC->second < 60 )));
;     |                                                                  // ĂĘ 
;----------------------------------------------------------------------
        ldiu      *-fp(4),ar0
        ldiu      10,r0
        cmpi      *+ar0(5),r0
        ldiu      0,r4
        bhi       L301
;*      Branch Occurs to L301 
        ldiu      1,r0
        cmpi      *+ar0(4),r0
        bhi       L301
;*      Branch Occurs to L301 
        ldiu      *+ar0(4),r0
        cmpi      12,r0
        bhi       L301
;*      Branch Occurs to L301 
        ldiu      1,r0
        cmpi      *+ar0(3),r0
        bhi       L301
;*      Branch Occurs to L301 
        ldiu      *+fp(5),r0
        push      r0
        ldiu      *+fp(4),r0
        push      r0
        call      _GetDaysOfMonth
                                        ; Call Occurs
        subi      2,sp
        ldiu      *-fp(4),ar0
        ldiu      *+ar0(3),r1
        cmpi3     r0,r1
        bhi       L301
;*      Branch Occurs to L301 
        ldiu      0,r0
        cmpi      *+ar0(2),r0
        bhi       L301
;*      Branch Occurs to L301 
        ldiu      *+ar0(2),r0
        cmpi      24,r0
        bhs       L301
;*      Branch Occurs to L301 
        ldiu      0,r0
        cmpi3     *+ar0,r0
        bhi       L301
;*      Branch Occurs to L301 
        ldiu      *+ar0(1),r0
        cmpi      60,r0
        bhs       L301
;*      Branch Occurs to L301 
        ldiu      0,r0
        cmpi3     *ar0,r0
        bhi       L301
;*      Branch Occurs to L301 
        ldiu      *ar0,r0
        cmpi      60,r0
        ldilo     1,r4
L301:        
	.line	57
        ldiu      r4,r0
        ldiu      *-fp(1),bk
        pop       r4
        ldiu      *fp,fp
        subi      7,sp
        bu        bk
;*      Branch Occurs to bk 
	.endfunc	1258,000000010h,5


	.sect	 ".text"

	.global	_IsLeapYear
	.sym	_IsLeapYear,_IsLeapYear,36,2,0
	.func	1263
;******************************************************************************
;* FUNCTION NAME: _IsLeapYear                                                 *
;*                                                                            *
;*   Architecture       : TMS320C30                                           *
;*   Calling Convention : Stack Parameter Convention                          *
;*   Function Uses Regs : r0,r1,st                                            *
;*   Regs Saved         :                                                     *
;*   Stack Frame        : Full (w/ debug)                                     *
;*   Total Frame Size   : 2 Call + 1 Parm + 0 Auto + 0 SOE = 3 words          *
;******************************************************************************
_IsLeapYear:
	.sym	_nYear,-2,4,9,32
	.line	1
;----------------------------------------------------------------------
; 1263 | int IsLeapYear( int nYear )
;     |                  // Ŕ±łâ Á¤ş¸¸¦ ±¸ÇĎ´Â şÎşĐ.                           
;----------------------------------------------------------------------
        push      fp
        ldiu      sp,fp
	.line	2
	.line	3
;----------------------------------------------------------------------
; 1265 | if( nYear % 400 == 0 )                                                 
;----------------------------------------------------------------------
        ldiu      400,r1
        ldiu      *-fp(2),r0
        call      MOD_I30
                                        ; Call Occurs
        cmpi      0,r0
        bne       L306
;*      Branch Occurs to L306 
	.line	4
;----------------------------------------------------------------------
; 1266 | return 1;                                                              
;----------------------------------------------------------------------
        bud       L311
	nop
	nop
        ldiu      1,r0
;*      Branch Occurs to L311 
L306:        
	.line	6
;----------------------------------------------------------------------
; 1268 | if( nYear % 100 == 0 )                                                 
;----------------------------------------------------------------------
        ldiu      *-fp(2),r0
        ldiu      100,r1
        call      MOD_I30
                                        ; Call Occurs
        cmpi      0,r0
        bne       L308
;*      Branch Occurs to L308 
	.line	7
;----------------------------------------------------------------------
; 1269 | return 0;                                                              
;----------------------------------------------------------------------
        bud       L311
	nop
	nop
        ldiu      0,r0
;*      Branch Occurs to L311 
L308:        
	.line	9
;----------------------------------------------------------------------
; 1271 | if( nYear % 4 == 0 )                                                   
;----------------------------------------------------------------------
        ldiu      *-fp(2),r1
        ldiu      r1,r0
        ash       -1,r0
        lsh       @CL80,r0
        addi3     r0,r1,r0
        andn      3,r0
        subri     r1,r0
        bne       L310
;*      Branch Occurs to L310 
	.line	10
;----------------------------------------------------------------------
; 1272 | return 1;                                                              
;----------------------------------------------------------------------
        bud       L311
	nop
	nop
        ldiu      1,r0
;*      Branch Occurs to L311 
L310:        
	.line	12
;----------------------------------------------------------------------
; 1274 | return 0;                                                              
;----------------------------------------------------------------------
        ldiu      0,r0
L311:        
	.line	13
        ldiu      *-fp(1),ar1
        ldiu      *fp,fp
        subi      2,sp
        bu        ar1
;*      Branch Occurs to ar1 
	.endfunc	1275,000000000h,0


	.sect	 ".text"

	.global	_GetDaysOfMonth
	.sym	_GetDaysOfMonth,_GetDaysOfMonth,36,2,0
	.func	1277
;******************************************************************************
;* FUNCTION NAME: _GetDaysOfMonth                                             *
;*                                                                            *
;*   Architecture       : TMS320C30                                           *
;*   Calling Convention : Stack Parameter Convention                          *
;*   Function Uses Regs : r0,ar0,fp,ir0,sp,st                                 *
;*   Regs Saved         :                                                     *
;*   Stack Frame        : Full (w/ debug)                                     *
;*   Total Frame Size   : 2 Call + 2 Parm + 1 Auto + 0 SOE = 5 words          *
;******************************************************************************
_GetDaysOfMonth:
	.sym	_nMonth,-2,4,9,32
	.sym	_nYear,-3,4,9,32
	.sym	_nDays,1,4,1,32
	.line	1
;----------------------------------------------------------------------
; 1277 | int GetDaysOfMonth( int nMonth, int nYear )
;     |  // ´ŢŔÇ ¸¶Áö¸· ŔĎŔÚ¸¦ ±¸ÇĎ´Â şÎşĐ.                                    
;----------------------------------------------------------------------
        push      fp
        ldiu      sp,fp
	.line	2
	.line	4
;----------------------------------------------------------------------
; 1280 | int nDays = 0;                                                         
; 1282 | switch( nMonth )                                                       
; 1284 | case 1 :
;     |                                  // 31Ŕ» ¸¶Áö¸· łŻ´Ţ                   
; 1285 | case 3 :                                                               
; 1286 | case 5 :                                                               
; 1287 | case 7 :                                                               
; 1288 | case 8 :                                                               
; 1289 | case 10 :                                                              
; 1290 | case 12 :                                                              
;----------------------------------------------------------------------
        bud       L319
        addi      1,sp
        ldiu      0,r0
        sti       r0,*+fp(1)
;*      Branch Occurs to L319 
L314:        
	.line	15
;----------------------------------------------------------------------
; 1291 | nDays = 31;                                                            
;----------------------------------------------------------------------
        ldiu      31,r0
        sti       r0,*+fp(1)
	.line	16
;----------------------------------------------------------------------
; 1292 | break;                                                                 
; 1293 | case 2 :                                                               
;----------------------------------------------------------------------
        bu        L321
;*      Branch Occurs to L321 
L315:        
	.line	18
;----------------------------------------------------------------------
; 1294 | nDays = 28;                                                            
;----------------------------------------------------------------------
        ldiu      28,r0
        sti       r0,*+fp(1)
	.line	19
;----------------------------------------------------------------------
; 1295 | if( IsLeapYear( nYear ) )
;     |          // Ŕ±łâŔ» °č»ęÇĎż©, Ŕ±´ŢŔĎ °ćżě, +1                           
;----------------------------------------------------------------------
        ldiu      *-fp(3),r0
        push      r0
        call      _IsLeapYear
                                        ; Call Occurs
        cmpi      0,r0
        subi      1,sp
        beq       L321
;*      Branch Occurs to L321 
	.line	20
;----------------------------------------------------------------------
; 1296 | nDays += 1;                                                            
;----------------------------------------------------------------------
        ldiu      1,r0
        addi      *+fp(1),r0
        sti       r0,*+fp(1)
	.line	21
;----------------------------------------------------------------------
; 1297 | break;                                                                 
; 1298 | case 4 :
;     |                                  // 30Ŕ» ¸¶Áö¸· łŻ´Ţ                   
; 1299 | case 6 :                                                               
; 1300 | case 9 :                                                               
; 1301 | case 11 :                                                              
;----------------------------------------------------------------------
        bu        L321
;*      Branch Occurs to L321 
L317:        
	.line	26
;----------------------------------------------------------------------
; 1302 | nDays = 30;                                                            
;----------------------------------------------------------------------
        ldiu      30,r0
        sti       r0,*+fp(1)
	.line	27
;----------------------------------------------------------------------
; 1303 | break;                                                                 
;----------------------------------------------------------------------
        bu        L321
;*      Branch Occurs to L321 
L319:        
	.line	6
        ldiu      1,r0
        ldiu      *-fp(2),ir0
        subri     ir0,r0
        cmpi      11,r0
        bhi       L321
;*      Branch Occurs to L321 
        subi      1,ir0
        ldiu      @CL81,ar0
        ldiu      *+ar0(ir0),r0
        bu        r0

	.sect	".text"
SW0:	.word	L314	; 1
	.word	L315	; 2
	.word	L314	; 3
	.word	L317	; 4
	.word	L314	; 5
	.word	L317	; 6
	.word	L314	; 7
	.word	L314	; 8
	.word	L317	; 9
	.word	L314	; 10
	.word	L317	; 11
	.word	L314	; 12
	.sect	".text"
;*      Branch Occurs to r0 
L321:        
	.line	30
;----------------------------------------------------------------------
; 1306 | return nDays;                                                          
;----------------------------------------------------------------------
        ldiu      *+fp(1),r0
	.line	31
        ldiu      *-fp(1),bk
        ldiu      *fp,fp
        subi      3,sp
        bu        bk
;*      Branch Occurs to bk 
	.endfunc	1307,000000000h,1


	.sect	 ".text"

	.global	_user_CarNoForCarKindToLon
	.sym	_user_CarNoForCarKindToLon,_user_CarNoForCarKindToLon,32,2,0
	.func	1313
;******************************************************************************
;* FUNCTION NAME: _user_CarNoForCarKindToLon                                  *
;*                                                                            *
;*   Architecture       : TMS320C30                                           *
;*   Calling Convention : Stack Parameter Convention                          *
;*   Function Uses Regs : r0                                                  *
;*   Regs Saved         :                                                     *
;*   Stack Frame        : Full (w/ debug)                                     *
;*   Total Frame Size   : 2 Call + 0 Parm + 0 Auto + 0 SOE = 2 words          *
;******************************************************************************
_user_CarNoForCarKindToLon:
	.line	1
;----------------------------------------------------------------------
; 1313 | void user_CarNoForCarKindToLon()                                       
;----------------------------------------------------------------------
        push      fp
        ldiu      sp,fp
	.line	3
;----------------------------------------------------------------------
; 1315 | m_Variable.m_nCarKindToLonCnt = 0;                                     
;----------------------------------------------------------------------
        ldiu      0,r0
        sti       r0,@_m_Variable+343
	.line	4
        ldiu      *-fp(1),r1
        ldiu      *fp,fp
        subi      2,sp
        bu        r1
;*      Branch Occurs to r1 
	.endfunc	1316,000000000h,0


	.sect	 ".text"

	.global	_user_1msLoop
	.sym	_user_1msLoop,_user_1msLoop,32,2,0
	.func	1322
;******************************************************************************
;* FUNCTION NAME: _user_1msLoop                                               *
;*                                                                            *
;*   Architecture       : TMS320C30                                           *
;*   Calling Convention : Stack Parameter Convention                          *
;*   Function Uses Regs : r0,st                                               *
;*   Regs Saved         :                                                     *
;*   Stack Frame        : Full (w/ debug)                                     *
;*   Total Frame Size   : 2 Call + 0 Parm + 0 Auto + 0 SOE = 2 words          *
;******************************************************************************
_user_1msLoop:
	.line	1
;----------------------------------------------------------------------
; 1322 | void user_1msLoop()                                                    
;----------------------------------------------------------------------
        push      fp
        ldiu      sp,fp
	.line	3
;----------------------------------------------------------------------
; 1324 | m_Variable.m_nTxDbg1msTimer++;                                         
;----------------------------------------------------------------------
        ldiu      1,r0
        addi      @_m_Variable+351,r0   ; Unsigned
        sti       r0,@_m_Variable+351
	.line	4
;----------------------------------------------------------------------
; 1325 | m_Variable.m_nUserDebug1msTimer++;                                     
;----------------------------------------------------------------------
        ldiu      1,r0
        addi      @_m_Variable+291,r0   ; Unsigned
        sti       r0,@_m_Variable+291
	.line	6
;----------------------------------------------------------------------
; 1327 | m_Variable.m_nTest1msTimer++;                                          
;----------------------------------------------------------------------
        ldiu      1,r0
        addi      @_m_Variable+292,r0   ; Unsigned
        sti       r0,@_m_Variable+292
	.line	9
;----------------------------------------------------------------------
; 1330 | if(m_Variable.m_nUart2RxOneByteGapDelayTime) m_Variable.m_nUart2RxOneBy
;     | teGapDelayTime--;                                                      
;----------------------------------------------------------------------
        ldi       @_m_Variable+289,r0
        beq       L329
;*      Branch Occurs to L329 
        ldiu      1,r0
        subri     @_m_Variable+289,r0   ; Unsigned
        sti       r0,@_m_Variable+289
L329:        
	.line	10
;----------------------------------------------------------------------
; 1331 | if(m_Variable.m_nUart3RxOneByteGapDelayTime) m_Variable.m_nUart3RxOneBy
;     | teGapDelayTime--;                                                      
;----------------------------------------------------------------------
        ldi       @_m_Variable+290,r0
        beq       L331
;*      Branch Occurs to L331 
        ldiu      1,r0
        subri     @_m_Variable+290,r0   ; Unsigned
        sti       r0,@_m_Variable+290
L331:        
	.line	12
;----------------------------------------------------------------------
; 1333 | if(m_Variable.m_nGiaRxCheck1msTimer) m_Variable.m_nGiaRxCheck1msTimer--
;     | ;                                                                      
;----------------------------------------------------------------------
        ldi       @_m_Variable+430,r0
        beq       L333
;*      Branch Occurs to L333 
        ldiu      1,r0
        subri     @_m_Variable+430,r0   ; Unsigned
        sti       r0,@_m_Variable+430
L333:        
	.line	14
;----------------------------------------------------------------------
; 1335 | if(m_Variable.m_nCncsRxCheck1msTimer) m_Variable.m_nCncsRxCheck1msTimer
;     | --;                                                                    
;----------------------------------------------------------------------
        ldi       @_m_Variable+429,r0
        beq       L335
;*      Branch Occurs to L335 
        ldiu      1,r0
        subri     @_m_Variable+429,r0   ; Unsigned
        sti       r0,@_m_Variable+429
L335:        
	.line	18
        ldiu      *-fp(1),r1
        ldiu      *fp,fp
        subi      2,sp
        bu        r1
;*      Branch Occurs to r1 
	.endfunc	1339,000000000h,0



	.global	_d_MDSFaulgTestBuf
	.bss	_d_MDSFaulgTestBuf,10
	.sym	_d_MDSFaulgTestBuf,_d_MDSFaulgTestBuf,52,2,320,,10

	.global	_m_Variable
	.bss	_m_Variable,439
	.sym	_m_Variable,_m_Variable,8,2,14048,.fake69
;******************************************************************************
;* STRINGS                                                                    *
;******************************************************************************
	.sect	".const"
SL1:	.byte	"Lonwork Monitor Program, Version:%d.%d%d%d",13,10,0
SL2:	.byte	"CCP",0
SL3:	.byte	"CRA-LICL",0
SL4:	.byte	"CRA-VTX",0
SL5:	.byte	"CRA-VOIP",0
SL6:	.byte	"CRA-PAC",0
SL7:	.byte	"CRA-LICM",0
SL8:	.byte	"FDI1",0
SL9:	.byte	"SDI1",0
SL10:	.byte	"SDI2",0
SL11:	.byte	"SDI3",0
SL12:	.byte	"SDI4",0
SL13:	.byte	"PII1",0
SL14:	.byte	"PII2",0
SL15:	.byte	"VRX1",0
SL16:	.byte	"VRX2",0
SL17:	.byte	"VRX3",0
SL18:	.byte	"VRX4",0
SL19:	.byte	"VRX5",0
SL20:	.byte	"CRA-MAIN",0
SL21:	.byte	"CRA-LAUN",0
SL22:	.byte	"CRA-UP",0
SL23:	.byte	"CRA-PP",0
SL24:	.byte	"CRA-SP",0
SL25:	.byte	"CRA-FTP",0
SL26:	.byte	"CRA-CDT",0
SL27:	.byte	"PAC - PAC / TrainCofVal : %02X -- CiFault : %02X -- CarPos "
	.byte	": %02X -- CarPosRe : %02X  ",13,10," ",0
;******************************************************************************
;* CONSTANT TABLE                                                             *
;******************************************************************************
	.sect	".const"
	.bss	CL1,1
	.bss	CL2,1
	.bss	CL3,1
	.bss	CL4,1
	.bss	CL5,1
	.bss	CL6,1
	.bss	CL7,1
	.bss	CL8,1
	.bss	CL9,1
	.bss	CL10,1
	.bss	CL11,1
	.bss	CL12,1
	.bss	CL13,1
	.bss	CL14,1
	.bss	CL15,1
	.bss	CL16,1
	.bss	CL17,1
	.bss	CL18,1
	.bss	CL19,1
	.bss	CL20,1
	.bss	CL21,1
	.bss	CL22,1
	.bss	CL23,1
	.bss	CL24,1
	.bss	CL25,1
	.bss	CL26,1
	.bss	CL27,1
	.bss	CL28,1
	.bss	CL29,1
	.bss	CL30,1
	.bss	CL31,1
	.bss	CL32,1
	.bss	CL33,1
	.bss	CL34,1
	.bss	CL35,1
	.bss	CL36,1
	.bss	CL37,1
	.bss	CL38,1
	.bss	CL39,1
	.bss	CL40,1
	.bss	CL41,1
	.bss	CL42,1
	.bss	CL43,1
	.bss	CL44,1
	.bss	CL45,1
	.bss	CL46,1
	.bss	CL47,1
	.bss	CL48,1
	.bss	CL49,1
	.bss	CL50,1
	.bss	CL51,1
	.bss	CL52,1
	.bss	CL53,1
	.bss	CL54,1
	.bss	CL55,1
	.bss	CL56,1
	.bss	CL57,1
	.bss	CL58,1
	.bss	CL59,1
	.bss	CL60,1
	.bss	CL61,1
	.bss	CL62,1
	.bss	CL63,1
	.bss	CL64,1
	.bss	CL65,1
	.bss	CL66,1
	.bss	CL67,1
	.bss	CL68,1
	.bss	CL69,1
	.bss	CL70,1
	.bss	CL71,1
	.bss	CL72,1
	.bss	CL73,1
	.bss	CL74,1
	.bss	CL75,1
	.bss	CL76,1
	.bss	CL77,1
	.bss	CL78,1
	.bss	CL79,1
	.bss	CL80,1
	.bss	CL81,1

	.sect	".cinit"
	.field  	81,32
	.field  	CL1+0,32
	.field  	11534336,32
	.field  	16776716,32
	.field  	_m_Variable+307,32
	.field  	_m_Variable+315,32
	.field  	_m_Variable+323,32
	.field  	_m_Variable+353,32
	.field  	_m_Variable+389,32
	.field  	100000,32
	.field  	536870912,32
	.field  	SL1,32
	.field  	2097153,32
	.field  	_m_Variable,32
	.field  	32768,32
	.field  	32768,32
	.field  	-1,32
	.field  	32768,32
	.field  	SL2,32
	.field  	_m_Variable+9,32
	.field  	SL3,32
	.field  	_m_Variable+18,32
	.field  	SL4,32
	.field  	_m_Variable+27,32
	.field  	SL5,32
	.field  	_m_Variable+36,32
	.field  	SL6,32
	.field  	_m_Variable+45,32
	.field  	SL7,32
	.field  	_m_Variable+54,32
	.field  	SL8,32
	.field  	_m_Variable+63,32
	.field  	SL9,32
	.field  	_m_Variable+72,32
	.field  	SL10,32
	.field  	_m_Variable+81,32
	.field  	SL11,32
	.field  	_m_Variable+90,32
	.field  	SL12,32
	.field  	_m_Variable+99,32
	.field  	SL13,32
	.field  	_m_Variable+108,32
	.field  	SL14,32
	.field  	_m_Variable+117,32
	.field  	SL15,32
	.field  	_m_Variable+126,32
	.field  	SL16,32
	.field  	_m_Variable+135,32
	.field  	SL17,32
	.field  	_m_Variable+144,32
	.field  	SL18,32
	.field  	_m_Variable+153,32
	.field  	SL19,32
	.field  	_m_Variable+162,32
	.field  	SL20,32
	.field  	_m_Variable+171,32
	.field  	SL21,32
	.field  	_m_Variable+180,32
	.field  	SL22,32
	.field  	_m_Variable+189,32
	.field  	SL23,32
	.field  	_m_Variable+198,32
	.field  	SL24,32
	.field  	_m_Variable+207,32
	.field  	SL25,32
	.field  	_m_Variable+216,32
	.field  	SL26,32
	.field  	_btRx3chBuf$3,32
	.field  	12582912,32
	.field  	_btRx2chBuf$6,32
	.field  	_m_Variable+300,32
	.field  	_m_Variable+293,32
	.field  	12582912,32
	.field  	-25,32
	.field  	_btTx2chBuf$7,32
	.field  	_m_Variable+433,32
	.field  	11534336,32
	.field  	_btRx3chBuf$11,32
	.field  	_sCarNumBCD_H$12,32
	.field  	_sCarNumBCD_L$13,32
	.field  	SL27,32
	.field  	-30,32
	.field  	SW0,32

	.sect	".text"
;******************************************************************************
;* UNDEFINED EXTERNAL REFERENCES                                              *
;******************************************************************************

	.global	_sprintf

	.global	_memset

	.global	_strcpy

	.global	_strlen

	.global	_ConvDec2Hex

	.global	_IsNumAsc

	.global	_ConvHex2Asc

	.global	_ConvAsc2Hex

	.global	_GetFirmwareVersion

	.global	_Make1ByteBcc

	.global	_MyPrintf

	.global	_FunConvAscHex

	.global	_FunConvHexAsc

	.global	_crc16_ccitt

	.global	_DebugLoop

	.global	_xr16l784_RtsDelayStartSend

	.global	_xr16l784_Send

	.global	_xr16l784_GetRxBuffer2Ch

	.global	_xr16l784_GetRxBuffer1Ch

	.global	_xr16l784_GetRxBuffer3Ch

	.global	_LonWorkLoop
	.global	MOD_I30
	.global	DIV_I30
	.global	_memcpy
