################################################################################
#                                                                              #
#      IAR Universal Linker V4.60I/386                                         #
#                                                                              #
#           Link time     =  05/Apr/2017  16:27:03                             #
#           Target CPU    =  ARM                                               #
#           List file     =  "C:\work\Denver\PAC Denver\debug\List\DPAC_000.ma #
#                            p"                                                #
#           Output file 1 =  "C:\work\Denver\PAC Denver\debug\Exe\DPAC_000.bin #
#                            "                                                 #
#                            Format: raw-binary                                #
#           Output file 2 =  "C:\work\Denver\PAC Denver\debug\Exe\STR710-Eval. #
#                            sim"                                              #
#                            Format: simple-code                               #
#           Command line  =  "C:\work\Denver\PAC Denver\debug\Obj\71x_adc12.r7 #
#                            9"                                                #
#                            "C:\work\Denver\PAC Denver\debug\Obj\71x_apb.r79" #
#                            "C:\work\Denver\PAC Denver\debug\Obj\71x_eic.r79" #
#                            "C:\work\Denver\PAC Denver\debug\Obj\71x_emi.r79" #
#                            "C:\work\Denver\PAC Denver\debug\Obj\71x_gpio.r79 #
#                            "                                                 #
#                            "C:\work\Denver\PAC Denver\debug\Obj\71x_i2c.r79" #
#                            "C:\work\Denver\PAC Denver\debug\Obj\71x_init.r79 #
#                            "                                                 #
#                            "C:\work\Denver\PAC Denver\debug\Obj\71x_it.r79"  #
#                            "C:\work\Denver\PAC Denver\debug\Obj\71x_lib.r79" #
#                            "C:\work\Denver\PAC Denver\debug\Obj\71x_pcu.r79" #
#                            "C:\work\Denver\PAC Denver\debug\Obj\71x_rccu.r79 #
#                            "                                                 #
#                            "C:\work\Denver\PAC Denver\debug\Obj\71x_tim.r79" #
#                            "C:\work\Denver\PAC Denver\debug\Obj\71x_uart.r79 #
#                            "                                                 #
#                            "C:\work\Denver\PAC Denver\debug\Obj\71x_vect.r79 #
#                            "                                                 #
#                            "C:\work\Denver\PAC Denver\debug\Obj\71x_wdg.r79" #
#                            "C:\work\Denver\PAC Denver\debug\Obj\71x_xti.r79" #
#                            "C:\work\Denver\PAC Denver\debug\Obj\7xx_flash.r7 #
#                            9"                                                #
#                            "C:\work\Denver\PAC Denver\debug\Obj\init_table.r #
#                            79"                                               #
#                            "C:\work\Denver\PAC Denver\debug\Obj\pac.r79"     #
#                            -o                                                #
#                            "C:\work\Denver\PAC Denver\debug\Exe\DPAC_000.bin #
#                            "                                                 #
#                            -Fraw-binary -l                                   #
#                            "C:\work\Denver\PAC Denver\debug\List\DPAC_000.ma #
#                            p"                                                #
#                            -xms                                              #
#                            "-IC:\Program Files (x86)\IAR Systems\Embedded Wo #
#                            rkbench 4.0 Evaluation\arm\LIB\"                  #
#                            -f                                                #
#                            "C:\work\Denver\PAC Denver\str71x\lnkarm_flash.xc #
#                            l"                                                #
#                            (-DROMSTART=0x40004000 -DROMEND=0x4001FFFF        #
#                            -DRAMSTART=0x20000000 -DRAMEND=0x2000FFFF -carm   #
#                            -Z(CODE)INTVEC=ROMSTART-ROMEND                    #
#                            -Z(CODE)INTVEC_RAM=RAMSTART-RAMEND                #
#                            -Z(CODE)ICODE,DIFUNCT=ROMSTART-ROMEND             #
#                            -Z(CODE)SWITAB=ROMSTART-ROMEND                    #
#                            -Z(CODE)CODE=ROMSTART-ROMEND                      #
#                            -Z(CODE)CODE1=RAMSTART-RAMEND                     #
#                            -Z(CONST)CODE_ID=ROMSTART-ROMEND                  #
#                            -Z(CONST)INITTAB,DATA_ID,DATA_C=ROMSTART-ROMEND   #
#                            -Z(CONST)CHECKSUM=ROMSTART-ROMEND                 #
#                            -Z(DATA)DATA_I,DATA_Z,DATA_N=RAMSTART-RAMEND      #
#                            -Z(DATA)CODE_I=RAMSTART-RAMEND -QCODE_I=CODE_ID   #
#                            -QINTVEC_RAM=INTVEC -D_CSTACK_SIZE=1000           #
#                            -D_SVC_STACK_SIZE=100 -D_FIQ_STACK_SIZE=100       #
#                            -D_ABT_STACK_SIZE=100 -D_UNDEF_STACK_SIZE=100     #
#                            -D_IRQ_STACK_SIZE=400 -D_HEAP_SIZE=100            #
#                            -Z(DATA)CSTACK+_CSTACK_SIZE=RAMSTART-RAMEND       #
#                            -Z(DATA)SVC_STACK+_SVC_STACK_SIZE=RAMSTART-RAMEND #
#                            -Z(DATA)ABT_STACK+_ABT_STACK_SIZE=RAMSTART-RAMEND #
#                            -Z(DATA)UNDEF_STACK+_UNDEF_STACK_SIZE=RAMSTART-RA #
#                            MEND                                              #
#                            -Z(DATA)FIQ_STACK+_FIQ_STACK_SIZE=RAMSTART-RAMEND #
#                            -Z(DATA)IRQ_STACK+_IRQ_STACK_SIZE=RAMSTART-RAMEND #
#                            -Z(DATA)HEAP+_HEAP_SIZE=RAMSTART-RAMEND)          #
#                            "C:\Program Files (x86)\IAR Systems\Embedded Work #
#                            bench 4.0 Evaluation\arm\LIB\dl4tpannl8n.r79"     #
#                            "-Osimple-code=C:\work\Denver\PAC Denver\debug\Ex #
#                            e\STR710-Eval.sim"                                #
#                            -s __program_start                                #
#                                                                              #
#                        Copyright 1987-2007 IAR Systems. All rights reserved. #
################################################################################





                ****************************************
                *                                      *
                *           CROSS REFERENCE            *
                *                                      *
                ****************************************

       Program entry at :           40004628  Relocatable, from module : ?program_start




                ****************************************
                *                                      *
                *            RUNTIME MODEL             *
                *                                      *
                ****************************************

  StackAlign8            = USED
  __code_model           = *
  __cpu_mode             = __pcs__arm
  __data_model           = absolute
  __dlib_file_descriptor = 0
  __endian               = little
  __rt_version           = 6
  __thumb_aware          = enabled



                ****************************************
                *                                      *
                *              MODULE MAP              *
                *                                      *
                ****************************************


  DEFINED ABSOLUTE ENTRIES
    *************************************************************************

  DEFINED ABSOLUTE ENTRIES
  PROGRAM MODULE, NAME : ?ABS_ENTRY_MOD

Absolute parts
           ENTRY                   ADDRESS         REF BY
           =====                   =======         ======
           _HEAP_SIZE              00000100 
           _IRQ_STACK_SIZE         00000400 
           _UNDEF_STACK_SIZE       00000100 
           _ABT_STACK_SIZE         00000100 
           _FIQ_STACK_SIZE         00000100 
           _SVC_STACK_SIZE         00000100 
           _CSTACK_SIZE            00001000 
           RAMEND                  2000FFFF 
           RAMSTART                20000000 
           ROMEND                  4001FFFF 
           ROMSTART                40004000 
    *************************************************************************

  FILE NAME : C:\work\Denver\PAC Denver\debug\Obj\71x_adc12.r79
  PROGRAM MODULE, NAME : 71x_adc12

  SEGMENTS IN THE MODULE
  ======================
CODE
  Relative segment, address: 400047E0 - 400047FB (0x1c bytes), align: 2
  Segment part 2.
           ENTRY                   ADDRESS         REF BY
           =====                   =======         ======
           ADC12_Init              400047E0        main (pac)
    -------------------------------------------------------------------------
CODE
  Relative segment, address: 400047FC - 4000481B (0x20 bytes), align: 2
  Segment part 3.
           ENTRY                   ADDRESS         REF BY
           =====                   =======         ======
           ADC12_ConversionStart   400047FC        CL_Timer (pac)
    -------------------------------------------------------------------------
CODE
  Relative segment, address: 4000481C - 4000485B (0x40 bytes), align: 2
  Segment part 5.
           ENTRY                   ADDRESS         REF BY
           =====                   =======         ======
           ADC12_ModeConfig        4000481C        main (pac)
    -------------------------------------------------------------------------
CODE
  Relative segment, address: 4000485C - 400048EB (0x90 bytes), align: 2
  Segment part 6.
           ENTRY                   ADDRESS         REF BY
           =====                   =======         ======
           ADC12_PrescalerConfig   4000485C        main (pac)
               stack 1 = 00000000 ( 00000010 )
    -------------------------------------------------------------------------
CODE
  Relative segment, address: 400048EC - 400048EF (0x4 bytes), align: 2
  Segment part 7.             Intra module refs:   ADC12_Init
                                                   ADC12_PrescalerConfig
    -------------------------------------------------------------------------
CODE
  Relative segment, address: 400048F0 - 40004923 (0x34 bytes), align: 2
  Segment part 8.
           ENTRY                   ADDRESS         REF BY
           =====                   =======         ======
           ADC12_ChannelSelect     400048F0        CL_Timer (pac)
    -------------------------------------------------------------------------
CODE
  Relative segment, address: 40004924 - 4000496F (0x4c bytes), align: 2
  Segment part 10.
           ENTRY                   ADDRESS         REF BY
           =====                   =======         ======
           ADC12_ConversionValue   40004924        CL_Timer (pac)
    -------------------------------------------------------------------------
CODE
  Relative segment, address: 40004970 - 40004973 (0x4 bytes), align: 2
  Segment part 12.            Intra module refs:   ADC12_ChannelSelect
                                                   ADC12_ConversionValue
                                                   ADC12_Init
                                                   ADC12_ModeConfig

    *************************************************************************

  FILE NAME : C:\work\Denver\PAC Denver\debug\Obj\71x_apb.r79
  PROGRAM MODULE, NAME : 71x_apb

  SEGMENTS IN THE MODULE
  ======================
CODE
  Relative segment, address: 40004974 - 4000499B (0x28 bytes), align: 2
  Segment part 2.
           ENTRY                   ADDRESS         REF BY
           =====                   =======         ======
           APB_ClockConfig         40004974        main (pac)

    *************************************************************************

  FILE NAME : C:\work\Denver\PAC Denver\debug\Obj\71x_eic.r79
  PROGRAM MODULE, NAME : 71x_eic

  SEGMENTS IN THE MODULE
  ======================
CODE
  Relative segment, address: 4000499C - 400049E3 (0x48 bytes), align: 2
  Segment part 3.
           ENTRY                   ADDRESS         REF BY
           =====                   =======         ======
           EIC_IRQConfig           4000499C        main (pac)
    -------------------------------------------------------------------------
CODE
  Relative segment, address: 400049E4 - 40004A37 (0x54 bytes), align: 2
  Segment part 5.
           ENTRY                   ADDRESS         REF BY
           =====                   =======         ======
           EIC_IRQChannelConfig    400049E4        main (pac)
    -------------------------------------------------------------------------
CODE
  Relative segment, address: 40004A38 - 40004A63 (0x2c bytes), align: 2
  Segment part 7.
           ENTRY                   ADDRESS         REF BY
           =====                   =======         ======
           EIC_IRQChannelPriorityConfig
                                   40004A38        main (pac)

    *************************************************************************

  FILE NAME : C:\work\Denver\PAC Denver\debug\Obj\71x_emi.r79
  PROGRAM MODULE, NAME : 71x_emi

  SEGMENTS IN THE MODULE
  ======================
CODE
  Relative segment, address: 40004A64 - 40004A83 (0x20 bytes), align: 2
  Segment part 2.
           ENTRY                   ADDRESS         REF BY
           =====                   =======         ======
           EMI_Config              40004A64        main (pac)
    -------------------------------------------------------------------------
CODE
  Relative segment, address: 40004A84 - 40004AE7 (0x64 bytes), align: 2
  Segment part 3.
           ENTRY                   ADDRESS         REF BY
           =====                   =======         ======
           EMI_Enable              40004A84        main (pac)

    *************************************************************************

  FILE NAME : C:\work\Denver\PAC Denver\debug\Obj\71x_gpio.r79
  PROGRAM MODULE, NAME : 71x_gpio

  SEGMENTS IN THE MODULE
  ======================
CODE
  Relative segment, address: 40004AE8 - 40004C43 (0x15c bytes), align: 2
  Segment part 2.
           ENTRY                   ADDRESS         REF BY
           =====                   =======         ======
           GPIO_Config             40004AE8        main (pac)

    *************************************************************************

  FILE NAME : C:\work\Denver\PAC Denver\debug\Obj\71x_i2c.r79
  PROGRAM MODULE, NAME : 71x_i2c

  SEGMENTS IN THE MODULE
  ======================
CODE
  Relative segment, address: 40004C44 - 40004C7F (0x3c bytes), align: 2
  Segment part 2.
           ENTRY                   ADDRESS         REF BY
           =====                   =======         ======
           I2C_Init                40004C44        main (pac)
    -------------------------------------------------------------------------
CODE
  Relative segment, address: 40004C80 - 40004CB3 (0x34 bytes), align: 2
  Segment part 3.             Intra module refs:   I2C_FlagClear
           ENTRY                   ADDRESS         REF BY
           =====                   =======         ======
           I2C_OnOffConfig         40004C80        main (pac)
    -------------------------------------------------------------------------
CODE
  Relative segment, address: 40004CB4 - 40004CDB (0x28 bytes), align: 2
  Segment part 5.             Intra module refs:   I2C_AddressSend
           ENTRY                   ADDRESS         REF BY
           =====                   =======         ======
           I2C_STARTGenerate       40004CB4        Set_Vol_I2C (pac)
    -------------------------------------------------------------------------
CODE
  Relative segment, address: 40004CDC - 40004D03 (0x28 bytes), align: 2
  Segment part 6.
           ENTRY                   ADDRESS         REF BY
           =====                   =======         ======
           I2C_STOPGenerate        40004CDC        Set_Vol_I2C (pac)
    -------------------------------------------------------------------------
CODE
  Relative segment, address: 40004D04 - 40004D2B (0x28 bytes), align: 2
  Segment part 7.
           ENTRY                   ADDRESS         REF BY
           =====                   =======         ======
           I2C_AcknowledgeConfig   40004D04        main (pac)
    -------------------------------------------------------------------------
CODE
  Relative segment, address: 40004D2C - 40004D63 (0x38 bytes), align: 2
  Segment part 11.            Intra module refs:   I2C_CheckEvent
           ENTRY                   ADDRESS         REF BY
           =====                   =======         ======
           I2C_GetLastEvent        40004D2C 
    -------------------------------------------------------------------------
CODE
  Relative segment, address: 40004D64 - 40004D87 (0x24 bytes), align: 2
  Segment part 12.
           ENTRY                   ADDRESS         REF BY
           =====                   =======         ======
           I2C_CheckEvent          40004D64        Set_Vol_I2C (pac)
               stack 1 = 00000000 ( 00000008 )
    -------------------------------------------------------------------------
CODE
  Relative segment, address: 40004D88 - 40004ECB (0x144 bytes), align: 2
  Segment part 13.
           ENTRY                   ADDRESS         REF BY
           =====                   =======         ======
           I2C_FlagClear           40004D88        Set_Vol_I2C (pac)
                                                   main (pac)
               stack 1 = 00000000 ( 00000010 )
    -------------------------------------------------------------------------
CODE
  Relative segment, address: 40004ECC - 40004F6B (0xa0 bytes), align: 2
  Segment part 14.
           ENTRY                   ADDRESS         REF BY
           =====                   =======         ======
           I2C_SpeedConfig         40004ECC        main (pac)
               stack 1 = 00000000 ( 00000018 )
    -------------------------------------------------------------------------
CODE
  Relative segment, address: 40004F6C - 40005097 (0x12c bytes), align: 2
  Segment part 16.
           ENTRY                   ADDRESS         REF BY
           =====                   =======         ======
           I2C_FCLKConfig          40004F6C        main (pac)
               stack 1 = 00000000 ( 00000010 )
    -------------------------------------------------------------------------
CODE
  Relative segment, address: 40005098 - 40005143 (0xac bytes), align: 2
  Segment part 17.
           ENTRY                   ADDRESS         REF BY
           =====                   =======         ======
           I2C_AddressSend         40005098        Set_Vol_I2C (pac)
               stack 1 = 00000000 ( 00000010 )
    -------------------------------------------------------------------------
CODE
  Relative segment, address: 40005144 - 4000514B (0x8 bytes), align: 2
  Segment part 18.
           ENTRY                   ADDRESS         REF BY
           =====                   =======         ======
           I2C_ByteSend            40005144        Set_Vol_I2C (pac)

    *************************************************************************

  FILE NAME : C:\work\Denver\PAC Denver\debug\Obj\71x_init.r79
  LIBRARY MODULE, NAME : ?program_start

  SEGMENTS IN THE MODULE
  ======================
IRQ_STACK
  Relative segment, address: 200022B0, align: 2
  Segment part 0. ROOT.
    -------------------------------------------------------------------------
FIQ_STACK
  Relative segment, address: 200021B0, align: 2
  Segment part 1. ROOT.
    -------------------------------------------------------------------------
UNDEF_STACK
  Relative segment, address: 200020B0, align: 2
  Segment part 2. ROOT.
    -------------------------------------------------------------------------
ABT_STACK
  Relative segment, address: 20001FB0, align: 2
  Segment part 3. ROOT.
    -------------------------------------------------------------------------
SVC_STACK
  Relative segment, address: 20001EB0, align: 2
  Segment part 4. ROOT.
    -------------------------------------------------------------------------
CSTACK
  Relative segment, address: 20000EB0, align: 2
  Segment part 5. ROOT.
    -------------------------------------------------------------------------
ICODE
  Relative segment, address: 40004628 - 40004713 (0xec bytes), align: 2
  Segment part 6. ROOT.
           ENTRY                   ADDRESS         REF BY
           =====                   =======         ======
           __program_start         40004628        Absolute parts (?ABS_ENTRY_MOD)
                                                   Segment part 0 (?RESET)
           LOCAL                   ADDRESS         
           =====                   =======         
           NextInst                4000462C 
           EIC_INI                 40004694 
           _?0                     400046E0 
           _?1                     400046E4 
           _?2                     400046E8 
           _?3                     400046EC 
           _?4                     400046F0 
           _?5                     400046F4 
           _?6                     400046F8 
           _?7                     400046FC 
           _?8                     40004700 
           _?9                     40004704 
           _?10                    40004708 
           _?11                    4000470C 
           _?12                    40004710 

    *************************************************************************

  FILE NAME : C:\work\Denver\PAC Denver\debug\Obj\71x_it.r79
  PROGRAM MODULE, NAME : 71x_it

  SEGMENTS IN THE MODULE
  ======================
DATA_Z
  Relative segment, address: 20000000 - 20000027 (0x28 bytes), align: 2
  Segment part 2.             Intra module refs:   T0TIMI_IRQHandler
           LOCAL                   ADDRESS         
           =====                   =======         
           A_RID                   20000000 
    -------------------------------------------------------------------------
DATA_Z
  Relative segment, address: 20000028 - 20000127 (0x100 bytes), align: 2
  Segment part 3.             Intra module refs:   T0TIMI_IRQHandler
           LOCAL                   ADDRESS         
           =====                   =======         
           A_VID                   20000028 
    -------------------------------------------------------------------------
DATA_Z
  Relative segment, address: 20000E16 - 20000E16 (0x1 bytes), align: 0
  Segment part 4.             Intra module refs:   T0TIMI_IRQHandler
           LOCAL                   ADDRESS         
           =====                   =======         
           CTL_Temp                20000E16 
    -------------------------------------------------------------------------
CODE
  Relative segment, address: 4000514C - 4000514F (0x4 bytes), align: 2
  Segment part 5.
           ENTRY                   ADDRESS         REF BY
           =====                   =======         ======
           Undefined_Handler       4000514C        Segment part 0 (?RESET)
    -------------------------------------------------------------------------
CODE
  Relative segment, address: 40005150 - 40005153 (0x4 bytes), align: 2
  Segment part 6.
           ENTRY                   ADDRESS         REF BY
           =====                   =======         ======
           FIQ_Handler             40005150        Segment part 0 (?RESET)
    -------------------------------------------------------------------------
CODE
  Relative segment, address: 40005154 - 40005157 (0x4 bytes), align: 2
  Segment part 7.
           ENTRY                   ADDRESS         REF BY
           =====                   =======         ======
           SWI_Handler             40005154        Segment part 0 (?RESET)
    -------------------------------------------------------------------------
CODE
  Relative segment, address: 40005158 - 4000515B (0x4 bytes), align: 2
  Segment part 8.
           ENTRY                   ADDRESS         REF BY
           =====                   =======         ======
           Prefetch_Handler        40005158        Segment part 0 (?RESET)
    -------------------------------------------------------------------------
CODE
  Relative segment, address: 4000515C - 4000515F (0x4 bytes), align: 2
  Segment part 9.
           ENTRY                   ADDRESS         REF BY
           =====                   =======         ======
           Abort_Handler           4000515C        Segment part 0 (?RESET)
    -------------------------------------------------------------------------
CODE
  Relative segment, address: 40005160 - 40005193 (0x34 bytes), align: 2
  Segment part 10.
           ENTRY                   ADDRESS         REF BY
           =====                   =======         ======
           T0TIMI_IRQHandler       40005160        Segment part 0 (?RESET)
    -------------------------------------------------------------------------
CODE
  Relative segment, address: 40005194 - 40005197 (0x4 bytes), align: 2
  Segment part 11.
           ENTRY                   ADDRESS         REF BY
           =====                   =======         ======
           FLASH_IRQHandler        40005194        Segment part 0 (?RESET)
    -------------------------------------------------------------------------
CODE
  Relative segment, address: 40005198 - 4000519B (0x4 bytes), align: 2
  Segment part 12.
           ENTRY                   ADDRESS         REF BY
           =====                   =======         ======
           RCCU_IRQHandler         40005198        Segment part 0 (?RESET)
    -------------------------------------------------------------------------
CODE
  Relative segment, address: 4000519C - 4000519F (0x4 bytes), align: 2
  Segment part 13.
           ENTRY                   ADDRESS         REF BY
           =====                   =======         ======
           RTC_IRQHandler          4000519C        Segment part 0 (?RESET)
    -------------------------------------------------------------------------
CODE
  Relative segment, address: 400051A0 - 400051B3 (0x14 bytes), align: 2
  Segment part 14.
           ENTRY                   ADDRESS         REF BY
           =====                   =======         ======
           WDG_IRQHandler          400051A0        Segment part 0 (?RESET)
               stack 1 = 00000000 ( 00000008 )
    -------------------------------------------------------------------------
CODE
  Relative segment, address: 400051B4 - 400051B7 (0x4 bytes), align: 2
  Segment part 15.
           ENTRY                   ADDRESS         REF BY
           =====                   =======         ======
           XTI_IRQHandler          400051B4        Segment part 0 (?RESET)
    -------------------------------------------------------------------------
CODE
  Relative segment, address: 400051B8 - 400051BB (0x4 bytes), align: 2
  Segment part 16.
           ENTRY                   ADDRESS         REF BY
           =====                   =======         ======
           USBHP_IRQHandler        400051B8        Segment part 0 (?RESET)
    -------------------------------------------------------------------------
CODE
  Relative segment, address: 400051BC - 400051BF (0x4 bytes), align: 2
  Segment part 17.
           ENTRY                   ADDRESS         REF BY
           =====                   =======         ======
           I2C0ITERR_IRQHandler    400051BC        Segment part 0 (?RESET)
    -------------------------------------------------------------------------
CODE
  Relative segment, address: 400051C0 - 400051C3 (0x4 bytes), align: 2
  Segment part 18.
           ENTRY                   ADDRESS         REF BY
           =====                   =======         ======
           I2C1ITERR_IRQHandler    400051C0        Segment part 0 (?RESET)
    -------------------------------------------------------------------------
CODE
  Relative segment, address: 400051C4 - 400051F7 (0x34 bytes), align: 2
  Segment part 19.
           ENTRY                   ADDRESS         REF BY
           =====                   =======         ======
           UART0_IRQHandler        400051C4        Segment part 0 (?RESET)
               stack 1 = 00000000 ( 00000008 )
    -------------------------------------------------------------------------
CODE
  Relative segment, address: 400051F8 - 4000521B (0x24 bytes), align: 2
  Segment part 20.
           ENTRY                   ADDRESS         REF BY
           =====                   =======         ======
           UART1_IRQHandler        400051F8        Segment part 0 (?RESET)
               stack 1 = 00000000 ( 00000008 )
    -------------------------------------------------------------------------
CODE
  Relative segment, address: 4000521C - 4000523F (0x24 bytes), align: 2
  Segment part 21.
           ENTRY                   ADDRESS         REF BY
           =====                   =======         ======
           UART2_IRQHandler        4000521C        Segment part 0 (?RESET)
               stack 1 = 00000000 ( 00000008 )
    -------------------------------------------------------------------------
CODE
  Relative segment, address: 40005240 - 4000526B (0x2c bytes), align: 2
  Segment part 22.
           ENTRY                   ADDRESS         REF BY
           =====                   =======         ======
           UART3_IRQHandler        40005240        Segment part 0 (?RESET)
               stack 1 = 00000000 ( 00000008 )
    -------------------------------------------------------------------------
CODE
  Relative segment, address: 4000526C - 4000526F (0x4 bytes), align: 2
  Segment part 23.
           ENTRY                   ADDRESS         REF BY
           =====                   =======         ======
           BSPI0_IRQHandler        4000526C        Segment part 0 (?RESET)
    -------------------------------------------------------------------------
CODE
  Relative segment, address: 40005270 - 40005273 (0x4 bytes), align: 2
  Segment part 24.
           ENTRY                   ADDRESS         REF BY
           =====                   =======         ======
           BSPI1_IRQHandler        40005270        Segment part 0 (?RESET)
    -------------------------------------------------------------------------
CODE
  Relative segment, address: 40005274 - 40005277 (0x4 bytes), align: 2
  Segment part 25.
           ENTRY                   ADDRESS         REF BY
           =====                   =======         ======
           I2C0_IRQHandler         40005274        Segment part 0 (?RESET)
    -------------------------------------------------------------------------
CODE
  Relative segment, address: 40005278 - 4000527B (0x4 bytes), align: 2
  Segment part 26.
           ENTRY                   ADDRESS         REF BY
           =====                   =======         ======
           I2C1_IRQHandler         40005278        Segment part 0 (?RESET)
    -------------------------------------------------------------------------
CODE
  Relative segment, address: 4000527C - 4000527F (0x4 bytes), align: 2
  Segment part 27.
           ENTRY                   ADDRESS         REF BY
           =====                   =======         ======
           CAN_IRQHandler          4000527C        Segment part 0 (?RESET)
    -------------------------------------------------------------------------
CODE
  Relative segment, address: 40005280 - 40005283 (0x4 bytes), align: 2
  Segment part 28.
           ENTRY                   ADDRESS         REF BY
           =====                   =======         ======
           ADC12_IRQHandler        40005280        Segment part 0 (?RESET)
    -------------------------------------------------------------------------
CODE
  Relative segment, address: 40005284 - 40005297 (0x14 bytes), align: 2
  Segment part 29.
           ENTRY                   ADDRESS         REF BY
           =====                   =======         ======
           T1TIMI_IRQHandler       40005284        Segment part 0 (?RESET)
               stack 1 = 00000000 ( 00000008 )
    -------------------------------------------------------------------------
CODE
  Relative segment, address: 40005298 - 400052AB (0x14 bytes), align: 2
  Segment part 30.
           ENTRY                   ADDRESS         REF BY
           =====                   =======         ======
           T2TIMI_IRQHandler       40005298        Segment part 0 (?RESET)
               stack 1 = 00000000 ( 00000008 )
    -------------------------------------------------------------------------
CODE
  Relative segment, address: 400052AC - 400052AF (0x4 bytes), align: 2
  Segment part 31.
           ENTRY                   ADDRESS         REF BY
           =====                   =======         ======
           T3TIMI_IRQHandler       400052AC        Segment part 0 (?RESET)
    -------------------------------------------------------------------------
CODE
  Relative segment, address: 400052B0 - 400052B3 (0x4 bytes), align: 2
  Segment part 32.
           ENTRY                   ADDRESS         REF BY
           =====                   =======         ======
           HDLC_IRQHandler         400052B0        Segment part 0 (?RESET)
    -------------------------------------------------------------------------
CODE
  Relative segment, address: 400052B4 - 400052B7 (0x4 bytes), align: 2
  Segment part 33.
           ENTRY                   ADDRESS         REF BY
           =====                   =======         ======
           USBLP_IRQHandler        400052B4        Segment part 0 (?RESET)
    -------------------------------------------------------------------------
CODE
  Relative segment, address: 400052B8 - 400052BB (0x4 bytes), align: 2
  Segment part 34.
           ENTRY                   ADDRESS         REF BY
           =====                   =======         ======
           T0TOI_IRQHandler        400052B8        Segment part 0 (?RESET)
    -------------------------------------------------------------------------
CODE
  Relative segment, address: 400052BC - 400052BF (0x4 bytes), align: 2
  Segment part 35.
           ENTRY                   ADDRESS         REF BY
           =====                   =======         ======
           T0OC1_IRQHandler        400052BC        Segment part 0 (?RESET)
    -------------------------------------------------------------------------
CODE
  Relative segment, address: 400052C0 - 400052C3 (0x4 bytes), align: 2
  Segment part 36.
           ENTRY                   ADDRESS         REF BY
           =====                   =======         ======
           T0OC2_IRQHandler        400052C0        Segment part 0 (?RESET)
    -------------------------------------------------------------------------
INITTAB
  Relative segment, address: 40015760 - 4001576B (0xc bytes), align: 2
  Segment part 45. ROOT.
           ENTRY                   ADDRESS         REF BY
           =====                   =======         ======
           ?init?tab?DATA_Z        40015760 

    *************************************************************************

  FILE NAME : C:\work\Denver\PAC Denver\debug\Obj\71x_lib.r79
    *************************************************************************

  FILE NAME : C:\work\Denver\PAC Denver\debug\Obj\71x_pcu.r79
    *************************************************************************

  FILE NAME : C:\work\Denver\PAC Denver\debug\Obj\71x_rccu.r79
  PROGRAM MODULE, NAME : 71x_rccu

  SEGMENTS IN THE MODULE
  ======================
CODE
  Relative segment, address: 400052C4 - 400052E3 (0x20 bytes), align: 2
  Segment part 3.             Intra module refs:   RCCU_FrequencyValue
           ENTRY                   ADDRESS         REF BY
           =====                   =======         ======
           RCCU_Div2Status         400052C4 
    -------------------------------------------------------------------------
CODE
  Relative segment, address: 400052E4 - 4000530F (0x2c bytes), align: 2
  Segment part 4.
           ENTRY                   ADDRESS         REF BY
           =====                   =======         ======
           RCCU_MCLKConfig         400052E4        main (pac)
    -------------------------------------------------------------------------
CODE
  Relative segment, address: 40005310 - 4000533B (0x2c bytes), align: 2
  Segment part 5.
           ENTRY                   ADDRESS         REF BY
           =====                   =======         ======
           RCCU_PCLK1Config        40005310        main (pac)
    -------------------------------------------------------------------------
CODE
  Relative segment, address: 4000533C - 40005367 (0x2c bytes), align: 2
  Segment part 6.
           ENTRY                   ADDRESS         REF BY
           =====                   =======         ======
           RCCU_PCLK2Config        4000533C        main (pac)
    -------------------------------------------------------------------------
CODE
  Relative segment, address: 40005368 - 400053FB (0x94 bytes), align: 2
  Segment part 7.
           ENTRY                   ADDRESS         REF BY
           =====                   =======         ======
           RCCU_PLL1Config         40005368        main (pac)
               stack 1 = 00000000 ( 00000008 )
    -------------------------------------------------------------------------
CODE
  Relative segment, address: 400053FC - 40005513 (0x118 bytes), align: 2
  Segment part 9.
           ENTRY                   ADDRESS         REF BY
           =====                   =======         ======
           RCCU_RCLKSourceConfig   400053FC        main (pac)
               stack 1 = 00000000 ( 00000008 )
    -------------------------------------------------------------------------
CODE
  Relative segment, address: 40005514 - 40005563 (0x50 bytes), align: 2
  Segment part 10.            Intra module refs:   RCCU_FrequencyValue
           ENTRY                   ADDRESS         REF BY
           =====                   =======         ======
           RCCU_RCLKClockSource    40005514 
    -------------------------------------------------------------------------
CODE
  Relative segment, address: 40005564 - 4000577B (0x218 bytes), align: 2
  Segment part 13.            Intra module refs:   RCCU_PLL1Config
           ENTRY                   ADDRESS         REF BY
           =====                   =======         ======
           RCCU_FrequencyValue     40005564        ADC12_PrescalerConfig (71x_adc12)
                                                   I2C_FCLKConfig (71x_i2c)
                                                   I2C_SpeedConfig (71x_i2c)
                                                   UART_BaudRateConfig (71x_uart)
               stack 1 = 00000000 ( 00000018 )
    -------------------------------------------------------------------------
CODE
  Relative segment, address: 4000577C - 4000579B (0x20 bytes), align: 2
  Segment part 15.
           ENTRY                   ADDRESS         REF BY
           =====                   =======         ======
           RCCU_FlagStatus         4000577C        main (pac)
    -------------------------------------------------------------------------
CODE
  Relative segment, address: 4000579C - 400057AF (0x14 bytes), align: 2
  Segment part 19.            Intra module refs:   RCCU_RCLKSourceConfig
           ENTRY                   ADDRESS         REF BY
           =====                   =======         ======
           RCCU_PLL1Disable        4000579C 

    *************************************************************************

  FILE NAME : C:\work\Denver\PAC Denver\debug\Obj\71x_tim.r79
  PROGRAM MODULE, NAME : 71x_tim

  SEGMENTS IN THE MODULE
  ======================
CODE
  Relative segment, address: 400057B0 - 400057CB (0x1c bytes), align: 2
  Segment part 2.
           ENTRY                   ADDRESS         REF BY
           =====                   =======         ======
           TIM_Init                400057B0        main (pac)
    -------------------------------------------------------------------------
CODE
  Relative segment, address: 400057CC - 400057DF (0x14 bytes), align: 2
  Segment part 5.
           ENTRY                   ADDRESS         REF BY
           =====                   =======         ======
           TIM_PrescalerConfig     400057CC        main (pac)
    -------------------------------------------------------------------------
CODE
  Relative segment, address: 400057E0 - 4000582B (0x4c bytes), align: 2
  Segment part 16.
           ENTRY                   ADDRESS         REF BY
           =====                   =======         ======
           TIM_CounterConfig       400057E0        main (pac)
    -------------------------------------------------------------------------
CODE
  Relative segment, address: 4000582C - 40005853 (0x28 bytes), align: 2
  Segment part 17.
           ENTRY                   ADDRESS         REF BY
           =====                   =======         ======
           TIM_ITConfig            4000582C        CL_Send (pac)
                                                   CL_Timer (pac)
                                                   CL_TxHandler (pac)
                                                   Port_Check (pac)
                                                   TL_Timer (pac)
                                                   TL_TxHandler (pac)
                                                   main (pac)
    -------------------------------------------------------------------------
CODE
  Relative segment, address: 40005854 - 40005863 (0x10 bytes), align: 2
  Segment part 19.
           ENTRY                   ADDRESS         REF BY
           =====                   =======         ======
           TIM_FlagClear           40005854        Tim1_ISR (pac)
                                                   Tim2_ISR (pac)
                                                   main (pac)

    *************************************************************************

  FILE NAME : C:\work\Denver\PAC Denver\debug\Obj\71x_uart.r79
  PROGRAM MODULE, NAME : 71x_uart

  SEGMENTS IN THE MODULE
  ======================
CODE
  Relative segment, address: 40005864 - 4000587F (0x1c bytes), align: 2
  Segment part 3.             Intra module refs:   UART_Config
           ENTRY                   ADDRESS         REF BY
           =====                   =======         ======
           UART_ModeConfig         40005864 
    -------------------------------------------------------------------------
CODE
  Relative segment, address: 40005880 - 400058FB (0x7c bytes), align: 2
  Segment part 4.             Intra module refs:   UART_Config
           ENTRY                   ADDRESS         REF BY
           =====                   =======         ======
           UART_BaudRateConfig     40005880 
               stack 1 = 00000000 ( 00000010 )
    -------------------------------------------------------------------------
CODE
  Relative segment, address: 400058FC - 40005917 (0x1c bytes), align: 2
  Segment part 5.             Intra module refs:   UART_Config
           ENTRY                   ADDRESS         REF BY
           =====                   =======         ======
           UART_ParityConfig       400058FC 
    -------------------------------------------------------------------------
CODE
  Relative segment, address: 40005918 - 40005933 (0x1c bytes), align: 2
  Segment part 6.             Intra module refs:   UART_Config
           ENTRY                   ADDRESS         REF BY
           =====                   =======         ======
           UART_StopBitsConfig     40005918 
    -------------------------------------------------------------------------
CODE
  Relative segment, address: 40005934 - 4000599B (0x68 bytes), align: 2
  Segment part 7.
           ENTRY                   ADDRESS         REF BY
           =====                   =======         ======
           UART_Config             40005934        main (pac)
               stack 1 = 00000000 ( 00000018 )
    -------------------------------------------------------------------------
CODE
  Relative segment, address: 4000599C - 400059C3 (0x28 bytes), align: 2
  Segment part 8.
           ENTRY                   ADDRESS         REF BY
           =====                   =======         ======
           UART_ItConfig           4000599C        main (pac)
    -------------------------------------------------------------------------
CODE
  Relative segment, address: 400059C4 - 400059F3 (0x30 bytes), align: 2
  Segment part 9.
           ENTRY                   ADDRESS         REF BY
           =====                   =======         ======
           UART_FifoConfig         400059C4        main (pac)
    -------------------------------------------------------------------------
CODE
  Relative segment, address: 400059F4 - 40005A1B (0x28 bytes), align: 2
  Segment part 10.
           ENTRY                   ADDRESS         REF BY
           =====                   =======         ======
           UART_FifoReset          400059F4        main (pac)
    -------------------------------------------------------------------------
CODE
  Relative segment, address: 40005A1C - 40005A4B (0x30 bytes), align: 2
  Segment part 11.
           ENTRY                   ADDRESS         REF BY
           =====                   =======         ======
           UART_LoopBackConfig     40005A1C        main (pac)
    -------------------------------------------------------------------------
CODE
  Relative segment, address: 40005A4C - 40005A7B (0x30 bytes), align: 2
  Segment part 14.
           ENTRY                   ADDRESS         REF BY
           =====                   =======         ======
           UART_RxConfig           40005A4C        CL_Send (pac)
                                                   CL_Timer (pac)
                                                   CL_TxHandler (pac)
                                                   TL_TxHandler (pac)
                                                   main (pac)
    -------------------------------------------------------------------------
CODE
  Relative segment, address: 40005A7C - 40005AAB (0x30 bytes), align: 2
  Segment part 15.
           ENTRY                   ADDRESS         REF BY
           =====                   =======         ======
           UART_OnOffConfig        40005A7C        main (pac)
    -------------------------------------------------------------------------
CODE
  Relative segment, address: 40005AAC - 40005ADF (0x34 bytes), align: 2
  Segment part 16.
           ENTRY                   ADDRESS         REF BY
           =====                   =======         ======
           UART_ByteSend           40005AAC        MP3_SerialDataParsing (pac)
                                                   Port_Check (pac)
                                                   UART0_IRQHandler (71x_it)
    -------------------------------------------------------------------------
CODE
  Relative segment, address: 40005AE0 - 40005B0B (0x2c bytes), align: 2
  Segment part 21.
           ENTRY                   ADDRESS         REF BY
           =====                   =======         ======
           UART_ByteReceive        40005AE0        UART0_IRQHandler (71x_it)
                                                   UART3_IRQHandler (71x_it)

    *************************************************************************

  FILE NAME : C:\work\Denver\PAC Denver\debug\Obj\71x_vect.r79
  LIBRARY MODULE, NAME : ?RESET

  SEGMENTS IN THE MODULE
  ======================
INTVEC
  Relative segment, address: 40004000 - 40004627 (0x628 bytes), align: 2
  Segment part 0. ROOT.
           ENTRY                   ADDRESS         REF BY
           =====                   =======         ======
           T0TIMI_Addr             40004040        __program_start (?program_start)
           IRQHandler              40004108 
           LOCAL                   ADDRESS         
           =====                   =======         
           Reset_Addr              40004020 
           Undefined_Addr          40004024 
           SWI_Addr                40004028 
           Prefetch_Addr           4000402C 
           Abort_Addr              40004030 
           IRQ_Addr                40004038 
           FIQ_Addr                4000403C 
           UndefinedHandler        400040C0 
           SWIHandler              400040E4 
           PrefetchAbortHandler    40004148 
           DataAbortHandler        40004170 
           FIQHandler              40004198 
           T0TIMIIRQHandler        400041C0 
           FLASH_Addr              40004044 
           FLASHIRQHandler         400041E0 
           RCCU_Addr               40004048 
           RCCUIRQHandler          40004200 
           RTC_Addr                4000404C 
           RTCIRQHandler           40004220 
           WDG_Addr                40004050 
           WDGIRQHandler           40004240 
           XTI_Addr                40004054 
           XTIIRQHandler           40004260 
           USBHP_Addr              40004058 
           USBHPIRQHandler         40004280 
           I2C0ITERR_Addr          4000405C 
           I2C0ITERRIRQHandler     400042A0 
           I2C1ITERR_ADDR          40004060 
           I2C1ITERRIRQHandler     400042C0 
           UART0_Addr              40004064 
           UART0IRQHandler         400042E0 
           UART1_Addr              40004068 
           UART1IRQHandler         40004300 
           UART2_ADDR              4000406C 
           UART2IRQHandler         40004320 
           UART3_ADDR              40004070 
           UART3IRQHandler         40004340 
           BSPI0_ADDR              40004074 
           BSPI0IRQHandler         40004360 
           BSPI1_Addr              40004078 
           BSPI1IRQHandler         40004380 
           I2C0_Addr               4000407C 
           I2C0IRQHandler          400043A0 
           I2C1_Addr               40004080 
           I2C1IRQHandler          400043C0 
           CAN_Addr                40004084 
           CANIRQHandler           400043E0 
           ADC12_Addr              40004088 
           ADC12IRQHandler         40004400 
           T1TIMI_Addr             4000408C 
           T1TIMIIRQHandler        40004420 
           T2TIMI_Addr             40004090 
           T2TIMIIRQHandler        40004440 
           T3TIMI_Addr             40004094 
           T3TIMIIRQHandler        40004460 
           HDLC_Addr               400040A4 
           HDLCIRQHandler          40004480 
           USBLP_Addr              400040A8 
           USBLPIRQHandler         400044A0 
           T0TOI_Addr              400040B4 
           T0TOIIRQHandler         400044C0 
           T0OC1_Addr              400040B8 
           T0OC1IRQHandler         400044E0 
           T0OC2_Addr              400040BC 
           T0OC2IRQHandler         40004500 
           Undefined_Handler_end   400040D8 
           SWI_Handler_end         400040FC 
           ReturnAddress           40004128 
           Prefetch_Handler_end    40004164 
           Abort_Handler_end       4000418C 
           FIQ_Handler_end         400041B4 
           T0TIMI_IRQHandler_end   400041D4 
           FLASH_IRQHandler_end    400041F4 
           RCCU_IRQHandler_end     40004214 
           RTC_IRQHandler_end      40004234 
           WDG_IRQHandler_end      40004254 
           XTI_IRQHandler_end      40004274 
           USBHP_IRQHandler_end    40004294 
           I2C0ITERR_IRQHandler_end
                                   400042B4 
           I2C1ITERR_IRQHandler_end
                                   400042D4 
           UART0_IRQHandler_end    400042F4 
           UART1_IRQHandler_end    40004314 
           UART2_IRQHandler_end    40004334 
           UART3_IRQHandler_end    40004354 
           BSPI0_IRQHandler_end    40004374 
           BSPI1_IRQHandler_end    40004394 
           I2C0_IRQHandler_end     400043B4 
           I2C1_IRQHandler_end     400043D4 
           CAN_IRQHandler_end      400043F4 
           ADC12_IRQHandler_end    40004414 
           T1TIMI_IRQHandler_end   40004434 
           T2TIMI_IRQHandler_end   40004454 
           T3TIMI_IRQHandler_end   40004474 
           HDLC_IRQHandler_end     40004494 
           USBLP_IRQHandler_end    400044B4 
           T0TOI_IRQHandler_end    400044D4 
           T0OC1_IRQHandler_end    400044F4 
           T0OC2_IRQHandler_end    40004514 
           _?0                     40004520 
           _?1                     40004524 
           _?2                     40004528 
           _?3                     4000452C 
           _?4                     40004530 
           _?5                     40004534 
           _?6                     40004538 
           _?7                     4000453C 
           _?8                     40004540 
           _?9                     40004544 
           _?10                    40004548 
           _?11                    4000454C 
           _?12                    40004550 
           _?13                    40004554 
           _?14                    40004558 
           _?15                    4000455C 
           _?16                    40004560 
           _?17                    40004564 
           _?18                    40004568 
           _?19                    4000456C 
           _?20                    40004570 
           _?21                    40004574 
           _?22                    40004578 
           _?23                    4000457C 
           _?24                    40004580 
           _?25                    40004584 
           _?26                    40004588 
           _?27                    4000458C 
           _?28                    40004590 
           _?29                    40004594 
           _?30                    40004598 
           _?31                    4000459C 
           _?32                    400045A0 
           _?33                    400045A4 
           _?34                    400045A8 
           _?35                    400045AC 
           _?36                    400045B0 
           _?37                    400045B4 
           _?38                    400045B8 
           _?39                    400045BC 
           _?40                    400045C0 
           _?41                    400045C4 
           _?42                    400045C8 
           _?43                    400045CC 
           _?44                    400045D0 
           _?45                    400045D4 
           _?46                    400045D8 
           _?47                    400045DC 
           _?48                    400045E0 
           _?49                    400045E4 
           _?50                    400045E8 
           _?51                    400045EC 
           _?52                    400045F0 
           _?53                    400045F4 
           _?54                    400045F8 
           _?55                    400045FC 
           _?56                    40004600 
           _?57                    40004604 
           _?58                    40004608 
           _?59                    4000460C 
           _?60                    40004610 
           _?61                    40004614 
           _?62                    40004618 
           _?63                    4000461C 
           _?64                    40004620 
           _?65                    40004624 

    *************************************************************************

  FILE NAME : C:\work\Denver\PAC Denver\debug\Obj\71x_wdg.r79
  PROGRAM MODULE, NAME : 71x_wdg

  SEGMENTS IN THE MODULE
  ======================
CODE
  Relative segment, address: 40005B0C - 40005B1B (0x10 bytes), align: 2
  Segment part 8.
           ENTRY                   ADDRESS         REF BY
           =====                   =======         ======
           WDG_ECFlagClear         40005B0C        WDG_IRQHandler (71x_it)
    -------------------------------------------------------------------------
CODE
  Relative segment, address: 40005B1C - 40005B1F (0x4 bytes), align: 2
  Segment part 10.            Intra module refs:   WDG_ECFlagClear

    *************************************************************************

  FILE NAME : C:\work\Denver\PAC Denver\debug\Obj\71x_xti.r79
    *************************************************************************

  FILE NAME : C:\work\Denver\PAC Denver\debug\Obj\7xx_flash.r79
  PROGRAM MODULE, NAME : 7xx_flash

  SEGMENTS IN THE MODULE
  ======================
CODE
  Relative segment, address: 40005B20 - 40005B83 (0x64 bytes), align: 2
  Segment part 2.
           ENTRY                   ADDRESS         REF BY
           =====                   =======         ======
           FLASH_DeInit            40005B20        main (pac)
    -------------------------------------------------------------------------
CODE
  Relative segment, address: 40005B84 - 40005BD7 (0x54 bytes), align: 2
  Segment part 3.
           ENTRY                   ADDRESS         REF BY
           =====                   =======         ======
           FLASH_WriteWord         40005B84        Car_Number_Process (pac)
                                                   Read_CL_Data (pac)
                                                   main (pac)
    -------------------------------------------------------------------------
CODE
  Relative segment, address: 40005BD8 - 40005C2F (0x58 bytes), align: 2
  Segment part 5.
           ENTRY                   ADDRESS         REF BY
           =====                   =======         ======
           FLASH_EraseSector       40005BD8        Car_Number_Process (pac)
                                                   Read_CL_Data (pac)
                                                   main (pac)
    -------------------------------------------------------------------------
CODE
  Relative segment, address: 40005C30 - 40005C47 (0x18 bytes), align: 2
  Segment part 13.
           ENTRY                   ADDRESS         REF BY
           =====                   =======         ======
           FLASH_WaitForLastOperation
                                   40005C30        Car_Number_Process (pac)
                                                   Read_CL_Data (pac)
                                                   main (pac)
    -------------------------------------------------------------------------
CODE
  Relative segment, address: 40005C48 - 40005D17 (0xd0 bytes), align: 2
  Segment part 14.
           ENTRY                   ADDRESS         REF BY
           =====                   =======         ======
           FLASH_WriteProtectionCmd
                                   40005C48        main (pac)
    -------------------------------------------------------------------------
CODE
  Relative segment, address: 40005D18 - 40005D1B (0x4 bytes), align: 2
  Segment part 16.            Intra module refs:   FLASH_WriteProtectionCmd

    *************************************************************************

  FILE NAME : C:\work\Denver\PAC Denver\debug\Obj\init_table.r79
  PROGRAM MODULE, NAME : init_table

  SEGMENTS IN THE MODULE
  ======================
INTVEC_RAM
  Relative segment, address: 20000000, align: 2
  Segment part 0. ROOT.
    -------------------------------------------------------------------------
INTVEC
  Relative segment, address: 40004628, align: 2
  Segment part 1. ROOT.
    -------------------------------------------------------------------------
INITTAB
  Relative segment, address: 4001576C - 40015777 (0xc bytes), align: 2
  Segment part 2. ROOT.
    -------------------------------------------------------------------------
INTVEC
  Relative segment, address: 40004628, align: 2
  Segment part 3. ROOT.       Intra module refs:   Segment part 0

    *************************************************************************

  FILE NAME : C:\work\Denver\PAC Denver\debug\Obj\pac.r79
  PROGRAM MODULE, NAME : pac

  SEGMENTS IN THE MODULE
  ======================
DATA_Z
  Relative segment, address: 20000128 - 2000012F (0x8 bytes), align: 2
  Segment part 7.             Intra module refs:   Port_Check
                                                   Segment part 215
                                                   Segment part 436
                                                   Set_Var
                                                   main
           LOCAL                   ADDRESS         
           =====                   =======         
           A_Port_ST               20000128 
    -------------------------------------------------------------------------
DATA_Z
  Relative segment, address: 20000130 - 20000137 (0x8 bytes), align: 2
  Segment part 8.             Intra module refs:   Port_Check
                                                   Set_Var
           LOCAL                   ADDRESS         
           =====                   =======         
           A_Port_Chatt            20000130 
    -------------------------------------------------------------------------
DATA_Z
  Relative segment, address: 20000138 - 20000187 (0x50 bytes), align: 2
  Segment part 9.             Intra module refs:   Port_Check
                                                   Set_Var
           LOCAL                   ADDRESS         
           =====                   =======         
           A_Port_Flag             20000138 
    -------------------------------------------------------------------------
DATA_Z
  Relative segment, address: 20000188 - 2000018F (0x8 bytes), align: 2
  Segment part 10.            Intra module refs:   Make_Data
                                                   Port_Check
                                                   Set_Var
                                                   main
           LOCAL                   ADDRESS         
           =====                   =======         
           A_Port_In               20000188 
    -------------------------------------------------------------------------
DATA_Z
  Relative segment, address: 20000E17 - 20000E19 (0x3 bytes), align: 0
  Segment part 11.            Intra module refs:   Port_Check
                                                   Segment part 204
                                                   Segment part 220
                                                   Segment part 251
                                                   Segment part 252
                                                   Segment part 253
                                                   Segment part 426
                                                   Segment part 427
                                                   Segment part 428
                                                   Set_Var
                                                   main
           LOCAL                   ADDRESS         
           =====                   =======         
           A_Port_Out              20000E17 
    -------------------------------------------------------------------------
DATA_Z
  Relative segment, address: 20000E1A - 20000E1A (0x1 bytes), align: 0
  Segment part 12.            Intra module refs:   Segment part 437
                                                   Set_Var
           LOCAL                   ADDRESS         
           =====                   =======         
           T_LiveFlag              20000E1A 
    -------------------------------------------------------------------------
DATA_Z
  Relative segment, address: 20000190 - 20000197 (0x8 bytes), align: 2
  Segment part 13.            Intra module refs:   Segment part 262
                                                   Segment part 438
                                                   Set_Var
           LOCAL                   ADDRESS         
           =====                   =======         
           A_DeadCnt               20000190 
    -------------------------------------------------------------------------
DATA_Z
  Relative segment, address: 20000198 - 200001A3 (0xc bytes), align: 2
  Segment part 14.            Intra module refs:   Segment part 365
                                                   Segment part 367
                                                   Segment part 370
                                                   Set_Var
                                                   main
           LOCAL                   ADDRESS         
           =====                   =======         
           A_FSys                  20000198 
    -------------------------------------------------------------------------
DATA_Z
  Relative segment, address: 200001A4 - 200001B7 (0x14 bytes), align: 2
  Segment part 15.            Intra module refs:   Segment part 259
                                                   Segment part 382
                                                   Segment part 389
                                                   Segment part 390
                                                   Segment part 391
                                                   Segment part 392
                                                   Segment part 393
                                                   Segment part 394
                                                   Segment part 395
                                                   Segment part 397
                                                   Segment part 398
                                                   Segment part 400
                                                   Segment part 402
                                                   Segment part 403
                                                   Segment part 404
                                                   Segment part 405
                                                   Segment part 406
                                                   Segment part 407
                                                   Segment part 408
                                                   Segment part 409
                                                   Set_Var
                                                   main
           LOCAL                   ADDRESS         
           =====                   =======         
           A_FVol                  200001A4 
    -------------------------------------------------------------------------
DATA_Z
  Relative segment, address: 200001B8 - 200001BB (0x4 bytes), align: 2
  Segment part 16.            Intra module refs:   Segment part 377
                                                   Segment part 378
                                                   Segment part 379
                                                   Segment part 380
                                                   Set_Var
                                                   main
           LOCAL                   ADDRESS         
           =====                   =======         
           A_ChkS_FVol             200001B8 
    -------------------------------------------------------------------------
DATA_Z
  Relative segment, address: 20000E1B - 20000E1B (0x1 bytes), align: 0
  Segment part 17.            Intra module refs:   Segment part 376
                                                   Set_Var
           LOCAL                   ADDRESS         
           =====                   =======         
           AI_ChkS_FVol            20000E1B 
    -------------------------------------------------------------------------
DATA_Z
  Relative segment, address: 20000E1C - 20000E1C (0x1 bytes), align: 0
  Segment part 18.            Intra module refs:   Make_Data
                                                   Port_Check
                                                   Read_CL_Data
                                                   Segment part 216
                                                   Segment part 279
                                                   Segment part 417
                                                   Segment part 467
                                                   Set_Var
                                                   main
           LOCAL                   ADDRESS         
           =====                   =======         
           T_State                 20000E1C 
    -------------------------------------------------------------------------
DATA_Z
  Relative segment, address: 20000E1D - 20000E1D (0x1 bytes), align: 0
  Segment part 19.            Intra module refs:   Port_Check
                                                   Read_CL_Data
                                                   Segment part 219
                                                   Segment part 357
                                                   Segment part 418
                                                   Set_Var
                                                   main
           LOCAL                   ADDRESS         
           =====                   =======         
           T_Me_AB                 20000E1D 
    -------------------------------------------------------------------------
DATA_Z
  Relative segment, address: 20000E1E - 20000E1E (0x1 bytes), align: 0
  Segment part 20.            Intra module refs:   Set_Var
                                                   main
           LOCAL                   ADDRESS         
           =====                   =======         
           T_Me_ID                 20000E1E 
    -------------------------------------------------------------------------
DATA_Z
  Relative segment, address: 200001BC - 200001C3 (0x8 bytes), align: 2
  Segment part 21.            Intra module refs:   Car_Number_Process
                                                   Make_Data
                                                   Segment part 242
                                                   Segment part 243
                                                   Segment part 245
                                                   Segment part 248
                                                   Segment part 362
                                                   Segment part 364
                                                   Segment part 366
                                                   Segment part 368
                                                   Set_Var
                                                   main
           LOCAL                   ADDRESS         
           =====                   =======         
           A_CarNum                200001BC 
    -------------------------------------------------------------------------
DATA_Z
  Relative segment, address: 200001C4 - 200001CF (0xc bytes), align: 2
  Segment part 22.            Intra module refs:   Device_Check
                                                   Port_Check
                                                   Segment part 247
                                                   Segment part 361
                                                   Segment part 363
                                                   Set_Var
                                                   main
           LOCAL                   ADDRESS         
           =====                   =======         
           A_TL_CarNum             200001C4 
    -------------------------------------------------------------------------
DATA_Z
  Relative segment, address: 20000E1F - 20000E1F (0x1 bytes), align: 0
  Segment part 23.            Intra module refs:   Segment part 360
                                                   Set_Var
           LOCAL                   ADDRESS         
           =====                   =======         
           AI_CarNum               20000E1F 
    -------------------------------------------------------------------------
DATA_Z
  Relative segment, address: 20000E20 - 20000E20 (0x1 bytes), align: 0
  Segment part 24.            Intra module refs:   Make_Data
                                                   Port_Check
                                                   Read_CL_Data
                                                   Segment part 297
                                                   Set_Var
                                                   main
           LOCAL                   ADDRESS         
           =====                   =======         
           T_Train_Len             20000E20 
    -------------------------------------------------------------------------
DATA_Z
  Relative segment, address: 200001D0 - 200001D3 (0x4 bytes), align: 2
  Segment part 25.            Intra module refs:   Segment part 285
                                                   Segment part 442
                                                   Set_Var
                                                   main
           LOCAL                   ADDRESS         
           =====                   =======         
           CL_Tick                 200001D0 
    -------------------------------------------------------------------------
DATA_Z
  Relative segment, address: 200001D4 - 200001D7 (0x4 bytes), align: 2
  Segment part 26.            Intra module refs:   Port_Check
                                                   Segment part 214
                                                   Segment part 305
                                                   Segment part 421
                                                   Segment part 477
                                                   Set_Var
                                                   main
           LOCAL                   ADDRESS         
           =====                   =======         
           TL_Tick                 200001D4 
    -------------------------------------------------------------------------
DATA_Z
  Relative segment, address: 200001D8 - 200001DB (0x4 bytes), align: 2
  Segment part 27.            Intra module refs:   Segment part 264
                                                   Segment part 441
                                                   Set_Var
                                                   main
           LOCAL                   ADDRESS         
           =====                   =======         
           CL_TCnt                 200001D8 
    -------------------------------------------------------------------------
DATA_Z
  Relative segment, address: 200001DC - 200001DF (0x4 bytes), align: 2
  Segment part 28.            Intra module refs:   Port_Check
                                                   Segment part 304
                                                   Segment part 420
                                                   Segment part 476
                                                   Set_Var
                                                   main
           LOCAL                   ADDRESS         
           =====                   =======         
           TL_TCnt                 200001DC 
    -------------------------------------------------------------------------
DATA_Z
  Relative segment, address: 20000E21 - 20000E21 (0x1 bytes), align: 0
  Segment part 29.            Intra module refs:   Segment part 266
                                                   Set_Var
                                                   main
           LOCAL                   ADDRESS         
           =====                   =======         
           CL_Tx_ID                20000E21 
    -------------------------------------------------------------------------
DATA_Z
  Relative segment, address: 20000E22 - 20000E22 (0x1 bytes), align: 0
  Segment part 30.            Intra module refs:   Segment part 275
                                                   Set_Var
                                                   main
           LOCAL                   ADDRESS         
           =====                   =======         
           CL_Rx_ID                20000E22 
    -------------------------------------------------------------------------
DATA_Z
  Relative segment, address: 200001E0 - 20000207 (0x28 bytes), align: 2
  Segment part 31.            Intra module refs:   Segment part 265
                                                   Set_Var
           LOCAL                   ADDRESS         
           =====                   =======         
           A_ErrDevs               200001E0 
    -------------------------------------------------------------------------
DATA_Z
  Relative segment, address: 20000208 - 2000020F (0x8 bytes), align: 2
  Segment part 32.            Intra module refs:   Segment part 293
                                                   Set_Var
           LOCAL                   ADDRESS         
           =====                   =======         
           A_ErrCars               20000208 
    -------------------------------------------------------------------------
DATA_Z
  Relative segment, address: 20000E23 - 20000E23 (0x1 bytes), align: 0
  Segment part 33.            Intra module refs:   Segment part 294
                                                   Set_Var
                                                   main
           LOCAL                   ADDRESS         
           =====                   =======         
           T_Cars_Err              20000E23 
    -------------------------------------------------------------------------
DATA_Z
  Relative segment, address: 20000E24 - 20000E24 (0x1 bytes), align: 0
  Segment part 34.            Intra module refs:   Port_Check
                                                   Segment part 276
                                                   Set_Var
                                                   main
           LOCAL                   ADDRESS         
           =====                   =======         
           CL_State                20000E24 
    -------------------------------------------------------------------------
DATA_Z
  Relative segment, address: 20000E25 - 20000E25 (0x1 bytes), align: 0
  Segment part 35.            Intra module refs:   Port_Check
                                                   Segment part 302
                                                   Segment part 419
                                                   Segment part 475
                                                   Set_Var
                                                   main
           LOCAL                   ADDRESS         
           =====                   =======         
           TL_State                20000E25 
    -------------------------------------------------------------------------
DATA_Z
  Relative segment, address: 20000210 - 2000021B (0xc bytes), align: 2
  Segment part 36.            Intra module refs:   Make_Data
                                                   Read_CL_Data
                                                   Segment part 223
                                                   Segment part 225
                                                   Segment part 227
                                                   Segment part 229
                                                   Segment part 231
                                                   Segment part 233
                                                   Segment part 235
                                                   Segment part 237
                                                   Segment part 239
                                                   Segment part 241
                                                   Segment part 268
                                                   Segment part 374
                                                   Segment part 383
                                                   Segment part 411
                                                   Segment part 412
                                                   Set_Var
           LOCAL                   ADDRESS         
           =====                   =======         
           A_VDev_MS               20000210 
    -------------------------------------------------------------------------
DATA_Z
  Relative segment, address: 2000021C - 20000243 (0x28 bytes), align: 2
  Segment part 37.            Intra module refs:   Set_Var
                                                   main
           LOCAL                   ADDRESS         
           =====                   =======         
           A_RID                   2000021C 
    -------------------------------------------------------------------------
DATA_Z
  Relative segment, address: 20000244 - 20000343 (0x100 bytes), align: 2
  Segment part 38.            Intra module refs:   Segment part 450
                                                   Set_Var
           LOCAL                   ADDRESS         
           =====                   =======         
           A_VID                   20000244 
    -------------------------------------------------------------------------
DATA_Z
  Relative segment, address: 20000E26 - 20000E26 (0x1 bytes), align: 0
  Segment part 39.            Intra module refs:   Segment part 415
                                                   Segment part 502
                                                   main
           LOCAL                   ADDRESS         
           =====                   =======         
           CL_Rx_Turn              20000E26 
    -------------------------------------------------------------------------
DATA_Z
  Relative segment, address: 20000E27 - 20000E27 (0x1 bytes), align: 0
  Segment part 40.            Intra module refs:   Segment part 280
                                                   Segment part 416
                                                   Segment part 503
                                                   main
           LOCAL                   ADDRESS         
           =====                   =======         
           CL_Tx_Turn              20000E27 
    -------------------------------------------------------------------------
DATA_Z
  Relative segment, address: 20000344 - 2000036B (0x28 bytes), align: 2
  Segment part 41.            Intra module refs:   Read_CL_Data
                                                   Segment part 504
                                                   main
           LOCAL                   ADDRESS         
           =====                   =======         
           A_CLMsg_Num             20000344 
    -------------------------------------------------------------------------
DATA_Z
  Relative segment, address: 20000E28 - 20000E28 (0x1 bytes), align: 0
  Segment part 42.            Intra module refs:   Segment part 281
                                                   Segment part 505
                                                   main
           LOCAL                   ADDRESS         
           =====                   =======         
           CL_PollM_IDX            20000E28 
    -------------------------------------------------------------------------
DATA_Z
  Relative segment, address: 20000E29 - 20000E29 (0x1 bytes), align: 0
  Segment part 43.            Intra module refs:   Segment part 283
                                                   Segment part 506
                                                   main
           LOCAL                   ADDRESS         
           =====                   =======         
           CL_Poll1_IDX            20000E29 
    -------------------------------------------------------------------------
DATA_Z
  Relative segment, address: 20000E2A - 20000E2A (0x1 bytes), align: 0
  Segment part 44.            Intra module refs:   Segment part 277
                                                   Segment part 507
                                                   main
           LOCAL                   ADDRESS         
           =====                   =======         
           CL_Poll2_IDX            20000E2A 
    -------------------------------------------------------------------------
DATA_Z
  Relative segment, address: 20000E2B - 20000E2B (0x1 bytes), align: 0
  Segment part 45.            Intra module refs:   Segment part 278
                                                   Segment part 508
                                                   main
           LOCAL                   ADDRESS         
           =====                   =======         
           CL_Poll3_IDX            20000E2B 
    -------------------------------------------------------------------------
DATA_Z
  Relative segment, address: 2000036C - 20000377 (0xc bytes), align: 2
  Segment part 46.            Intra module refs:   Segment part 222
                                                   Segment part 224
                                                   Segment part 226
                                                   Segment part 228
                                                   Segment part 230
                                                   Segment part 232
                                                   Segment part 282
                                                   Segment part 509
                                                   Segment part 510
                                                   Segment part 511
                                                   Segment part 512
                                                   Segment part 513
                                                   Segment part 514
                                                   Set_Var
                                                   main
           LOCAL                   ADDRESS         
           =====                   =======         
           CL_PollM_Arr            2000036C 
    -------------------------------------------------------------------------
DATA_Z
  Relative segment, address: 20000378 - 20000383 (0xc bytes), align: 2
  Segment part 47.            Intra module refs:   Segment part 234
                                                   Segment part 236
                                                   Segment part 238
                                                   Segment part 240
                                                   Segment part 284
                                                   Segment part 515
                                                   Segment part 516
                                                   Segment part 517
                                                   Segment part 518
                                                   Set_Var
                                                   main
           LOCAL                   ADDRESS         
           =====                   =======         
           CL_Poll1_Arr            20000378 
    -------------------------------------------------------------------------
DATA_Z
  Relative segment, address: 20000384 - 2000038F (0xc bytes), align: 2
  Segment part 48.            Intra module refs:   Segment part 519
                                                   Set_Var
                                                   main
           LOCAL                   ADDRESS         
           =====                   =======         
           CL_Poll2_Arr            20000384 
    -------------------------------------------------------------------------
DATA_Z
  Relative segment, address: 20000390 - 2000039B (0xc bytes), align: 2
  Segment part 49.            Intra module refs:   Segment part 520
                                                   Set_Var
                                                   main
           LOCAL                   ADDRESS         
           =====                   =======         
           CL_Poll3_Arr            20000390 
    -------------------------------------------------------------------------
DATA_Z
  Relative segment, address: 20000DE8 - 20000DE9 (0x2 bytes), align: 1
  Segment part 50.            Intra module refs:   Set_Var
           LOCAL                   ADDRESS         
           =====                   =======         
           T_Ans_11k               20000DE8 
    -------------------------------------------------------------------------
DATA_Z
  Relative segment, address: 2000039C - 200003CF (0x34 bytes), align: 2
  Segment part 51.            Intra module refs:   Make_Data
                                                   Segment part 260
                                                   Segment part 396
                                                   Segment part 521
           LOCAL                   ADDRESS         
           =====                   =======         
           A_Ans_Val               2000039C 
    -------------------------------------------------------------------------
DATA_Z
  Relative segment, address: 20000E2C - 20000E2C (0x1 bytes), align: 0
  Segment part 52.            Intra module refs:   Make_Data
                                                   Segment part 261
                                                   Segment part 522
           LOCAL                   ADDRESS         
           =====                   =======         
           AI_Ans                  20000E2C 
    -------------------------------------------------------------------------
DATA_Z
  Relative segment, address: 200003D0 - 200003D3 (0x4 bytes), align: 2
  Segment part 53.            Intra module refs:   Segment part 399
                                                   Segment part 523
           LOCAL                   ADDRESS         
           =====                   =======         
           T_Ans_Avr               200003D0 
    -------------------------------------------------------------------------
DATA_Z
  Relative segment, address: 20000E2D - 20000E2D (0x1 bytes), align: 0
  Segment part 54.            Intra module refs:   Segment part 258
                                                   Segment part 524
           LOCAL                   ADDRESS         
           =====                   =======         
           T_Ans_Cnt               20000E2D 
    -------------------------------------------------------------------------
DATA_Z
  Relative segment, address: 20000E2E - 20000E2E (0x1 bytes), align: 0
  Segment part 55.            Intra module refs:   Port_Check
                                                   Segment part 525
           LOCAL                   ADDRESS         
           =====                   =======         
           TP_Broad_Device         20000E2E 
    -------------------------------------------------------------------------
DATA_Z
  Relative segment, address: 20000E2F - 20000E2F (0x1 bytes), align: 0
  Segment part 56.            Intra module refs:   Port_Check
                                                   Segment part 526
           LOCAL                   ADDRESS         
           =====                   =======         
           T_Broad                 20000E2F 
    -------------------------------------------------------------------------
DATA_Z
  Relative segment, address: 20000E30 - 20000E32 (0x3 bytes), align: 0
  Segment part 57.            Intra module refs:   Port_Check
                                                   Segment part 263
                                                   Segment part 527
                                                   Segment part 528
                                                   Segment part 529
           LOCAL                   ADDRESS         
           =====                   =======         
           TC_Broad                20000E30 
    -------------------------------------------------------------------------
DATA_Z
  Relative segment, address: 20000E33 - 20000E33 (0x1 bytes), align: 0
  Segment part 58.            Intra module refs:   Port_Check
                                                   Segment part 530
           LOCAL                   ADDRESS         
           =====                   =======         
           T_DPO_Call              20000E33 
    -------------------------------------------------------------------------
DATA_Z
  Relative segment, address: 20000DEA - 20000DEB (0x2 bytes), align: 1
  Segment part 59.            Intra module refs:   Port_Check
                                                   Segment part 531
           LOCAL                   ADDRESS         
           =====                   =======         
           T_PEI_Cnt               20000DEA 
    -------------------------------------------------------------------------
DATA_Z
  Relative segment, address: 200003D4 - 200003DB (0x8 bytes), align: 2
  Segment part 60.            Intra module refs:   Port_Check
                                                   Segment part 532
           LOCAL                   ADDRESS         
           =====                   =======         
           T_PEI_Name              200003D4 
    -------------------------------------------------------------------------
DATA_Z
  Relative segment, address: 200003DC - 200003E3 (0x8 bytes), align: 2
  Segment part 61.            Intra module refs:   Port_Check
                                                   Segment part 533
                                                   main
           LOCAL                   ADDRESS         
           =====                   =======         
           T_PEI_Play              200003DC 
    -------------------------------------------------------------------------
DATA_Z
  Relative segment, address: 20000E34 - 20000E34 (0x1 bytes), align: 0
  Segment part 62.            Intra module refs:   Port_Check
                                                   Segment part 534
           LOCAL                   ADDRESS         
           =====                   =======         
           T_PEI_Num               20000E34 
    -------------------------------------------------------------------------
DATA_Z
  Relative segment, address: 20000DEC - 20000DED (0x2 bytes), align: 1
  Segment part 63.            Intra module refs:   Port_Check
                                                   Segment part 535
           LOCAL                   ADDRESS         
           =====                   =======         
           T_IC_Cnt                20000DEC 
    -------------------------------------------------------------------------
DATA_Z
  Relative segment, address: 200003E4 - 200003EB (0x8 bytes), align: 2
  Segment part 64.            Intra module refs:   Port_Check
                                                   Segment part 536
                                                   Segment part 537
                                                   Segment part 538
                                                   Segment part 539
                                                   Segment part 540
                                                   Segment part 541
           LOCAL                   ADDRESS         
           =====                   =======         
           T_IC_Name               200003E4 
    -------------------------------------------------------------------------
DATA_Z
  Relative segment, address: 20000E35 - 20000E35 (0x1 bytes), align: 0
  Segment part 65.            Intra module refs:   Make_Data
                                                   Port_Check
                                                   Read_CL_Data
                                                   Segment part 326
                                                   Segment part 433
                                                   Segment part 542
                                                   main
           LOCAL                   ADDRESS         
           =====                   =======         
           ESpk_State              20000E35 
    -------------------------------------------------------------------------
DATA_Z
  Relative segment, address: 20000E36 - 20000E36 (0x1 bytes), align: 0
  Segment part 66.            Intra module refs:   Segment part 372
                                                   Segment part 434
                                                   Segment part 543
           LOCAL                   ADDRESS         
           =====                   =======         
           ESpk_ST_Me              20000E36 
    -------------------------------------------------------------------------
DATA_Z
  Relative segment, address: 20000E37 - 20000E37 (0x1 bytes), align: 0
  Segment part 67.            Intra module refs:   Make_Data
                                                   Port_Check
                                                   Read_CL_Data
                                                   Segment part 327
                                                   Segment part 431
                                                   Segment part 544
                                                   main
           LOCAL                   ADDRESS         
           =====                   =======         
           CISpk_State             20000E37 
    -------------------------------------------------------------------------
DATA_Z
  Relative segment, address: 20000E38 - 20000E38 (0x1 bytes), align: 0
  Segment part 68.            Intra module refs:   Segment part 373
                                                   Segment part 432
                                                   Segment part 545
           LOCAL                   ADDRESS         
           =====                   =======         
           CISpk_ST_Me             20000E38 
    -------------------------------------------------------------------------
DATA_Z
  Relative segment, address: 20000E39 - 20000E39 (0x1 bytes), align: 0
  Segment part 69.            Intra module refs:   Make_Data
                                                   Segment part 218
                                                   Segment part 425
                                                   Segment part 546
           LOCAL                   ADDRESS         
           =====                   =======         
           P_PAC_Token             20000E39 
    -------------------------------------------------------------------------
DATA_Z
  Relative segment, address: 20000E3A - 20000E3A (0x1 bytes), align: 0
  Segment part 70.            Intra module refs:   Make_Data
                                                   Port_Check
                                                   Read_CL_Data
                                                   Segment part 246
                                                   Segment part 300
                                                   Segment part 547
                                                   main
           LOCAL                   ADDRESS         
           =====                   =======         
           P_Coupling_ID           20000E3A 
    -------------------------------------------------------------------------
DATA_Z
  Relative segment, address: 20000E3B - 20000E3B (0x1 bytes), align: 0
  Segment part 71.            Intra module refs:   Port_Check
                                                   Segment part 548
                                                   main
           LOCAL                   ADDRESS         
           =====                   =======         
           P_Coupling_Old          20000E3B 
    -------------------------------------------------------------------------
DATA_Z
  Relative segment, address: 20000E3C - 20000E3C (0x1 bytes), align: 0
  Segment part 72.            Intra module refs:   Make_Data
                                                   Port_Check
                                                   Read_CL_Data
                                                   Segment part 549
           LOCAL                   ADDRESS         
           =====                   =======         
           P_IOport                20000E3C 
    -------------------------------------------------------------------------
DATA_Z
  Relative segment, address: 20000E3D - 20000E3D (0x1 bytes), align: 0
  Segment part 73.            Intra module refs:   Make_Data
                                                   Port_Check
                                                   Segment part 257
                                                   Segment part 429
                                                   Segment part 550
                                                   main
           LOCAL                   ADDRESS         
           =====                   =======         
           P_Broad_Device          20000E3D 
    -------------------------------------------------------------------------
DATA_Z
  Relative segment, address: 20000E3E - 20000E3E (0x1 bytes), align: 0
  Segment part 74.            Intra module refs:   Make_Data
                                                   Port_Check
                                                   Read_CL_Data
                                                   Segment part 430
                                                   Segment part 551
           LOCAL                   ADDRESS         
           =====                   =======         
           P_Broad_Occ             20000E3E 
    -------------------------------------------------------------------------
DATA_Z
  Relative segment, address: 20000E3F - 20000E3F (0x1 bytes), align: 0
  Segment part 75.            Intra module refs:   Port_Check
                                                   Segment part 289
           LOCAL                   ADDRESS         
           =====                   =======         
           P_Broad_Priorit         20000E3F 
    -------------------------------------------------------------------------
DATA_Z
  Relative segment, address: 200003EC - 200003EF (0x4 bytes), align: 2
  Segment part 76.            Intra module refs:   Make_Data
                                                   Segment part 552
           LOCAL                   ADDRESS         
           =====                   =======         
           AP_POdo                 200003EC 
    -------------------------------------------------------------------------
DATA_Z
  Relative segment, address: 200003F0 - 200003F3 (0x4 bytes), align: 2
  Segment part 77.            Intra module refs:   Read_CL_Data
                                                   Segment part 553
           LOCAL                   ADDRESS         
           =====                   =======         
           AP_COdo                 200003F0 
    -------------------------------------------------------------------------
DATA_Z
  Relative segment, address: 20000E40 - 20000E40 (0x1 bytes), align: 0
  Segment part 78.            Intra module refs:   Segment part 307
                                                   Segment part 401
                                                   Segment part 554
           LOCAL                   ADDRESS         
           =====                   =======         
           P_Ans_Vol               20000E40 
    -------------------------------------------------------------------------
DATA_Z
  Relative segment, address: 20000E41 - 20000E43 (0x3 bytes), align: 0
  Segment part 79.            Intra module refs:   Make_Data
                                                   Read_CL_Data
                                                   Segment part 308
                                                   Segment part 309
                                                   Segment part 310
                                                   Segment part 555
                                                   main
           LOCAL                   ADDRESS         
           =====                   =======         
           AP_TrainNum             20000E41 
    -------------------------------------------------------------------------
DATA_Z
  Relative segment, address: 20000E44 - 20000E46 (0x3 bytes), align: 0
  Segment part 80.            Intra module refs:   Make_Data
                                                   Read_CL_Data
                                                   Segment part 311
                                                   Segment part 312
                                                   Segment part 313
                                                   Segment part 556
                                                   main
           LOCAL                   ADDRESS         
           =====                   =======         
           AP_CrewID               20000E44 
    -------------------------------------------------------------------------
DATA_Z
  Relative segment, address: 20000E47 - 20000E49 (0x3 bytes), align: 0
  Segment part 81.            Intra module refs:   Make_Data
                                                   Read_CL_Data
                                                   Segment part 314
                                                   Segment part 315
                                                   Segment part 316
                                                   Segment part 557
                                                   main
           LOCAL                   ADDRESS         
           =====                   =======         
           AP_TrigID               20000E47 
    -------------------------------------------------------------------------
DATA_Z
  Relative segment, address: 20000E4A - 20000E4A (0x1 bytes), align: 0
  Segment part 82.            Intra module refs:   Make_Data
                                                   Read_CL_Data
                                                   Segment part 317
                                                   Segment part 558
                                                   main
           LOCAL                   ADDRESS         
           =====                   =======         
           P_St_Type               20000E4A 
    -------------------------------------------------------------------------
DATA_Z
  Relative segment, address: 20000E4B - 20000E4B (0x1 bytes), align: 0
  Segment part 83.            Intra module refs:   Make_Data
                                                   Read_CL_Data
                                                   Segment part 328
                                                   Segment part 559
                                                   main
           LOCAL                   ADDRESS         
           =====                   =======         
           P_Disp_Msg              20000E4B 
    -------------------------------------------------------------------------
DATA_Z
  Relative segment, address: 20000E4C - 20000E4C (0x1 bytes), align: 0
  Segment part 84.            Intra module refs:   Make_Data
                                                   Read_CL_Data
                                                   Segment part 329
                                                   Segment part 560
                                                   main
           LOCAL                   ADDRESS         
           =====                   =======         
           P_LED_MR                20000E4C 
    -------------------------------------------------------------------------
DATA_Z
  Relative segment, address: 20000E4D - 20000E4D (0x1 bytes), align: 0
  Segment part 85.            Intra module refs:   Make_Data
                                                   Read_CL_Data
                                                   Segment part 330
                                                   Segment part 561
                                                   main
           LOCAL                   ADDRESS         
           =====                   =======         
           P_PR_Active             20000E4D 
    -------------------------------------------------------------------------
DATA_Z
  Relative segment, address: 20000E4E - 20000E4F (0x2 bytes), align: 0
  Segment part 86.            Intra module refs:   Make_Data
                                                   Read_CL_Data
                                                   Segment part 318
                                                   Segment part 319
                                                   Segment part 562
                                                   main
           LOCAL                   ADDRESS         
           =====                   =======         
           AP_St_Start             20000E4E 
    -------------------------------------------------------------------------
DATA_Z
  Relative segment, address: 20000E50 - 20000E51 (0x2 bytes), align: 0
  Segment part 87.            Intra module refs:   Make_Data
                                                   Read_CL_Data
                                                   Segment part 320
                                                   Segment part 321
                                                   Segment part 563
                                                   main
           LOCAL                   ADDRESS         
           =====                   =======         
           AP_St_Now               20000E50 
    -------------------------------------------------------------------------
DATA_Z
  Relative segment, address: 20000E52 - 20000E53 (0x2 bytes), align: 0
  Segment part 88.            Intra module refs:   Make_Data
                                                   Read_CL_Data
                                                   Segment part 322
                                                   Segment part 323
                                                   Segment part 564
                                                   main
           LOCAL                   ADDRESS         
           =====                   =======         
           AP_St_Next              20000E52 
    -------------------------------------------------------------------------
DATA_Z
  Relative segment, address: 20000E54 - 20000E55 (0x2 bytes), align: 0
  Segment part 89.            Intra module refs:   Make_Data
                                                   Read_CL_Data
                                                   Segment part 324
                                                   Segment part 325
                                                   Segment part 565
                                                   main
           LOCAL                   ADDRESS         
           =====                   =======         
           AP_St_Dest              20000E54 
    -------------------------------------------------------------------------
DATA_Z
  Relative segment, address: 20000E56 - 20000E57 (0x2 bytes), align: 0
  Segment part 90.            Intra module refs:   Make_Data
                                                   Read_CL_Data
                                                   Segment part 331
                                                   Segment part 332
                                                   Segment part 566
                                                   main
           LOCAL                   ADDRESS         
           =====                   =======         
           AP_PR_Msg               20000E56 
    -------------------------------------------------------------------------
DATA_Z
  Relative segment, address: 20000E58 - 20000E59 (0x2 bytes), align: 0
  Segment part 91.            Intra module refs:   Make_Data
                                                   Read_CL_Data
                                                   Segment part 333
                                                   Segment part 334
                                                   Segment part 567
                                                   main
           LOCAL                   ADDRESS         
           =====                   =======         
           AP_PAC_Vec              20000E58 
    -------------------------------------------------------------------------
DATA_Z
  Relative segment, address: 20000E5A - 20000E5B (0x2 bytes), align: 0
  Segment part 92.            Intra module refs:   Make_Data
                                                   Read_CL_Data
                                                   Segment part 335
                                                   Segment part 336
                                                   Segment part 568
                                                   main
           LOCAL                   ADDRESS         
           =====                   =======         
           AP_FSDI_Vec             20000E5A 
    -------------------------------------------------------------------------
DATA_Z
  Relative segment, address: 20000E5C - 20000E5D (0x2 bytes), align: 0
  Segment part 93.            Intra module refs:   Make_Data
                                                   Read_CL_Data
                                                   Segment part 337
                                                   Segment part 338
                                                   Segment part 569
                                                   main
           LOCAL                   ADDRESS         
           =====                   =======         
           AP_DD_Vec1              20000E5C 
    -------------------------------------------------------------------------
DATA_Z
  Relative segment, address: 20000E5E - 20000E5F (0x2 bytes), align: 0
  Segment part 94.            Intra module refs:   Make_Data
                                                   Read_CL_Data
                                                   Segment part 339
                                                   Segment part 340
                                                   Segment part 570
                                                   main
           LOCAL                   ADDRESS         
           =====                   =======         
           AP_DD_Vec2              20000E5E 
    -------------------------------------------------------------------------
DATA_Z
  Relative segment, address: 20000E60 - 20000E61 (0x2 bytes), align: 0
  Segment part 95.            Intra module refs:   Make_Data
                                                   Read_CL_Data
                                                   Segment part 341
                                                   Segment part 342
                                                   Segment part 571
                                                   main
           LOCAL                   ADDRESS         
           =====                   =======         
           AP_PII_Vec              20000E60 
    -------------------------------------------------------------------------
DATA_Z
  Relative segment, address: 20000E62 - 20000E63 (0x2 bytes), align: 0
  Segment part 96.            Intra module refs:   Make_Data
                                                   Read_CL_Data
                                                   Segment part 343
                                                   Segment part 344
                                                   Segment part 572
                                                   main
           LOCAL                   ADDRESS         
           =====                   =======         
           AP_PPL_Vec              20000E62 
    -------------------------------------------------------------------------
DATA_Z
  Relative segment, address: 20000E64 - 20000E65 (0x2 bytes), align: 0
  Segment part 97.            Intra module refs:   Make_Data
                                                   Read_CL_Data
                                                   Segment part 345
                                                   Segment part 346
                                                   Segment part 573
                                                   main
           LOCAL                   ADDRESS         
           =====                   =======         
           AP_PPD_Vec              20000E64 
    -------------------------------------------------------------------------
DATA_Z
  Relative segment, address: 20000E66 - 20000E67 (0x2 bytes), align: 0
  Segment part 98.            Intra module refs:   Make_Data
                                                   Read_CL_Data
                                                   Segment part 347
                                                   Segment part 348
                                                   Segment part 574
                                                   main
           LOCAL                   ADDRESS         
           =====                   =======         
           AP_SP_Vec               20000E66 
    -------------------------------------------------------------------------
DATA_Z
  Relative segment, address: 200003F4 - 200003FF (0xc bytes), align: 2
  Segment part 99.            Intra module refs:   Make_Data
                                                   Read_CL_Data
                                                   Segment part 349
                                                   Segment part 575
                                                   main
           LOCAL                   ADDRESS         
           =====                   =======         
           AP_St_Skip              200003F4 
    -------------------------------------------------------------------------
DATA_Z
  Relative segment, address: 20000E68 - 20000E68 (0x1 bytes), align: 0
  Segment part 100.           Intra module refs:   Set_Var
           LOCAL                   ADDRESS         
           =====                   =======         
           AP_CI_AFLT              20000E68 
    -------------------------------------------------------------------------
DATA_Z
  Relative segment, address: 20000E69 - 20000E69 (0x1 bytes), align: 0
  Segment part 101.           Intra module refs:   Set_Var
           LOCAL                   ADDRESS         
           =====                   =======         
           AP_CI_BFLT              20000E69 
    -------------------------------------------------------------------------
DATA_Z
  Relative segment, address: 20000E6A - 20000E6A (0x1 bytes), align: 0
  Segment part 102.           Intra module refs:   Set_Var
           LOCAL                   ADDRESS         
           =====                   =======         
           AP_CI_FLT               20000E6A 
    -------------------------------------------------------------------------
DATA_Z
  Relative segment, address: 20000E6B - 20000E6B (0x1 bytes), align: 0
  Segment part 103.           Intra module refs:   Set_Var
           LOCAL                   ADDRESS         
           =====                   =======         
           AP_CI_RFLT              20000E6B 
    -------------------------------------------------------------------------
DATA_Z
  Relative segment, address: 20000400 - 20000407 (0x8 bytes), align: 2
  Segment part 104.           Intra module refs:   Set_Var
           LOCAL                   ADDRESS         
           =====                   =======         
           R_CI_Fault              20000400 
    -------------------------------------------------------------------------
DATA_Z
  Relative segment, address: 20000408 - 2000040F (0x8 bytes), align: 2
  Segment part 105.           Intra module refs:   Read_CL_Data
                                                   Segment part 353
                                                   Segment part 578
                                                   main
           LOCAL                   ADDRESS         
           =====                   =======         
           AP_CID_LIC_Rx           20000408 
    -------------------------------------------------------------------------
DATA_Z
  Relative segment, address: 20000E6C - 20000E6C (0x1 bytes), align: 0
  Segment part 106.           Intra module refs:   Make_Data
                                                   Read_CL_Data
                                                   Segment part 579
           LOCAL                   ADDRESS         
           =====                   =======         
           AP_CID_ALIC_Tx          20000E6C 
    -------------------------------------------------------------------------
DATA_Z
  Relative segment, address: 20000E6D - 20000E6D (0x1 bytes), align: 0
  Segment part 107.           Intra module refs:   Make_Data
                                                   Read_CL_Data
                                                   Segment part 580
           LOCAL                   ADDRESS         
           =====                   =======         
           AP_CID_BLIC_Tx          20000E6D 
    -------------------------------------------------------------------------
DATA_Z
  Relative segment, address: 20000410 - 20000417 (0x8 bytes), align: 2
  Segment part 108.           Intra module refs:   Segment part 350
                                                   Segment part 576
                                                   main
           LOCAL                   ADDRESS         
           =====                   =======         
           AP_CID_Rx               20000410 
    -------------------------------------------------------------------------
DATA_Z
  Relative segment, address: 20000418 - 2000041F (0x8 bytes), align: 2
  Segment part 109.           Intra module refs:   Make_Data
                                                   Read_CL_Data
                                                   Segment part 577
           LOCAL                   ADDRESS         
           =====                   =======         
           AP_CID_Tx               20000418 
    -------------------------------------------------------------------------
DATA_Z
  Relative segment, address: 20000E6E - 20000E6E (0x1 bytes), align: 0
  Segment part 110.           Intra module refs:   Make_Data
                                                   Read_CL_Data
                                                   Segment part 581
                                                   main
           LOCAL                   ADDRESS         
           =====                   =======         
           T_CI_Fault              20000E6E 
    -------------------------------------------------------------------------
DATA_Z
  Relative segment, address: 20000E6F - 20000E6F (0x1 bytes), align: 0
  Segment part 111.           Intra module refs:   Port_Check
                                                   Segment part 301
                                                   Segment part 351
                                                   Segment part 582
                                                   main
           LOCAL                   ADDRESS         
           =====                   =======         
           P_CCI                   20000E6F 
    -------------------------------------------------------------------------
DATA_Z
  Relative segment, address: 20000E70 - 20000E70 (0x1 bytes), align: 0
  Segment part 112.           Intra module refs:   Make_Data
           LOCAL                   ADDRESS         
           =====                   =======         
           P_Posi_Index            20000E70 
    -------------------------------------------------------------------------
DATA_Z
  Relative segment, address: 20000420 - 2000044F (0x30 bytes), align: 2
  Segment part 113.           Intra module refs:   Make_Data
                                                   Port_Check
                                                   Read_CL_Data
                                                   Segment part 217
                                                   Segment part 221
                                                   Segment part 244
                                                   Segment part 267
                                                   Segment part 270
                                                   Segment part 271
                                                   Segment part 272
                                                   Segment part 273
                                                   Segment part 274
                                                   Segment part 296
                                                   Segment part 352
                                                   Segment part 413
                                                   Segment part 583
                                                   main
           LOCAL                   ADDRESS         
           =====                   =======         
           AP_Train_ST             20000420 
    -------------------------------------------------------------------------
DATA_Z
  Relative segment, address: 20000E71 - 20000E71 (0x1 bytes), align: 0
  Segment part 114.           Intra module refs:   Set_Var
           LOCAL                   ADDRESS         
           =====                   =======         
           P_LIC_0                 20000E71 
    -------------------------------------------------------------------------
DATA_Z
  Relative segment, address: 20000E72 - 20000E72 (0x1 bytes), align: 0
  Segment part 115.           Intra module refs:   Port_Check
                                                   Segment part 269
                                                   Segment part 375
                                                   Segment part 584
           LOCAL                   ADDRESS         
           =====                   =======         
           P_CNCS_PA               20000E72 
    -------------------------------------------------------------------------
DATA_Z
  Relative segment, address: 20000E73 - 20000E73 (0x1 bytes), align: 0
  Segment part 116.           Intra module refs:   Segment part 585
                                                   main
           LOCAL                   ADDRESS         
           =====                   =======         
           TL_Train_Len            20000E73 
    -------------------------------------------------------------------------
DATA_Z
  Relative segment, address: 20000E74 - 20000E74 (0x1 bytes), align: 0
  Segment part 117.           Intra module refs:   Set_Var
                                                   main
           LOCAL                   ADDRESS         
           =====                   =======         
           TL_Coupling_ID          20000E74 
    -------------------------------------------------------------------------
DATA_Z
  Relative segment, address: 20000E75 - 20000E76 (0x2 bytes), align: 0
  Segment part 118.           Intra module refs:   Segment part 586
                                                   Segment part 587
                                                   main
           LOCAL                   ADDRESS         
           =====                   =======         
           TL_Car_Temp             20000E75 
    -------------------------------------------------------------------------
DATA_Z
  Relative segment, address: 20000E77 - 20000E77 (0x1 bytes), align: 0
  Segment part 119.           Intra module refs:   Set_Var
           LOCAL                   ADDRESS         
           =====                   =======         
           temps8                  20000E77 
    -------------------------------------------------------------------------
DATA_Z
  Relative segment, address: 20000E78 - 20000E78 (0x1 bytes), align: 0
  Segment part 120.           Intra module refs:   Set_Var
           LOCAL                   ADDRESS         
           =====                   =======         
           tempd8                  20000E78 
    -------------------------------------------------------------------------
DATA_Z
  Relative segment, address: 20000E79 - 20000E79 (0x1 bytes), align: 0
  Segment part 121.           Intra module refs:   Segment part 588
                                                   main
           LOCAL                   ADDRESS         
           =====                   =======         
           TLC_State_ID            20000E79 
    -------------------------------------------------------------------------
DATA_Z
  Relative segment, address: 20000E7A - 20000E7A (0x1 bytes), align: 0
  Segment part 122.           Intra module refs:   Segment part 589
                                                   main
           LOCAL                   ADDRESS         
           =====                   =======         
           TLC_Status              20000E7A 
    -------------------------------------------------------------------------
DATA_Z
  Relative segment, address: 20000E7B - 20000E7B (0x1 bytes), align: 0
  Segment part 123.           Intra module refs:   Segment part 590
                                                   main
           LOCAL                   ADDRESS         
           =====                   =======         
           HOC_State               20000E7B 
    -------------------------------------------------------------------------
DATA_Z
  Relative segment, address: 20000E7C - 20000E7C (0x1 bytes), align: 0
  Segment part 124.           Intra module refs:   Segment part 591
                                                   main
           LOCAL                   ADDRESS         
           =====                   =======         
           Pass_State              20000E7C 
    -------------------------------------------------------------------------
DATA_Z
  Relative segment, address: 20000E7D - 20000E7D (0x1 bytes), align: 0
  Segment part 125.           Intra module refs:   Make_Data
                                                   Port_Check
                                                   Segment part 592
                                                   main
           LOCAL                   ADDRESS         
           =====                   =======         
           Coupling_CMD            20000E7D 
    -------------------------------------------------------------------------
DATA_Z
  Relative segment, address: 20000E7E - 20000E7E (0x1 bytes), align: 0
  Segment part 126.           Intra module refs:   Segment part 593
                                                   main
           LOCAL                   ADDRESS         
           =====                   =======         
           TL_CAB_ID               20000E7E 
    -------------------------------------------------------------------------
DATA_Z
  Relative segment, address: 20000E7F - 20000E7F (0x1 bytes), align: 0
  Segment part 127.           Intra module refs:   Segment part 298
                                                   Segment part 594
                                                   main
           LOCAL                   ADDRESS         
           =====                   =======         
           TL_Poll_ID              20000E7F 
    -------------------------------------------------------------------------
DATA_Z
  Relative segment, address: 20000E80 - 20000E80 (0x1 bytes), align: 0
  Segment part 128.           Intra module refs:   Segment part 295
                                                   Segment part 595
                                                   main
           LOCAL                   ADDRESS         
           =====                   =======         
           TL_Chk_ID               20000E80 
    -------------------------------------------------------------------------
DATA_Z
  Relative segment, address: 20000E81 - 20000E81 (0x1 bytes), align: 0
  Segment part 129.           Intra module refs:   Segment part 423
                                                   Segment part 596
                                                   main
           LOCAL                   ADDRESS         
           =====                   =======         
           TL_Rx_Turn              20000E81 
    -------------------------------------------------------------------------
DATA_Z
  Relative segment, address: 20000E82 - 20000E82 (0x1 bytes), align: 0
  Segment part 130.           Intra module refs:   Port_Check
                                                   Segment part 303
                                                   Segment part 424
                                                   Segment part 597
                                                   main
           LOCAL                   ADDRESS         
           =====                   =======         
           TL_Tx_Turn              20000E82 
    -------------------------------------------------------------------------
DATA_Z
  Relative segment, address: 20000450 - 2000064F (0x200 bytes), align: 2
  Segment part 131.           Intra module refs:   Segment part 498
                                                   Segment part 598
           LOCAL                   ADDRESS         
           =====                   =======         
           CRC_Table               20000450 
    -------------------------------------------------------------------------
DATA_Z
  Relative segment, address: 20000E83 - 20000E83 (0x1 bytes), align: 0
  Segment part 132.           Intra module refs:   Segment part 451
                                                   Segment part 599
                                                   main
           LOCAL                   ADDRESS         
           =====                   =======         
           CL_Rx_SrcID             20000E83 
    -------------------------------------------------------------------------
DATA_Z
  Relative segment, address: 20000E84 - 20000E84 (0x1 bytes), align: 0
  Segment part 133.           Intra module refs:   Segment part 452
                                                   Segment part 600
                                                   main
           LOCAL                   ADDRESS         
           =====                   =======         
           CL_Rx_DstID             20000E84 
    -------------------------------------------------------------------------
DATA_Z
  Relative segment, address: 20000E85 - 20000E85 (0x1 bytes), align: 0
  Segment part 134.           Intra module refs:   Segment part 453
                                                   Segment part 601
           LOCAL                   ADDRESS         
           =====                   =======         
           CL_Rx_MCnt              20000E85 
    -------------------------------------------------------------------------
DATA_Z
  Relative segment, address: 20000E86 - 20000E86 (0x1 bytes), align: 0
  Segment part 135.           Intra module refs:   Segment part 454
                                                   Segment part 602
           LOCAL                   ADDRESS         
           =====                   =======         
           CL_Rx_Cmd               20000E86 
    -------------------------------------------------------------------------
DATA_Z
  Relative segment, address: 20000DEE - 20000DEF (0x2 bytes), align: 1
  Segment part 136.           Intra module refs:   Segment part 455
                                                   Segment part 603
           LOCAL                   ADDRESS         
           =====                   =======         
           CL_Rx_Len               20000DEE 
    -------------------------------------------------------------------------
DATA_Z
  Relative segment, address: 20000650 - 2000084F (0x200 bytes), align: 2
  Segment part 137.           Intra module refs:   Read_CL_Data
                                                   Segment part 358
                                                   Segment part 359
                                                   Segment part 384
                                                   Segment part 457
                                                   Segment part 604
           LOCAL                   ADDRESS         
           =====                   =======         
           CL_Rx_Data              20000650 
    -------------------------------------------------------------------------
DATA_Z
  Relative segment, address: 20000DF0 - 20000DF1 (0x2 bytes), align: 1
  Segment part 138.           Intra module refs:   Segment part 446
                                                   Segment part 605
           LOCAL                   ADDRESS         
           =====                   =======         
           CL_Rx_CRC16             20000DF0 
    -------------------------------------------------------------------------
DATA_Z
  Relative segment, address: 20000DF2 - 20000DF3 (0x2 bytes), align: 1
  Segment part 139.           Intra module refs:   Segment part 447
                                                   Segment part 606
           LOCAL                   ADDRESS         
           =====                   =======         
           CL_Rx_CRCTemp           20000DF2 
    -------------------------------------------------------------------------
DATA_Z
  Relative segment, address: 20000E87 - 20000E87 (0x1 bytes), align: 0
  Segment part 140.           Intra module refs:   Segment part 443
                                                   Segment part 607
           LOCAL                   ADDRESS         
           =====                   =======         
           CL_Rx_Tmp_ID            20000E87 
    -------------------------------------------------------------------------
DATA_Z
  Relative segment, address: 20000E88 - 20000E88 (0x1 bytes), align: 0
  Segment part 141.           Intra module refs:   Segment part 444
                                                   Segment part 608
           LOCAL                   ADDRESS         
           =====                   =======         
           CL_Rx_Tmp_Cmd           20000E88 
    -------------------------------------------------------------------------
DATA_Z
  Relative segment, address: 20000E89 - 20000E89 (0x1 bytes), align: 0
  Segment part 142.           Intra module refs:   Segment part 448
                                                   Segment part 609
           LOCAL                   ADDRESS         
           =====                   =======         
           CL_Rx_State             20000E89 
    -------------------------------------------------------------------------
DATA_Z
  Relative segment, address: 20000DF4 - 20000DF5 (0x2 bytes), align: 1
  Segment part 143.           Intra module refs:   Segment part 445
                                                   Segment part 610
           LOCAL                   ADDRESS         
           =====                   =======         
           CL_Rx_16Data            20000DF4 
    -------------------------------------------------------------------------
DATA_Z
  Relative segment, address: 20000DF6 - 20000DF7 (0x2 bytes), align: 1
  Segment part 144.           Intra module refs:   Segment part 456
                                                   Segment part 611
           LOCAL                   ADDRESS         
           =====                   =======         
           CL_Rx_Index             20000DF6 
    -------------------------------------------------------------------------
DATA_Z
  Relative segment, address: 20000E8A - 20000E8A (0x1 bytes), align: 0
  Segment part 145.           Intra module refs:   Segment part 414
                                                   Segment part 458
                                                   Segment part 612
                                                   main
           LOCAL                   ADDRESS         
           =====                   =======         
           CL_OK_Packet            20000E8A 
    -------------------------------------------------------------------------
DATA_Z
  Relative segment, address: 20000DF8 - 20000DF9 (0x2 bytes), align: 1
  Segment part 146.           Intra module refs:   Make_Data
                                                   Read_CL_Data
                                                   Segment part 465
                                                   Segment part 613
                                                   main
           LOCAL                   ADDRESS         
           =====                   =======         
           CL_Tx_Len               20000DF8 
    -------------------------------------------------------------------------
DATA_Z
  Relative segment, address: 20000850 - 2000094F (0x100 bytes), align: 2
  Segment part 147.           Intra module refs:   Make_Data
                                                   Segment part 462
                                                   Segment part 614
           LOCAL                   ADDRESS         
           =====                   =======         
           CL_Tx_Data              20000850 
    -------------------------------------------------------------------------
DATA_Z
  Relative segment, address: 20000950 - 20000B4F (0x200 bytes), align: 2
  Segment part 148.           Intra module refs:   Segment part 464
                                                   Segment part 615
           LOCAL                   ADDRESS         
           =====                   =======         
           CL_Tx_Packet            20000950 
    -------------------------------------------------------------------------
DATA_Z
  Relative segment, address: 20000DFA - 20000DFB (0x2 bytes), align: 1
  Segment part 149.           Intra module refs:   Segment part 463
                                                   Segment part 616
           LOCAL                   ADDRESS         
           =====                   =======         
           CL_Tx_CRC16             20000DFA 
    -------------------------------------------------------------------------
DATA_Z
  Relative segment, address: 20000E8B - 20000E8B (0x1 bytes), align: 0
  Segment part 150.           Intra module refs:   Segment part 466
                                                   Segment part 617
           LOCAL                   ADDRESS         
           =====                   =======         
           CL_Tx_State             20000E8B 
    -------------------------------------------------------------------------
DATA_Z
  Relative segment, address: 20000DFC - 20000DFD (0x2 bytes), align: 1
  Segment part 151.           Intra module refs:   Segment part 460
                                                   Segment part 618
           LOCAL                   ADDRESS         
           =====                   =======         
           CL_Tx_Index             20000DFC 
    -------------------------------------------------------------------------
DATA_Z
  Relative segment, address: 20000E8C - 20000E8C (0x1 bytes), align: 0
  Segment part 152.           Intra module refs:   Segment part 299
                                                   Segment part 478
                                                   Segment part 619
                                                   main
           LOCAL                   ADDRESS         
           =====                   =======         
           TL_Rx_SrcID             20000E8C 
    -------------------------------------------------------------------------
DATA_Z
  Relative segment, address: 20000E8D - 20000E8D (0x1 bytes), align: 0
  Segment part 153.           Intra module refs:   Segment part 479
                                                   Segment part 620
                                                   main
           LOCAL                   ADDRESS         
           =====                   =======         
           TL_Rx_DstID             20000E8D 
    -------------------------------------------------------------------------
DATA_Z
  Relative segment, address: 20000E8E - 20000E8E (0x1 bytes), align: 0
  Segment part 154.           Intra module refs:   Segment part 480
                                                   Segment part 621
                                                   main
           LOCAL                   ADDRESS         
           =====                   =======         
           TL_Rx_MCnt              20000E8E 
    -------------------------------------------------------------------------
DATA_Z
  Relative segment, address: 20000E8F - 20000E8F (0x1 bytes), align: 0
  Segment part 155.           Intra module refs:   Segment part 481
                                                   Segment part 622
                                                   main
           LOCAL                   ADDRESS         
           =====                   =======         
           TL_Rx_Cmd               20000E8F 
    -------------------------------------------------------------------------
DATA_Z
  Relative segment, address: 20000DFE - 20000DFF (0x2 bytes), align: 1
  Segment part 156.           Intra module refs:   Segment part 482
                                                   Segment part 623
           LOCAL                   ADDRESS         
           =====                   =======         
           TL_Rx_Len               20000DFE 
    -------------------------------------------------------------------------
DATA_Z
  Relative segment, address: 20000B50 - 20000C4F (0x100 bytes), align: 2
  Segment part 157.           Intra module refs:   Segment part 484
                                                   Segment part 624
                                                   main
           LOCAL                   ADDRESS         
           =====                   =======         
           TL_Rx_Data              20000B50 
    -------------------------------------------------------------------------
DATA_Z
  Relative segment, address: 20000E00 - 20000E01 (0x2 bytes), align: 1
  Segment part 158.           Intra module refs:   Segment part 471
                                                   Segment part 625
           LOCAL                   ADDRESS         
           =====                   =======         
           TL_Rx_CRC16             20000E00 
    -------------------------------------------------------------------------
DATA_Z
  Relative segment, address: 20000E02 - 20000E03 (0x2 bytes), align: 1
  Segment part 159.           Intra module refs:   Segment part 472
                                                   Segment part 626
           LOCAL                   ADDRESS         
           =====                   =======         
           TL_Rx_CRCTemp           20000E02 
    -------------------------------------------------------------------------
DATA_Z
  Relative segment, address: 20000E90 - 20000E90 (0x1 bytes), align: 0
  Segment part 160.           Intra module refs:   Segment part 473
                                                   Segment part 627
           LOCAL                   ADDRESS         
           =====                   =======         
           TL_Rx_State             20000E90 
    -------------------------------------------------------------------------
DATA_Z
  Relative segment, address: 20000E04 - 20000E05 (0x2 bytes), align: 1
  Segment part 161.           Intra module refs:   Segment part 470
                                                   Segment part 628
           LOCAL                   ADDRESS         
           =====                   =======         
           TL_Rx_16Data            20000E04 
    -------------------------------------------------------------------------
DATA_Z
  Relative segment, address: 20000E06 - 20000E07 (0x2 bytes), align: 1
  Segment part 162.           Intra module refs:   Segment part 483
                                                   Segment part 629
           LOCAL                   ADDRESS         
           =====                   =======         
           TL_Rx_Index             20000E06 
    -------------------------------------------------------------------------
DATA_Z
  Relative segment, address: 20000E91 - 20000E91 (0x1 bytes), align: 0
  Segment part 163.           Intra module refs:   Segment part 422
                                                   Segment part 485
                                                   Segment part 630
                                                   main
           LOCAL                   ADDRESS         
           =====                   =======         
           TL_OK_Packet            20000E91 
    -------------------------------------------------------------------------
DATA_Z
  Relative segment, address: 20000E92 - 20000E92 (0x1 bytes), align: 0
  Segment part 164.           Intra module refs:   Set_Var
           LOCAL                   ADDRESS         
           =====                   =======         
           TL_Tx_SrcID             20000E92 
    -------------------------------------------------------------------------
DATA_Z
  Relative segment, address: 20000E93 - 20000E93 (0x1 bytes), align: 0
  Segment part 165.           Intra module refs:   Set_Var
           LOCAL                   ADDRESS         
           =====                   =======         
           TL_Tx_DstID             20000E93 
    -------------------------------------------------------------------------
DATA_Z
  Relative segment, address: 20000E94 - 20000E94 (0x1 bytes), align: 0
  Segment part 166.           Intra module refs:   Segment part 490
                                                   Segment part 631
                                                   main
           LOCAL                   ADDRESS         
           =====                   =======         
           TL_Tx_MCnt              20000E94 
    -------------------------------------------------------------------------
DATA_Z
  Relative segment, address: 20000E95 - 20000E95 (0x1 bytes), align: 0
  Segment part 167.           Intra module refs:   Segment part 632
                                                   main
           LOCAL                   ADDRESS         
           =====                   =======         
           TL_Tx_Cmd               20000E95 
    -------------------------------------------------------------------------
DATA_Z
  Relative segment, address: 20000E08 - 20000E09 (0x2 bytes), align: 1
  Segment part 168.           Intra module refs:   Make_Data
                                                   Segment part 493
                                                   Segment part 633
                                                   main
           LOCAL                   ADDRESS         
           =====                   =======         
           TL_Tx_Len               20000E08 
    -------------------------------------------------------------------------
DATA_Z
  Relative segment, address: 20000C50 - 20000CCF (0x80 bytes), align: 2
  Segment part 169.           Intra module refs:   Make_Data
                                                   Segment part 491
                                                   Segment part 634
                                                   main
           LOCAL                   ADDRESS         
           =====                   =======         
           TL_Tx_Data              20000C50 
    -------------------------------------------------------------------------
DATA_Z
  Relative segment, address: 20000CD0 - 20000DCF (0x100 bytes), align: 2
  Segment part 170.           Intra module refs:   Segment part 492
                                                   Segment part 635
           LOCAL                   ADDRESS         
           =====                   =======         
           TL_Tx_Packet            20000CD0 
    -------------------------------------------------------------------------
DATA_Z
  Relative segment, address: 20000E0A - 20000E0B (0x2 bytes), align: 1
  Segment part 171.           Intra module refs:   TL_Send
           LOCAL                   ADDRESS         
           =====                   =======         
           TL_Tx_CRC16             20000E0A 
    -------------------------------------------------------------------------
DATA_Z
  Relative segment, address: 20000E96 - 20000E96 (0x1 bytes), align: 0
  Segment part 172.           Intra module refs:   Segment part 287
                                                   Segment part 488
                                                   Segment part 636
           LOCAL                   ADDRESS         
           =====                   =======         
           TL_Tx_State             20000E96 
    -------------------------------------------------------------------------
DATA_Z
  Relative segment, address: 20000E97 - 20000E97 (0x1 bytes), align: 0
  Segment part 173.           Intra module refs:   TL_TxHandler
           LOCAL                   ADDRESS         
           =====                   =======         
           TL_Tx_Rep_Dummy         20000E97 
    -------------------------------------------------------------------------
DATA_Z
  Relative segment, address: 20000E0C - 20000E0D (0x2 bytes), align: 1
  Segment part 174.           Intra module refs:   Segment part 487
                                                   Segment part 637
           LOCAL                   ADDRESS         
           =====                   =======         
           TL_Tx_Index             20000E0C 
    -------------------------------------------------------------------------
DATA_Z
  Relative segment, address: 20000E98 - 20000E98 (0x1 bytes), align: 0
  Segment part 175.           Intra module refs:   Segment part 286
                                                   Segment part 495
                                                   Segment part 638
           LOCAL                   ADDRESS         
           =====                   =======         
           TL_Mode_Send            20000E98 
    -------------------------------------------------------------------------
DATA_Z
  Relative segment, address: 20000E99 - 20000E99 (0x1 bytes), align: 0
  Segment part 176.           Intra module refs:   Segment part 288
                                                   Segment part 494
                                                   Segment part 639
           LOCAL                   ADDRESS         
           =====                   =======         
           TL_State_Send           20000E99 
    -------------------------------------------------------------------------
DATA_Z
  Relative segment, address: 20000DD0 - 20000DD3 (0x4 bytes), align: 2
  Segment part 177.           Intra module refs:   Make_Data
           LOCAL                   ADDRESS         
           =====                   =======         
           gByTachoCount           20000DD0 
    -------------------------------------------------------------------------
DATA_Z
  Relative segment, address: 20000E9A - 20000E9A (0x1 bytes), align: 0
  Segment part 178.           Intra module refs:   Segment part 369
                                                   Segment part 381
                                                   main
           LOCAL                   ADDRESS         
           =====                   =======         
           Flash_Enable            20000E9A 
    -------------------------------------------------------------------------
DATA_Z
  Relative segment, address: 20000E9B - 20000E9D (0x3 bytes), align: 0
  Segment part 179.           Intra module refs:   main
           LOCAL                   ADDRESS         
           =====                   =======         
           A_FirmVer               20000E9B 
    -------------------------------------------------------------------------
DATA_Z
  Relative segment, address: 20000E9E - 20000EA0 (0x3 bytes), align: 0
  Segment part 180.           Intra module refs:   main
           LOCAL                   ADDRESS         
           =====                   =======         
           A_FirmDate              20000E9E 
    -------------------------------------------------------------------------
DATA_Z
  Relative segment, address: 20000EA1 - 20000EA1 (0x1 bytes), align: 0
  Segment part 181.           Intra module refs:   main
           LOCAL                   ADDRESS         
           =====                   =======         
           Temp_H                  20000EA1 
    -------------------------------------------------------------------------
DATA_Z
  Relative segment, address: 20000EA2 - 20000EA2 (0x1 bytes), align: 0
  Segment part 182.           Intra module refs:   main
           LOCAL                   ADDRESS         
           =====                   =======         
           Temp_L                  20000EA2 
    -------------------------------------------------------------------------
DATA_Z
  Relative segment, address: 20000EA3 - 20000EA4 (0x2 bytes), align: 0
  Segment part 183.           Intra module refs:   Segment part 354
                                                   Segment part 355
                                                   Segment part 386
                                                   Segment part 387
                                                   Set_Var
           LOCAL                   ADDRESS         
           =====                   =======         
           VoIP_Call_ID            20000EA3 
    -------------------------------------------------------------------------
DATA_Z
  Relative segment, address: 20000EA5 - 20000EA5 (0x1 bytes), align: 0
  Segment part 184.           Intra module refs:   Make_Data
                                                   Segment part 385
                                                   Set_Var
           LOCAL                   ADDRESS         
           =====                   =======         
           VoIP_Call_State         20000EA5 
    -------------------------------------------------------------------------
DATA_Z
  Relative segment, address: 20000EA6 - 20000EA6 (0x1 bytes), align: 0
  Segment part 185.           Intra module refs:   Read_CL_Data
           LOCAL                   ADDRESS         
           =====                   =======         
           PTT_Ctrl_Flag           20000EA6 
    -------------------------------------------------------------------------
DATA_Z
  Relative segment, address: 20000EA7 - 20000EA7 (0x1 bytes), align: 0
  Segment part 187.           Intra module refs:   Segment part 209
           ENTRY                   ADDRESS         REF BY
           =====                   =======         ======
           gByMP3RxState           20000EA7 
    -------------------------------------------------------------------------
DATA_Z
  Relative segment, address: 20000EA8 - 20000EA8 (0x1 bytes), align: 0
  Segment part 188.           Intra module refs:   Segment part 211
           ENTRY                   ADDRESS         REF BY
           =====                   =======         ======
           gByRxCount              20000EA8 
    -------------------------------------------------------------------------
DATA_Z
  Relative segment, address: 20000DD4 - 20000DE7 (0x14 bytes), align: 2
  Segment part 189.           Intra module refs:   MP3_SerialDataParsing
                                                   Segment part 210
           ENTRY                   ADDRESS         REF BY
           =====                   =======         ======
           gByMP3RxData            20000DD4 
    -------------------------------------------------------------------------
DATA_Z
  Relative segment, address: 20000EA9 - 20000EA9 (0x1 bytes), align: 0
  Segment part 190.           Intra module refs:   MP3_SerialDataParsing
           LOCAL                   ADDRESS         
           =====                   =======         
           gByPACtoCNCS_MP3State   20000EA9 
    -------------------------------------------------------------------------
DATA_Z
  Relative segment, address: 20000EAA - 20000EAA (0x1 bytes), align: 0
  Segment part 191.           Intra module refs:   Port_Check
           LOCAL                   ADDRESS         
           =====                   =======         
           gbyMP3PlayFlag          20000EAA 
    -------------------------------------------------------------------------
DATA_Z
  Relative segment, address: 20000EAB - 20000EAB (0x1 bytes), align: 0
  Segment part 192.           Intra module refs:   Port_Check
                                                   Set_Var
           LOCAL                   ADDRESS         
           =====                   =======         
           Reconfig_PortA_St       20000EAB 
    -------------------------------------------------------------------------
DATA_Z
  Relative segment, address: 20000EAC - 20000EAC (0x1 bytes), align: 0
  Segment part 193.           Intra module refs:   Port_Check
                                                   Set_Var
           LOCAL                   ADDRESS         
           =====                   =======         
           Reconfig_PortB_St       20000EAC 
    -------------------------------------------------------------------------
DATA_Z
  Relative segment, address: 20000E0E - 20000E0F (0x2 bytes), align: 1
  Segment part 194.           Intra module refs:   Port_Check
                                                   Segment part 290
                                                   Set_Var
           LOCAL                   ADDRESS         
           =====                   =======         
           PortA_Check_Times       20000E0E 
    -------------------------------------------------------------------------
DATA_Z
  Relative segment, address: 20000E10 - 20000E11 (0x2 bytes), align: 1
  Segment part 195.           Intra module refs:   Port_Check
                                                   Segment part 291
                                                   Set_Var
           LOCAL                   ADDRESS         
           =====                   =======         
           PortB_Check_Times       20000E10 
    -------------------------------------------------------------------------
DATA_Z
  Relative segment, address: 20000E12 - 20000E13 (0x2 bytes), align: 1
  Segment part 196.           Intra module refs:   Port_Check
                                                   Set_Var
           LOCAL                   ADDRESS         
           =====                   =======         
           PortA_DecCheck_Times    20000E12 
    -------------------------------------------------------------------------
DATA_Z
  Relative segment, address: 20000E14 - 20000E15 (0x2 bytes), align: 1
  Segment part 197.           Intra module refs:   Port_Check
                                                   Set_Var
           LOCAL                   ADDRESS         
           =====                   =======         
           PortB_DecCheck_Times    20000E14 
    -------------------------------------------------------------------------
DATA_Z
  Relative segment, address: 20000EAD - 20000EAD (0x1 bytes), align: 0
  Segment part 198.           Intra module refs:   Set_Var
                                                   main
           LOCAL                   ADDRESS         
           =====                   =======         
           TL_Comm_Verify          20000EAD 
    -------------------------------------------------------------------------
DATA_Z
  Relative segment, address: 20000EAE - 20000EAE (0x1 bytes), align: 0
  Segment part 199.           Intra module refs:   Set_Var
                                                   main
           LOCAL                   ADDRESS         
           =====                   =======         
           TL_CarNum_MSB           20000EAE 
    -------------------------------------------------------------------------
DATA_Z
  Relative segment, address: 20000EAF - 20000EAF (0x1 bytes), align: 0
  Segment part 200.           Intra module refs:   Set_Var
                                                   main
           LOCAL                   ADDRESS         
           =====                   =======         
           TL_CarNum_LSB           20000EAF 
    -------------------------------------------------------------------------
CODE
  Relative segment, address: 40005D1C - 40005D4B (0x30 bytes), align: 2
  Segment part 202.           Intra module refs:   Read_CL_Data
           ENTRY                   ADDRESS         REF BY
           =====                   =======         ======
           OCC_Ptt_Ctrl_SpeakerMode
                                   40005D1C 
               stack 1 = 00000000 ( 00000008 )
    -------------------------------------------------------------------------
CODE
  Relative segment, address: 40005D4C - 40005D7B (0x30 bytes), align: 2
  Segment part 203.           Intra module refs:   Read_CL_Data
           ENTRY                   ADDRESS         REF BY
           =====                   =======         ======
           OCC_Ptt_Ctrl_MicMode    40005D4C 
               stack 1 = 00000000 ( 00000008 )
    -------------------------------------------------------------------------
CODE
  Relative segment, address: 40005D7C - 40005D7F (0x4 bytes), align: 2
  Segment part 204.           Intra module refs:   OCC_Ptt_Ctrl_MicMode
                                                   OCC_Ptt_Ctrl_SpeakerMode
    -------------------------------------------------------------------------
CODE
  Relative segment, address: 40005D80 - 40005DB7 (0x38 bytes), align: 2
  Segment part 205.           Intra module refs:   MP3_SerialDataParsing
           ENTRY                   ADDRESS         REF BY
           =====                   =======         ======
           CheckCMDLine            40005D80 
               stack 1 = 00000000 ( 00000008 )
    -------------------------------------------------------------------------
CODE
  Relative segment, address: 40005DB8 - 40005E3B (0x84 bytes), align: 2
  Segment part 206.
           ENTRY                   ADDRESS         REF BY
           =====                   =======         ======
           MP3_RxHandler           40005DB8        UART3_IRQHandler (71x_it)
    -------------------------------------------------------------------------
CODE
  Relative segment, address: 40005E3C - 40005E8B (0x50 bytes), align: 2
  Segment part 207.           Intra module refs:   MP3_SerialDataParsing
           ENTRY                   ADDRESS         REF BY
           =====                   =======         ======
           MP3_RxBuffClr           40005E3C 
    -------------------------------------------------------------------------
CODE
  Relative segment, address: 40005E8C - 40005FDF (0x154 bytes), align: 2
  Segment part 208.           Intra module refs:   main
           ENTRY                   ADDRESS         REF BY
           =====                   =======         ======
           MP3_SerialDataParsing   40005E8C 
               stack 1 = 00000000 ( 00000008 )
    -------------------------------------------------------------------------
CODE
  Relative segment, address: 40005FE0 - 40005FE3 (0x4 bytes), align: 2
  Segment part 209.           Intra module refs:   MP3_RxBuffClr
                                                   MP3_RxHandler
                                                   MP3_SerialDataParsing
    -------------------------------------------------------------------------
CODE
  Relative segment, address: 40005FE4 - 40005FE7 (0x4 bytes), align: 2
  Segment part 210.           Intra module refs:   CheckCMDLine
                                                   MP3_RxBuffClr
                                                   MP3_RxHandler
                                                   MP3_SerialDataParsing
    -------------------------------------------------------------------------
CODE
  Relative segment, address: 40005FE8 - 40005FEB (0x4 bytes), align: 2
  Segment part 211.           Intra module refs:   MP3_RxBuffClr
                                                   MP3_RxHandler
                                                   MP3_SerialDataParsing
    -------------------------------------------------------------------------
CODE
  Relative segment, address: 40005FEC - 40009BD3 (0x3be8 bytes), align: 2
  Segment part 212.
           ENTRY                   ADDRESS         REF BY
           =====                   =======         ======
           main                    40005FEC        _main (?CMAIN)
               stack 1 = 00000000 ( 00000018 )
    -------------------------------------------------------------------------
CODE
  Relative segment, address: 40009BD4 - 4000AA13 (0xe40 bytes), align: 2
  Segment part 213.           Intra module refs:   main
           LOCAL                   ADDRESS         
           =====                   =======         
           Device_Check            40009BD4 
               stack 1 = 00000000 ( 00000008 )
    -------------------------------------------------------------------------
CODE
  Relative segment, address: 4000AA14 - 4000AA17 (0x4 bytes), align: 2
  Segment part 214.           Intra module refs:   Device_Check
    -------------------------------------------------------------------------
CODE
  Relative segment, address: 4000AA18 - 4000AA1B (0x4 bytes), align: 2
  Segment part 215.           Intra module refs:   Device_Check
    -------------------------------------------------------------------------
CODE
  Relative segment, address: 4000AA1C - 4000AA1F (0x4 bytes), align: 2
  Segment part 216.           Intra module refs:   Device_Check
    -------------------------------------------------------------------------
CODE
  Relative segment, address: 4000AA20 - 4000AA23 (0x4 bytes), align: 2
  Segment part 217.           Intra module refs:   Device_Check
    -------------------------------------------------------------------------
CODE
  Relative segment, address: 4000AA24 - 4000AA27 (0x4 bytes), align: 2
  Segment part 218.           Intra module refs:   Device_Check
    -------------------------------------------------------------------------
CODE
  Relative segment, address: 4000AA28 - 4000AA2B (0x4 bytes), align: 2
  Segment part 219.           Intra module refs:   Device_Check
    -------------------------------------------------------------------------
CODE
  Relative segment, address: 4000AA2C - 4000AA2F (0x4 bytes), align: 2
  Segment part 220.           Intra module refs:   Device_Check
    -------------------------------------------------------------------------
CODE
  Relative segment, address: 4000AA30 - 4000AA33 (0x4 bytes), align: 2
  Segment part 221.           Intra module refs:   Device_Check
    -------------------------------------------------------------------------
CODE
  Relative segment, address: 4000AA34 - 4000AA37 (0x4 bytes), align: 2
  Segment part 222.           Intra module refs:   Device_Check
    -------------------------------------------------------------------------
CODE
  Relative segment, address: 4000AA38 - 4000AA3B (0x4 bytes), align: 2
  Segment part 223.           Intra module refs:   Device_Check
    -------------------------------------------------------------------------
CODE
  Relative segment, address: 4000AA3C - 4000AA3F (0x4 bytes), align: 2
  Segment part 224.           Intra module refs:   Device_Check
    -------------------------------------------------------------------------
CODE
  Relative segment, address: 4000AA40 - 4000AA43 (0x4 bytes), align: 2
  Segment part 225.           Intra module refs:   Device_Check
    -------------------------------------------------------------------------
CODE
  Relative segment, address: 4000AA44 - 4000AA47 (0x4 bytes), align: 2
  Segment part 226.           Intra module refs:   Device_Check
    -------------------------------------------------------------------------
CODE
  Relative segment, address: 4000AA48 - 4000AA4B (0x4 bytes), align: 2
  Segment part 227.           Intra module refs:   Device_Check
    -------------------------------------------------------------------------
CODE
  Relative segment, address: 4000AA4C - 4000AA4F (0x4 bytes), align: 2
  Segment part 228.           Intra module refs:   Device_Check
    -------------------------------------------------------------------------
CODE
  Relative segment, address: 4000AA50 - 4000AA53 (0x4 bytes), align: 2
  Segment part 229.           Intra module refs:   Device_Check
    -------------------------------------------------------------------------
CODE
  Relative segment, address: 4000AA54 - 4000AA57 (0x4 bytes), align: 2
  Segment part 230.           Intra module refs:   Device_Check
    -------------------------------------------------------------------------
CODE
  Relative segment, address: 4000AA58 - 4000AA5B (0x4 bytes), align: 2
  Segment part 231.           Intra module refs:   Device_Check
    -------------------------------------------------------------------------
CODE
  Relative segment, address: 4000AA5C - 4000AA5F (0x4 bytes), align: 2
  Segment part 232.           Intra module refs:   Device_Check
    -------------------------------------------------------------------------
CODE
  Relative segment, address: 4000AA60 - 4000AA63 (0x4 bytes), align: 2
  Segment part 233.           Intra module refs:   Device_Check
    -------------------------------------------------------------------------
CODE
  Relative segment, address: 4000AA64 - 4000AA67 (0x4 bytes), align: 2
  Segment part 234.           Intra module refs:   Device_Check
    -------------------------------------------------------------------------
CODE
  Relative segment, address: 4000AA68 - 4000AA6B (0x4 bytes), align: 2
  Segment part 235.           Intra module refs:   Device_Check
    -------------------------------------------------------------------------
CODE
  Relative segment, address: 4000AA6C - 4000AA6F (0x4 bytes), align: 2
  Segment part 236.           Intra module refs:   Device_Check
    -------------------------------------------------------------------------
CODE
  Relative segment, address: 4000AA70 - 4000AA73 (0x4 bytes), align: 2
  Segment part 237.           Intra module refs:   Device_Check
    -------------------------------------------------------------------------
CODE
  Relative segment, address: 4000AA74 - 4000AA77 (0x4 bytes), align: 2
  Segment part 238.           Intra module refs:   Device_Check
    -------------------------------------------------------------------------
CODE
  Relative segment, address: 4000AA78 - 4000AA7B (0x4 bytes), align: 2
  Segment part 239.           Intra module refs:   Device_Check
    -------------------------------------------------------------------------
CODE
  Relative segment, address: 4000AA7C - 4000AA7F (0x4 bytes), align: 2
  Segment part 240.           Intra module refs:   Device_Check
    -------------------------------------------------------------------------
CODE
  Relative segment, address: 4000AA80 - 4000AA83 (0x4 bytes), align: 2
  Segment part 241.           Intra module refs:   Device_Check
    -------------------------------------------------------------------------
CODE
  Relative segment, address: 4000AA84 - 4000AA87 (0x4 bytes), align: 2
  Segment part 242.           Intra module refs:   Device_Check
    -------------------------------------------------------------------------
CODE
  Relative segment, address: 4000AA88 - 4000AA8B (0x4 bytes), align: 2
  Segment part 243.           Intra module refs:   Device_Check
    -------------------------------------------------------------------------
CODE
  Relative segment, address: 4000AA8C - 4000AA8F (0x4 bytes), align: 2
  Segment part 244.           Intra module refs:   Device_Check
    -------------------------------------------------------------------------
CODE
  Relative segment, address: 4000AA90 - 4000AA93 (0x4 bytes), align: 2
  Segment part 245.           Intra module refs:   Device_Check
    -------------------------------------------------------------------------
CODE
  Relative segment, address: 4000AA94 - 4000AA97 (0x4 bytes), align: 2
  Segment part 246.           Intra module refs:   Device_Check
    -------------------------------------------------------------------------
CODE
  Relative segment, address: 4000AA98 - 4000AA9B (0x4 bytes), align: 2
  Segment part 247.           Intra module refs:   Device_Check
    -------------------------------------------------------------------------
CODE
  Relative segment, address: 4000AA9C - 4000AA9F (0x4 bytes), align: 2
  Segment part 248.           Intra module refs:   Device_Check
    -------------------------------------------------------------------------
CODE
  Relative segment, address: 4000AAA0 - 4000CF43 (0x24a4 bytes), align: 2
  Segment part 249.           Intra module refs:   main
           LOCAL                   ADDRESS         
           =====                   =======         
           Port_Check              4000AAA0 
               stack 1 = 00000000 ( 00000028 )
    -------------------------------------------------------------------------
CODE
  Relative segment, address: 4000CF44 - 4000D21B (0x2d8 bytes), align: 2
  Segment part 250.           Intra module refs:   Device_Check
                                                   OCC_Ptt_Ctrl_MicMode
                                                   OCC_Ptt_Ctrl_SpeakerMode
                                                   Port_Check
                                                   Set_MS_State
                                                   main
           LOCAL                   ADDRESS         
           =====                   =======         
           Port_RW_Data            4000CF44 
    -------------------------------------------------------------------------
CODE
  Relative segment, address: 4000D21C - 4000D21F (0x4 bytes), align: 2
  Segment part 251.           Intra module refs:   Port_RW_Data
    -------------------------------------------------------------------------
CODE
  Relative segment, address: 4000D220 - 4000D223 (0x4 bytes), align: 2
  Segment part 252.           Intra module refs:   Port_RW_Data
    -------------------------------------------------------------------------
CODE
  Relative segment, address: 4000D224 - 4000D227 (0x4 bytes), align: 2
  Segment part 253.           Intra module refs:   Port_RW_Data
    -------------------------------------------------------------------------
CODE
  Relative segment, address: 4000D228 - 4000D24B (0x24 bytes), align: 2
  Segment part 254.
           ENTRY                   ADDRESS         REF BY
           =====                   =======         ======
           Tim1_ISR                4000D228        T1TIMI_IRQHandler (71x_it)
               stack 1 = 00000000 ( 00000008 )
    -------------------------------------------------------------------------
CODE
  Relative segment, address: 4000D24C - 4000D26F (0x24 bytes), align: 2
  Segment part 255.
           ENTRY                   ADDRESS         REF BY
           =====                   =======         ======
           Tim2_ISR                4000D24C        T2TIMI_IRQHandler (71x_it)
               stack 1 = 00000000 ( 00000008 )
    -------------------------------------------------------------------------
CODE
  Relative segment, address: 4000D270 - 4000E11B (0xeac bytes), align: 2
  Segment part 256.           Intra module refs:   Tim1_ISR
           ENTRY                   ADDRESS         REF BY
           =====                   =======         ======
           CL_Timer                4000D270 
               stack 1 = 00000000 ( 00000008 )
    -------------------------------------------------------------------------
CODE
  Relative segment, address: 4000E11C - 4000E11F (0x4 bytes), align: 2
  Segment part 257.           Intra module refs:   CL_Timer
    -------------------------------------------------------------------------
CODE
  Relative segment, address: 4000E120 - 4000E123 (0x4 bytes), align: 2
  Segment part 258.           Intra module refs:   CL_Timer
    -------------------------------------------------------------------------
CODE
  Relative segment, address: 4000E124 - 4000E127 (0x4 bytes), align: 2
  Segment part 259.           Intra module refs:   CL_Timer
    -------------------------------------------------------------------------
CODE
  Relative segment, address: 4000E128 - 4000E12B (0x4 bytes), align: 2
  Segment part 260.           Intra module refs:   CL_Timer
    -------------------------------------------------------------------------
CODE
  Relative segment, address: 4000E12C - 4000E12F (0x4 bytes), align: 2
  Segment part 261.           Intra module refs:   CL_Timer
    -------------------------------------------------------------------------
CODE
  Relative segment, address: 4000E130 - 4000E133 (0x4 bytes), align: 2
  Segment part 262.           Intra module refs:   CL_Timer
    -------------------------------------------------------------------------
CODE
  Relative segment, address: 4000E134 - 4000E137 (0x4 bytes), align: 2
  Segment part 263.           Intra module refs:   CL_Timer
    -------------------------------------------------------------------------
CODE
  Relative segment, address: 4000E138 - 4000E13B (0x4 bytes), align: 2
  Segment part 264.           Intra module refs:   CL_Timer
    -------------------------------------------------------------------------
CODE
  Relative segment, address: 4000E13C - 4000E13F (0x4 bytes), align: 2
  Segment part 265.           Intra module refs:   CL_Timer
    -------------------------------------------------------------------------
CODE
  Relative segment, address: 4000E140 - 4000E143 (0x4 bytes), align: 2
  Segment part 266.           Intra module refs:   CL_Timer
    -------------------------------------------------------------------------
CODE
  Relative segment, address: 4000E144 - 4000E147 (0x4 bytes), align: 2
  Segment part 267.           Intra module refs:   CL_Timer
    -------------------------------------------------------------------------
CODE
  Relative segment, address: 4000E148 - 4000E14B (0x4 bytes), align: 2
  Segment part 268.           Intra module refs:   CL_Timer
    -------------------------------------------------------------------------
CODE
  Relative segment, address: 4000E14C - 4000E14F (0x4 bytes), align: 2
  Segment part 269.           Intra module refs:   CL_Timer
    -------------------------------------------------------------------------
CODE
  Relative segment, address: 4000E150 - 4000E153 (0x4 bytes), align: 2
  Segment part 270.           Intra module refs:   CL_Timer
    -------------------------------------------------------------------------
CODE
  Relative segment, address: 4000E154 - 4000E157 (0x4 bytes), align: 2
  Segment part 271.           Intra module refs:   CL_Timer
    -------------------------------------------------------------------------
CODE
  Relative segment, address: 4000E158 - 4000E15B (0x4 bytes), align: 2
  Segment part 272.           Intra module refs:   CL_Timer
    -------------------------------------------------------------------------
CODE
  Relative segment, address: 4000E15C - 4000E15F (0x4 bytes), align: 2
  Segment part 273.           Intra module refs:   CL_Timer
    -------------------------------------------------------------------------
CODE
  Relative segment, address: 4000E160 - 4000E163 (0x4 bytes), align: 2
  Segment part 274.           Intra module refs:   CL_Timer
    -------------------------------------------------------------------------
CODE
  Relative segment, address: 4000E164 - 4000E167 (0x4 bytes), align: 2
  Segment part 275.           Intra module refs:   CL_Timer
    -------------------------------------------------------------------------
CODE
  Relative segment, address: 4000E168 - 4000E16B (0x4 bytes), align: 2
  Segment part 276.           Intra module refs:   CL_Timer
    -------------------------------------------------------------------------
CODE
  Relative segment, address: 4000E16C - 4000E16F (0x4 bytes), align: 2
  Segment part 277.           Intra module refs:   CL_Timer
    -------------------------------------------------------------------------
CODE
  Relative segment, address: 4000E170 - 4000E173 (0x4 bytes), align: 2
  Segment part 278.           Intra module refs:   CL_Timer
    -------------------------------------------------------------------------
CODE
  Relative segment, address: 4000E174 - 4000E177 (0x4 bytes), align: 2
  Segment part 279.           Intra module refs:   CL_Timer
    -------------------------------------------------------------------------
CODE
  Relative segment, address: 4000E178 - 4000E17B (0x4 bytes), align: 2
  Segment part 280.           Intra module refs:   CL_Timer
    -------------------------------------------------------------------------
CODE
  Relative segment, address: 4000E17C - 4000E17F (0x4 bytes), align: 2
  Segment part 281.           Intra module refs:   CL_Timer
    -------------------------------------------------------------------------
CODE
  Relative segment, address: 4000E180 - 4000E183 (0x4 bytes), align: 2
  Segment part 282.           Intra module refs:   CL_Timer
    -------------------------------------------------------------------------
CODE
  Relative segment, address: 4000E184 - 4000E187 (0x4 bytes), align: 2
  Segment part 283.           Intra module refs:   CL_Timer
    -------------------------------------------------------------------------
CODE
  Relative segment, address: 4000E188 - 4000E18B (0x4 bytes), align: 2
  Segment part 284.           Intra module refs:   CL_Timer
    -------------------------------------------------------------------------
CODE
  Relative segment, address: 4000E18C - 4000E18F (0x4 bytes), align: 2
  Segment part 285.           Intra module refs:   CL_Timer
    -------------------------------------------------------------------------
CODE
  Relative segment, address: 4000E190 - 4000E193 (0x4 bytes), align: 2
  Segment part 286.           Intra module refs:   CL_Timer
    -------------------------------------------------------------------------
CODE
  Relative segment, address: 4000E194 - 4000E197 (0x4 bytes), align: 2
  Segment part 287.           Intra module refs:   CL_Timer
    -------------------------------------------------------------------------
CODE
  Relative segment, address: 4000E198 - 4000E19B (0x4 bytes), align: 2
  Segment part 288.           Intra module refs:   CL_Timer
    -------------------------------------------------------------------------
CODE
  Relative segment, address: 4000E19C - 4000E19F (0x4 bytes), align: 2
  Segment part 289.           Intra module refs:   CL_Timer
    -------------------------------------------------------------------------
CODE
  Relative segment, address: 4000E1A0 - 4000E1A3 (0x4 bytes), align: 2
  Segment part 290.           Intra module refs:   CL_Timer
    -------------------------------------------------------------------------
CODE
  Relative segment, address: 4000E1A4 - 4000E1A7 (0x4 bytes), align: 2
  Segment part 291.           Intra module refs:   CL_Timer
    -------------------------------------------------------------------------
CODE
  Relative segment, address: 4000E1A8 - 4000E44B (0x2a4 bytes), align: 2
  Segment part 292.           Intra module refs:   Tim2_ISR
           ENTRY                   ADDRESS         REF BY
           =====                   =======         ======
           TL_Timer                4000E1A8 
               stack 1 = 00000000 ( 00000008 )
    -------------------------------------------------------------------------
CODE
  Relative segment, address: 4000E44C - 4000E44F (0x4 bytes), align: 2
  Segment part 293.           Intra module refs:   TL_Timer
    -------------------------------------------------------------------------
CODE
  Relative segment, address: 4000E450 - 4000E453 (0x4 bytes), align: 2
  Segment part 294.           Intra module refs:   TL_Timer
    -------------------------------------------------------------------------
CODE
  Relative segment, address: 4000E454 - 4000E457 (0x4 bytes), align: 2
  Segment part 295.           Intra module refs:   TL_Timer
    -------------------------------------------------------------------------
CODE
  Relative segment, address: 4000E458 - 4000E45B (0x4 bytes), align: 2
  Segment part 296.           Intra module refs:   TL_Timer
    -------------------------------------------------------------------------
CODE
  Relative segment, address: 4000E45C - 4000E45F (0x4 bytes), align: 2
  Segment part 297.           Intra module refs:   TL_Timer
    -------------------------------------------------------------------------
CODE
  Relative segment, address: 4000E460 - 4000E463 (0x4 bytes), align: 2
  Segment part 298.           Intra module refs:   TL_Timer
    -------------------------------------------------------------------------
CODE
  Relative segment, address: 4000E464 - 4000E467 (0x4 bytes), align: 2
  Segment part 299.           Intra module refs:   TL_Timer
    -------------------------------------------------------------------------
CODE
  Relative segment, address: 4000E468 - 4000E46B (0x4 bytes), align: 2
  Segment part 300.           Intra module refs:   TL_Timer
    -------------------------------------------------------------------------
CODE
  Relative segment, address: 4000E46C - 4000E46F (0x4 bytes), align: 2
  Segment part 301.           Intra module refs:   TL_Timer
    -------------------------------------------------------------------------
CODE
  Relative segment, address: 4000E470 - 4000E473 (0x4 bytes), align: 2
  Segment part 302.           Intra module refs:   TL_Timer
    -------------------------------------------------------------------------
CODE
  Relative segment, address: 4000E474 - 4000E477 (0x4 bytes), align: 2
  Segment part 303.           Intra module refs:   TL_Timer
    -------------------------------------------------------------------------
CODE
  Relative segment, address: 4000E478 - 4000E47B (0x4 bytes), align: 2
  Segment part 304.           Intra module refs:   TL_Timer
    -------------------------------------------------------------------------
CODE
  Relative segment, address: 4000E47C - 4000E47F (0x4 bytes), align: 2
  Segment part 305.           Intra module refs:   TL_Timer
    -------------------------------------------------------------------------
CODE
  Relative segment, address: 4000E480 - 4000FAAB (0x162c bytes), align: 2
  Segment part 306.           Intra module refs:   Read_CL_Data
                                                   main
           LOCAL                   ADDRESS         
           =====                   =======         
           Make_Data               4000E480 
               stack 1 = 00000000 ( 00000008 )
    -------------------------------------------------------------------------
CODE
  Relative segment, address: 4000FAAC - 4000FAAF (0x4 bytes), align: 2
  Segment part 307.           Intra module refs:   Make_Data
    -------------------------------------------------------------------------
CODE
  Relative segment, address: 4000FAB0 - 4000FAB3 (0x4 bytes), align: 2
  Segment part 308.           Intra module refs:   Make_Data
    -------------------------------------------------------------------------
CODE
  Relative segment, address: 4000FAB4 - 4000FAB7 (0x4 bytes), align: 2
  Segment part 309.           Intra module refs:   Make_Data
    -------------------------------------------------------------------------
CODE
  Relative segment, address: 4000FAB8 - 4000FABB (0x4 bytes), align: 2
  Segment part 310.           Intra module refs:   Make_Data
    -------------------------------------------------------------------------
CODE
  Relative segment, address: 4000FABC - 4000FABF (0x4 bytes), align: 2
  Segment part 311.           Intra module refs:   Make_Data
    -------------------------------------------------------------------------
CODE
  Relative segment, address: 4000FAC0 - 4000FAC3 (0x4 bytes), align: 2
  Segment part 312.           Intra module refs:   Make_Data
    -------------------------------------------------------------------------
CODE
  Relative segment, address: 4000FAC4 - 4000FAC7 (0x4 bytes), align: 2
  Segment part 313.           Intra module refs:   Make_Data
    -------------------------------------------------------------------------
CODE
  Relative segment, address: 4000FAC8 - 4000FACB (0x4 bytes), align: 2
  Segment part 314.           Intra module refs:   Make_Data
    -------------------------------------------------------------------------
CODE
  Relative segment, address: 4000FACC - 4000FACF (0x4 bytes), align: 2
  Segment part 315.           Intra module refs:   Make_Data
    -------------------------------------------------------------------------
CODE
  Relative segment, address: 4000FAD0 - 4000FAD3 (0x4 bytes), align: 2
  Segment part 316.           Intra module refs:   Make_Data
    -------------------------------------------------------------------------
CODE
  Relative segment, address: 4000FAD4 - 4000FAD7 (0x4 bytes), align: 2
  Segment part 317.           Intra module refs:   Make_Data
    -------------------------------------------------------------------------
CODE
  Relative segment, address: 4000FAD8 - 4000FADB (0x4 bytes), align: 2
  Segment part 318.           Intra module refs:   Make_Data
    -------------------------------------------------------------------------
CODE
  Relative segment, address: 4000FADC - 4000FADF (0x4 bytes), align: 2
  Segment part 319.           Intra module refs:   Make_Data
    -------------------------------------------------------------------------
CODE
  Relative segment, address: 4000FAE0 - 4000FAE3 (0x4 bytes), align: 2
  Segment part 320.           Intra module refs:   Make_Data
    -------------------------------------------------------------------------
CODE
  Relative segment, address: 4000FAE4 - 4000FAE7 (0x4 bytes), align: 2
  Segment part 321.           Intra module refs:   Make_Data
    -------------------------------------------------------------------------
CODE
  Relative segment, address: 4000FAE8 - 4000FAEB (0x4 bytes), align: 2
  Segment part 322.           Intra module refs:   Make_Data
    -------------------------------------------------------------------------
CODE
  Relative segment, address: 4000FAEC - 4000FAEF (0x4 bytes), align: 2
  Segment part 323.           Intra module refs:   Make_Data
    -------------------------------------------------------------------------
CODE
  Relative segment, address: 4000FAF0 - 4000FAF3 (0x4 bytes), align: 2
  Segment part 324.           Intra module refs:   Make_Data
    -------------------------------------------------------------------------
CODE
  Relative segment, address: 4000FAF4 - 4000FAF7 (0x4 bytes), align: 2
  Segment part 325.           Intra module refs:   Make_Data
    -------------------------------------------------------------------------
CODE
  Relative segment, address: 4000FAF8 - 4000FAFB (0x4 bytes), align: 2
  Segment part 326.           Intra module refs:   Make_Data
    -------------------------------------------------------------------------
CODE
  Relative segment, address: 4000FAFC - 4000FAFF (0x4 bytes), align: 2
  Segment part 327.           Intra module refs:   Make_Data
    -------------------------------------------------------------------------
CODE
  Relative segment, address: 4000FB00 - 4000FB03 (0x4 bytes), align: 2
  Segment part 328.           Intra module refs:   Make_Data
    -------------------------------------------------------------------------
CODE
  Relative segment, address: 4000FB04 - 4000FB07 (0x4 bytes), align: 2
  Segment part 329.           Intra module refs:   Make_Data
    -------------------------------------------------------------------------
CODE
  Relative segment, address: 4000FB08 - 4000FB0B (0x4 bytes), align: 2
  Segment part 330.           Intra module refs:   Make_Data
    -------------------------------------------------------------------------
CODE
  Relative segment, address: 4000FB0C - 4000FB0F (0x4 bytes), align: 2
  Segment part 331.           Intra module refs:   Make_Data
    -------------------------------------------------------------------------
CODE
  Relative segment, address: 4000FB10 - 4000FB13 (0x4 bytes), align: 2
  Segment part 332.           Intra module refs:   Make_Data
    -------------------------------------------------------------------------
CODE
  Relative segment, address: 4000FB14 - 4000FB17 (0x4 bytes), align: 2
  Segment part 333.           Intra module refs:   Make_Data
    -------------------------------------------------------------------------
CODE
  Relative segment, address: 4000FB18 - 4000FB1B (0x4 bytes), align: 2
  Segment part 334.           Intra module refs:   Make_Data
    -------------------------------------------------------------------------
CODE
  Relative segment, address: 4000FB1C - 4000FB1F (0x4 bytes), align: 2
  Segment part 335.           Intra module refs:   Make_Data
    -------------------------------------------------------------------------
CODE
  Relative segment, address: 4000FB20 - 4000FB23 (0x4 bytes), align: 2
  Segment part 336.           Intra module refs:   Make_Data
    -------------------------------------------------------------------------
CODE
  Relative segment, address: 4000FB24 - 4000FB27 (0x4 bytes), align: 2
  Segment part 337.           Intra module refs:   Make_Data
    -------------------------------------------------------------------------
CODE
  Relative segment, address: 4000FB28 - 4000FB2B (0x4 bytes), align: 2
  Segment part 338.           Intra module refs:   Make_Data
    -------------------------------------------------------------------------
CODE
  Relative segment, address: 4000FB2C - 4000FB2F (0x4 bytes), align: 2
  Segment part 339.           Intra module refs:   Make_Data
    -------------------------------------------------------------------------
CODE
  Relative segment, address: 4000FB30 - 4000FB33 (0x4 bytes), align: 2
  Segment part 340.           Intra module refs:   Make_Data
    -------------------------------------------------------------------------
CODE
  Relative segment, address: 4000FB34 - 4000FB37 (0x4 bytes), align: 2
  Segment part 341.           Intra module refs:   Make_Data
    -------------------------------------------------------------------------
CODE
  Relative segment, address: 4000FB38 - 4000FB3B (0x4 bytes), align: 2
  Segment part 342.           Intra module refs:   Make_Data
    -------------------------------------------------------------------------
CODE
  Relative segment, address: 4000FB3C - 4000FB3F (0x4 bytes), align: 2
  Segment part 343.           Intra module refs:   Make_Data
    -------------------------------------------------------------------------
CODE
  Relative segment, address: 4000FB40 - 4000FB43 (0x4 bytes), align: 2
  Segment part 344.           Intra module refs:   Make_Data
    -------------------------------------------------------------------------
CODE
  Relative segment, address: 4000FB44 - 4000FB47 (0x4 bytes), align: 2
  Segment part 345.           Intra module refs:   Make_Data
    -------------------------------------------------------------------------
CODE
  Relative segment, address: 4000FB48 - 4000FB4B (0x4 bytes), align: 2
  Segment part 346.           Intra module refs:   Make_Data
    -------------------------------------------------------------------------
CODE
  Relative segment, address: 4000FB4C - 4000FB4F (0x4 bytes), align: 2
  Segment part 347.           Intra module refs:   Make_Data
    -------------------------------------------------------------------------
CODE
  Relative segment, address: 4000FB50 - 4000FB53 (0x4 bytes), align: 2
  Segment part 348.           Intra module refs:   Make_Data
    -------------------------------------------------------------------------
CODE
  Relative segment, address: 4000FB54 - 4000FB57 (0x4 bytes), align: 2
  Segment part 349.           Intra module refs:   Make_Data
    -------------------------------------------------------------------------
CODE
  Relative segment, address: 4000FB58 - 4000FB5B (0x4 bytes), align: 2
  Segment part 350.           Intra module refs:   Make_Data
    -------------------------------------------------------------------------
CODE
  Relative segment, address: 4000FB5C - 4000FB5F (0x4 bytes), align: 2
  Segment part 351.           Intra module refs:   Make_Data
    -------------------------------------------------------------------------
CODE
  Relative segment, address: 4000FB60 - 4000FB63 (0x4 bytes), align: 2
  Segment part 352.           Intra module refs:   Make_Data
    -------------------------------------------------------------------------
CODE
  Relative segment, address: 4000FB64 - 4000FB67 (0x4 bytes), align: 2
  Segment part 353.           Intra module refs:   Make_Data
    -------------------------------------------------------------------------
CODE
  Relative segment, address: 4000FB68 - 4000FB6B (0x4 bytes), align: 2
  Segment part 354.           Intra module refs:   Make_Data
    -------------------------------------------------------------------------
CODE
  Relative segment, address: 4000FB6C - 4000FB6F (0x4 bytes), align: 2
  Segment part 355.           Intra module refs:   Make_Data
    -------------------------------------------------------------------------
CODE
  Relative segment, address: 4000FB70 - 4000FF4F (0x3e0 bytes), align: 2
  Segment part 356.           Intra module refs:   Read_CL_Data
           LOCAL                   ADDRESS         
           =====                   =======         
           Car_Number_Process      4000FB70 
               stack 1 = 00000000 ( 00000010 )
    -------------------------------------------------------------------------
CODE
  Relative segment, address: 4000FF50 - 4000FF53 (0x4 bytes), align: 2
  Segment part 357.           Intra module refs:   Car_Number_Process
    -------------------------------------------------------------------------
CODE
  Relative segment, address: 4000FF54 - 4000FF57 (0x4 bytes), align: 2
  Segment part 358.           Intra module refs:   Car_Number_Process
    -------------------------------------------------------------------------
CODE
  Relative segment, address: 4000FF58 - 4000FF5B (0x4 bytes), align: 2
  Segment part 359.           Intra module refs:   Car_Number_Process
    -------------------------------------------------------------------------
CODE
  Relative segment, address: 4000FF5C - 4000FF5F (0x4 bytes), align: 2
  Segment part 360.           Intra module refs:   Car_Number_Process
    -------------------------------------------------------------------------
CODE
  Relative segment, address: 4000FF60 - 4000FF63 (0x4 bytes), align: 2
  Segment part 361.           Intra module refs:   Car_Number_Process
                                                   Make_Data
    -------------------------------------------------------------------------
CODE
  Relative segment, address: 4000FF64 - 4000FF67 (0x4 bytes), align: 2
  Segment part 362.           Intra module refs:   Car_Number_Process
    -------------------------------------------------------------------------
CODE
  Relative segment, address: 4000FF68 - 4000FF6B (0x4 bytes), align: 2
  Segment part 363.           Intra module refs:   Car_Number_Process
    -------------------------------------------------------------------------
CODE
  Relative segment, address: 4000FF6C - 4000FF6F (0x4 bytes), align: 2
  Segment part 364.           Intra module refs:   Car_Number_Process
    -------------------------------------------------------------------------
CODE
  Relative segment, address: 4000FF70 - 4000FF73 (0x4 bytes), align: 2
  Segment part 365.           Intra module refs:   Car_Number_Process
    -------------------------------------------------------------------------
CODE
  Relative segment, address: 4000FF74 - 4000FF77 (0x4 bytes), align: 2
  Segment part 366.           Intra module refs:   Car_Number_Process
    -------------------------------------------------------------------------
CODE
  Relative segment, address: 4000FF78 - 4000FF7B (0x4 bytes), align: 2
  Segment part 367.           Intra module refs:   Car_Number_Process
    -------------------------------------------------------------------------
CODE
  Relative segment, address: 4000FF7C - 4000FF7F (0x4 bytes), align: 2
  Segment part 368.           Intra module refs:   Car_Number_Process
    -------------------------------------------------------------------------
CODE
  Relative segment, address: 4000FF80 - 4000FF83 (0x4 bytes), align: 2
  Segment part 369.           Intra module refs:   Car_Number_Process
    -------------------------------------------------------------------------
CODE
  Relative segment, address: 4000FF84 - 4000FF87 (0x4 bytes), align: 2
  Segment part 370.           Intra module refs:   Car_Number_Process
    -------------------------------------------------------------------------
CODE
  Relative segment, address: 4000FF88 - 400113E3 (0x145c bytes), align: 2
  Segment part 371.           Intra module refs:   main
           LOCAL                   ADDRESS         
           =====                   =======         
           Read_CL_Data            4000FF88 
               stack 1 = 00000000 ( 00000018 )
    -------------------------------------------------------------------------
CODE
  Relative segment, address: 400113E4 - 400113E7 (0x4 bytes), align: 2
  Segment part 372.           Intra module refs:   Read_CL_Data
    -------------------------------------------------------------------------
CODE
  Relative segment, address: 400113E8 - 400113EB (0x4 bytes), align: 2
  Segment part 373.           Intra module refs:   Read_CL_Data
    -------------------------------------------------------------------------
CODE
  Relative segment, address: 400113EC - 400113EF (0x4 bytes), align: 2
  Segment part 374.           Intra module refs:   Read_CL_Data
    -------------------------------------------------------------------------
CODE
  Relative segment, address: 400113F0 - 400113F3 (0x4 bytes), align: 2
  Segment part 375.           Intra module refs:   Read_CL_Data
    -------------------------------------------------------------------------
CODE
  Relative segment, address: 400113F4 - 400113F7 (0x4 bytes), align: 2
  Segment part 376.           Intra module refs:   Read_CL_Data
    -------------------------------------------------------------------------
CODE
  Relative segment, address: 400113F8 - 400113FB (0x4 bytes), align: 2
  Segment part 377.           Intra module refs:   Read_CL_Data
    -------------------------------------------------------------------------
CODE
  Relative segment, address: 400113FC - 400113FF (0x4 bytes), align: 2
  Segment part 378.           Intra module refs:   Read_CL_Data
    -------------------------------------------------------------------------
CODE
  Relative segment, address: 40011400 - 40011403 (0x4 bytes), align: 2
  Segment part 379.           Intra module refs:   Read_CL_Data
    -------------------------------------------------------------------------
CODE
  Relative segment, address: 40011404 - 40011407 (0x4 bytes), align: 2
  Segment part 380.           Intra module refs:   Read_CL_Data
    -------------------------------------------------------------------------
CODE
  Relative segment, address: 40011408 - 4001140B (0x4 bytes), align: 2
  Segment part 381.           Intra module refs:   Read_CL_Data
    -------------------------------------------------------------------------
CODE
  Relative segment, address: 4001140C - 4001140F (0x4 bytes), align: 2
  Segment part 382.           Intra module refs:   Read_CL_Data
    -------------------------------------------------------------------------
CODE
  Relative segment, address: 40011410 - 40011413 (0x4 bytes), align: 2
  Segment part 383.           Intra module refs:   Read_CL_Data
    -------------------------------------------------------------------------
CODE
  Relative segment, address: 40011414 - 40011417 (0x4 bytes), align: 2
  Segment part 384.           Intra module refs:   Read_CL_Data
    -------------------------------------------------------------------------
CODE
  Relative segment, address: 40011418 - 4001141B (0x4 bytes), align: 2
  Segment part 385.           Intra module refs:   Read_CL_Data
    -------------------------------------------------------------------------
CODE
  Relative segment, address: 4001141C - 4001141F (0x4 bytes), align: 2
  Segment part 386.           Intra module refs:   Read_CL_Data
    -------------------------------------------------------------------------
CODE
  Relative segment, address: 40011420 - 40011423 (0x4 bytes), align: 2
  Segment part 387.           Intra module refs:   Read_CL_Data
    -------------------------------------------------------------------------
CODE
  Relative segment, address: 40011424 - 400118A3 (0x480 bytes), align: 2
  Segment part 388.           Intra module refs:   Port_Check
                                                   Read_CL_Data
                                                   main
           LOCAL                   ADDRESS         
           =====                   =======         
           Set_Vol_I2C             40011424 
               stack 1 = 00000000 ( 00000010 )
    -------------------------------------------------------------------------
CODE
  Relative segment, address: 400118A4 - 400118A7 (0x4 bytes), align: 2
  Segment part 389.           Intra module refs:   Set_Vol_I2C
    -------------------------------------------------------------------------
CODE
  Relative segment, address: 400118A8 - 400118AB (0x4 bytes), align: 2
  Segment part 390.           Intra module refs:   Set_Vol_I2C
    -------------------------------------------------------------------------
CODE
  Relative segment, address: 400118AC - 400118AF (0x4 bytes), align: 2
  Segment part 391.           Intra module refs:   Set_Vol_I2C
    -------------------------------------------------------------------------
CODE
  Relative segment, address: 400118B0 - 400118B3 (0x4 bytes), align: 2
  Segment part 392.           Intra module refs:   Set_Vol_I2C
    -------------------------------------------------------------------------
CODE
  Relative segment, address: 400118B4 - 400118B7 (0x4 bytes), align: 2
  Segment part 393.           Intra module refs:   Set_Vol_I2C
    -------------------------------------------------------------------------
CODE
  Relative segment, address: 400118B8 - 400118BB (0x4 bytes), align: 2
  Segment part 394.           Intra module refs:   Set_Vol_I2C
    -------------------------------------------------------------------------
CODE
  Relative segment, address: 400118BC - 400118BF (0x4 bytes), align: 2
  Segment part 395.           Intra module refs:   Set_Vol_I2C
    -------------------------------------------------------------------------
CODE
  Relative segment, address: 400118C0 - 400118C3 (0x4 bytes), align: 2
  Segment part 396.           Intra module refs:   Set_Vol_I2C
    -------------------------------------------------------------------------
CODE
  Relative segment, address: 400118C4 - 400118C7 (0x4 bytes), align: 2
  Segment part 397.           Intra module refs:   Set_Vol_I2C
    -------------------------------------------------------------------------
CODE
  Relative segment, address: 400118C8 - 400118CB (0x4 bytes), align: 2
  Segment part 398.           Intra module refs:   Set_Vol_I2C
    -------------------------------------------------------------------------
CODE
  Relative segment, address: 400118CC - 400118CF (0x4 bytes), align: 2
  Segment part 399.           Intra module refs:   Set_Vol_I2C
    -------------------------------------------------------------------------
CODE
  Relative segment, address: 400118D0 - 400118D3 (0x4 bytes), align: 2
  Segment part 400.           Intra module refs:   Set_Vol_I2C
    -------------------------------------------------------------------------
CODE
  Relative segment, address: 400118D4 - 400118D7 (0x4 bytes), align: 2
  Segment part 401.           Intra module refs:   Set_Vol_I2C
    -------------------------------------------------------------------------
CODE
  Relative segment, address: 400118D8 - 400118DB (0x4 bytes), align: 2
  Segment part 402.           Intra module refs:   Set_Vol_I2C
    -------------------------------------------------------------------------
CODE
  Relative segment, address: 400118DC - 400118DF (0x4 bytes), align: 2
  Segment part 403.           Intra module refs:   Set_Vol_I2C
    -------------------------------------------------------------------------
CODE
  Relative segment, address: 400118E0 - 400118E3 (0x4 bytes), align: 2
  Segment part 404.           Intra module refs:   Set_Vol_I2C
    -------------------------------------------------------------------------
CODE
  Relative segment, address: 400118E4 - 400118E7 (0x4 bytes), align: 2
  Segment part 405.           Intra module refs:   Set_Vol_I2C
    -------------------------------------------------------------------------
CODE
  Relative segment, address: 400118E8 - 400118EB (0x4 bytes), align: 2
  Segment part 406.           Intra module refs:   Set_Vol_I2C
    -------------------------------------------------------------------------
CODE
  Relative segment, address: 400118EC - 400118EF (0x4 bytes), align: 2
  Segment part 407.           Intra module refs:   Set_Vol_I2C
    -------------------------------------------------------------------------
CODE
  Relative segment, address: 400118F0 - 400118F3 (0x4 bytes), align: 2
  Segment part 408.           Intra module refs:   Set_Vol_I2C
    -------------------------------------------------------------------------
CODE
  Relative segment, address: 400118F4 - 400118F7 (0x4 bytes), align: 2
  Segment part 409.           Intra module refs:   Set_Vol_I2C
    -------------------------------------------------------------------------
CODE
  Relative segment, address: 400118F8 - 40011D37 (0x440 bytes), align: 2
  Segment part 410.           Intra module refs:   CL_Receive
                                                   CL_Timer
                                                   Device_Check
                                                   main
           LOCAL                   ADDRESS         
           =====                   =======         
           Set_MS_State            400118F8 
               stack 1 = 00000000 ( 00000008 )
    -------------------------------------------------------------------------
CODE
  Relative segment, address: 40011D38 - 40011D3B (0x4 bytes), align: 2
  Segment part 411.           Intra module refs:   Set_MS_State
    -------------------------------------------------------------------------
CODE
  Relative segment, address: 40011D3C - 40011D3F (0x4 bytes), align: 2
  Segment part 412.           Intra module refs:   Set_MS_State
    -------------------------------------------------------------------------
CODE
  Relative segment, address: 40011D40 - 40011D43 (0x4 bytes), align: 2
  Segment part 413.           Intra module refs:   Set_MS_State
    -------------------------------------------------------------------------
CODE
  Relative segment, address: 40011D44 - 40011D47 (0x4 bytes), align: 2
  Segment part 414.           Intra module refs:   Set_MS_State
    -------------------------------------------------------------------------
CODE
  Relative segment, address: 40011D48 - 40011D4B (0x4 bytes), align: 2
  Segment part 415.           Intra module refs:   Set_MS_State
    -------------------------------------------------------------------------
CODE
  Relative segment, address: 40011D4C - 40011D4F (0x4 bytes), align: 2
  Segment part 416.           Intra module refs:   Set_MS_State
    -------------------------------------------------------------------------
CODE
  Relative segment, address: 40011D50 - 40011D53 (0x4 bytes), align: 2
  Segment part 417.           Intra module refs:   Set_MS_State
    -------------------------------------------------------------------------
CODE
  Relative segment, address: 40011D54 - 40011D57 (0x4 bytes), align: 2
  Segment part 418.           Intra module refs:   Set_MS_State
    -------------------------------------------------------------------------
CODE
  Relative segment, address: 40011D58 - 40011D5B (0x4 bytes), align: 2
  Segment part 419.           Intra module refs:   Set_MS_State
    -------------------------------------------------------------------------
CODE
  Relative segment, address: 40011D5C - 40011D5F (0x4 bytes), align: 2
  Segment part 420.           Intra module refs:   Set_MS_State
    -------------------------------------------------------------------------
CODE
  Relative segment, address: 40011D60 - 40011D63 (0x4 bytes), align: 2
  Segment part 421.           Intra module refs:   Set_MS_State
    -------------------------------------------------------------------------
CODE
  Relative segment, address: 40011D64 - 40011D67 (0x4 bytes), align: 2
  Segment part 422.           Intra module refs:   Set_MS_State
    -------------------------------------------------------------------------
CODE
  Relative segment, address: 40011D68 - 40011D6B (0x4 bytes), align: 2
  Segment part 423.           Intra module refs:   Set_MS_State
    -------------------------------------------------------------------------
CODE
  Relative segment, address: 40011D6C - 40011D6F (0x4 bytes), align: 2
  Segment part 424.           Intra module refs:   Set_MS_State
    -------------------------------------------------------------------------
CODE
  Relative segment, address: 40011D70 - 40011D73 (0x4 bytes), align: 2
  Segment part 425.           Intra module refs:   Set_MS_State
    -------------------------------------------------------------------------
CODE
  Relative segment, address: 40011D74 - 40011D77 (0x4 bytes), align: 2
  Segment part 426.           Intra module refs:   Set_MS_State
    -------------------------------------------------------------------------
CODE
  Relative segment, address: 40011D78 - 40011D7B (0x4 bytes), align: 2
  Segment part 427.           Intra module refs:   Set_MS_State
    -------------------------------------------------------------------------
CODE
  Relative segment, address: 40011D7C - 40011D7F (0x4 bytes), align: 2
  Segment part 428.           Intra module refs:   Set_MS_State
    -------------------------------------------------------------------------
CODE
  Relative segment, address: 40011D80 - 40011D83 (0x4 bytes), align: 2
  Segment part 429.           Intra module refs:   Set_MS_State
    -------------------------------------------------------------------------
CODE
  Relative segment, address: 40011D84 - 40011D87 (0x4 bytes), align: 2
  Segment part 430.           Intra module refs:   Set_MS_State
    -------------------------------------------------------------------------
CODE
  Relative segment, address: 40011D88 - 40011D8B (0x4 bytes), align: 2
  Segment part 431.           Intra module refs:   Set_MS_State
                                                   Set_Vol_I2C
    -------------------------------------------------------------------------
CODE
  Relative segment, address: 40011D8C - 40011D8F (0x4 bytes), align: 2
  Segment part 432.           Intra module refs:   Set_MS_State
    -------------------------------------------------------------------------
CODE
  Relative segment, address: 40011D90 - 40011D93 (0x4 bytes), align: 2
  Segment part 433.           Intra module refs:   Set_MS_State
                                                   Set_Vol_I2C
    -------------------------------------------------------------------------
CODE
  Relative segment, address: 40011D94 - 40011D97 (0x4 bytes), align: 2
  Segment part 434.           Intra module refs:   Set_MS_State
    -------------------------------------------------------------------------
CODE
  Relative segment, address: 40011D98 - 40011F33 (0x19c bytes), align: 2
  Segment part 435.           Intra module refs:   Port_Check
           LOCAL                   ADDRESS         
           =====                   =======         
           Chk_LiveCall            40011D98 
               stack 1 = 00000000 ( 0000000C )
    -------------------------------------------------------------------------
CODE
  Relative segment, address: 40011F34 - 40011F37 (0x4 bytes), align: 2
  Segment part 436.           Intra module refs:   Chk_LiveCall
    -------------------------------------------------------------------------
CODE
  Relative segment, address: 40011F38 - 40011F3B (0x4 bytes), align: 2
  Segment part 437.           Intra module refs:   Chk_LiveCall
    -------------------------------------------------------------------------
CODE
  Relative segment, address: 40011F3C - 40011F3F (0x4 bytes), align: 2
  Segment part 438.           Intra module refs:   Chk_LiveCall
    -------------------------------------------------------------------------
CODE
  Relative segment, address: 40011F40 - 40011FA3 (0x64 bytes), align: 2
  Segment part 439.
           ENTRY                   ADDRESS         REF BY
           =====                   =======         ======
           CL_RxTxISR              40011F40        UART1_IRQHandler (71x_it)
               stack 1 = 00000000 ( 00000008 )
    -------------------------------------------------------------------------
CODE
  Relative segment, address: 40011FA4 - 4001272B (0x788 bytes), align: 2
  Segment part 440.           Intra module refs:   CL_RxTxISR
           ENTRY                   ADDRESS         REF BY
           =====                   =======         ======
           CL_RxHandler            40011FA4 
               stack 1 = 00000000 ( 00000008 )
    -------------------------------------------------------------------------
CODE
  Relative segment, address: 4001272C - 4001272F (0x4 bytes), align: 2
  Segment part 441.           Intra module refs:   CL_RxHandler
                                                   Set_MS_State
    -------------------------------------------------------------------------
CODE
  Relative segment, address: 40012730 - 40012733 (0x4 bytes), align: 2
  Segment part 442.           Intra module refs:   CL_RxHandler
                                                   Set_MS_State
    -------------------------------------------------------------------------
CODE
  Relative segment, address: 40012734 - 40012737 (0x4 bytes), align: 2
  Segment part 443.           Intra module refs:   CL_RxHandler
    -------------------------------------------------------------------------
CODE
  Relative segment, address: 40012738 - 4001273B (0x4 bytes), align: 2
  Segment part 444.           Intra module refs:   CL_RxHandler
    -------------------------------------------------------------------------
CODE
  Relative segment, address: 4001273C - 4001273F (0x4 bytes), align: 2
  Segment part 445.           Intra module refs:   CL_RxHandler
    -------------------------------------------------------------------------
CODE
  Relative segment, address: 40012740 - 40012743 (0x4 bytes), align: 2
  Segment part 446.           Intra module refs:   CL_RxHandler
    -------------------------------------------------------------------------
CODE
  Relative segment, address: 40012744 - 40012747 (0x4 bytes), align: 2
  Segment part 447.           Intra module refs:   CL_RxHandler
    -------------------------------------------------------------------------
CODE
  Relative segment, address: 40012748 - 4001274B (0x4 bytes), align: 2
  Segment part 448.           Intra module refs:   CL_RxHandler
    -------------------------------------------------------------------------
CODE
  Relative segment, address: 4001274C - 400128AB (0x160 bytes), align: 2
  Segment part 449.           Intra module refs:   CL_RxHandler
           ENTRY                   ADDRESS         REF BY
           =====                   =======         ======
           CL_Receive              4001274C 
               stack 1 = 00000000 ( 00000008 )
    -------------------------------------------------------------------------
CODE
  Relative segment, address: 400128AC - 400128AF (0x4 bytes), align: 2
  Segment part 450.           Intra module refs:   CL_Receive
    -------------------------------------------------------------------------
CODE
  Relative segment, address: 400128B0 - 400128B3 (0x4 bytes), align: 2
  Segment part 451.           Intra module refs:   CL_Receive
    -------------------------------------------------------------------------
CODE
  Relative segment, address: 400128B4 - 400128B7 (0x4 bytes), align: 2
  Segment part 452.           Intra module refs:   CL_Receive
    -------------------------------------------------------------------------
CODE
  Relative segment, address: 400128B8 - 400128BB (0x4 bytes), align: 2
  Segment part 453.           Intra module refs:   CL_Receive
    -------------------------------------------------------------------------
CODE
  Relative segment, address: 400128BC - 400128BF (0x4 bytes), align: 2
  Segment part 454.           Intra module refs:   CL_Receive
    -------------------------------------------------------------------------
CODE
  Relative segment, address: 400128C0 - 400128C3 (0x4 bytes), align: 2
  Segment part 455.           Intra module refs:   CL_Receive
                                                   CL_RxHandler
    -------------------------------------------------------------------------
CODE
  Relative segment, address: 400128C4 - 400128C7 (0x4 bytes), align: 2
  Segment part 456.           Intra module refs:   CL_Receive
                                                   CL_RxHandler
    -------------------------------------------------------------------------
CODE
  Relative segment, address: 400128C8 - 400128CB (0x4 bytes), align: 2
  Segment part 457.           Intra module refs:   CL_Receive
    -------------------------------------------------------------------------
CODE
  Relative segment, address: 400128CC - 400128CF (0x4 bytes), align: 2
  Segment part 458.           Intra module refs:   CL_Receive
    -------------------------------------------------------------------------
CODE
  Relative segment, address: 400128D0 - 40012A4B (0x17c bytes), align: 2
  Segment part 459.           Intra module refs:   CL_RxTxISR
           ENTRY                   ADDRESS         REF BY
           =====                   =======         ======
           CL_TxHandler            400128D0 
               stack 1 = 00000000 ( 00000008 )
    -------------------------------------------------------------------------
CODE
  Relative segment, address: 40012A4C - 40012A4F (0x4 bytes), align: 2
  Segment part 460.           Intra module refs:   CL_TxHandler
    -------------------------------------------------------------------------
CODE
  Relative segment, address: 40012A50 - 40012F67 (0x518 bytes), align: 2
  Segment part 461.           Intra module refs:   Read_CL_Data
                                                   main
           ENTRY                   ADDRESS         REF BY
           =====                   =======         ======
           CL_Send                 40012A50 
               stack 1 = 00000000 ( 00000020 )
    -------------------------------------------------------------------------
CODE
  Relative segment, address: 40012F68 - 40012F6B (0x4 bytes), align: 2
  Segment part 462.           Intra module refs:   CL_Send
    -------------------------------------------------------------------------
CODE
  Relative segment, address: 40012F6C - 40012F6F (0x4 bytes), align: 2
  Segment part 463.           Intra module refs:   CL_Send
    -------------------------------------------------------------------------
CODE
  Relative segment, address: 40012F70 - 40012F73 (0x4 bytes), align: 2
  Segment part 464.           Intra module refs:   CL_Send
                                                   CL_TxHandler
    -------------------------------------------------------------------------
CODE
  Relative segment, address: 40012F74 - 40012F77 (0x4 bytes), align: 2
  Segment part 465.           Intra module refs:   CL_Send
                                                   CL_TxHandler
    -------------------------------------------------------------------------
CODE
  Relative segment, address: 40012F78 - 40012F7B (0x4 bytes), align: 2
  Segment part 466.           Intra module refs:   CL_Send
                                                   CL_TxHandler
    -------------------------------------------------------------------------
CODE
  Relative segment, address: 40012F7C - 40012F7F (0x4 bytes), align: 2
  Segment part 467.           Intra module refs:   CL_Receive
                                                   CL_RxHandler
                                                   CL_Send
    -------------------------------------------------------------------------
CODE
  Relative segment, address: 40012F80 - 40012FE3 (0x64 bytes), align: 2
  Segment part 468.
           ENTRY                   ADDRESS         REF BY
           =====                   =======         ======
           TL_RxTxISR              40012F80        UART2_IRQHandler (71x_it)
               stack 1 = 00000000 ( 00000008 )
    -------------------------------------------------------------------------
CODE
  Relative segment, address: 40012FE4 - 4001360F (0x62c bytes), align: 2
  Segment part 469.           Intra module refs:   TL_RxTxISR
           ENTRY                   ADDRESS         REF BY
           =====                   =======         ======
           TL_RxHandler            40012FE4 
               stack 1 = 00000000 ( 00000008 )
    -------------------------------------------------------------------------
CODE
  Relative segment, address: 40013610 - 40013613 (0x4 bytes), align: 2
  Segment part 470.           Intra module refs:   TL_RxHandler
    -------------------------------------------------------------------------
CODE
  Relative segment, address: 40013614 - 40013617 (0x4 bytes), align: 2
  Segment part 471.           Intra module refs:   TL_RxHandler
    -------------------------------------------------------------------------
CODE
  Relative segment, address: 40013618 - 4001361B (0x4 bytes), align: 2
  Segment part 472.           Intra module refs:   TL_RxHandler
    -------------------------------------------------------------------------
CODE
  Relative segment, address: 4001361C - 4001361F (0x4 bytes), align: 2
  Segment part 473.           Intra module refs:   TL_RxHandler
    -------------------------------------------------------------------------
CODE
  Relative segment, address: 40013620 - 400136FB (0xdc bytes), align: 2
  Segment part 474.           Intra module refs:   TL_RxHandler
           ENTRY                   ADDRESS         REF BY
           =====                   =======         ======
           TL_Receive              40013620 
    -------------------------------------------------------------------------
CODE
  Relative segment, address: 400136FC - 400136FF (0x4 bytes), align: 2
  Segment part 475.           Intra module refs:   TL_Receive
    -------------------------------------------------------------------------
CODE
  Relative segment, address: 40013700 - 40013703 (0x4 bytes), align: 2
  Segment part 476.           Intra module refs:   TL_Receive
    -------------------------------------------------------------------------
CODE
  Relative segment, address: 40013704 - 40013707 (0x4 bytes), align: 2
  Segment part 477.           Intra module refs:   TL_Receive
    -------------------------------------------------------------------------
CODE
  Relative segment, address: 40013708 - 4001370B (0x4 bytes), align: 2
  Segment part 478.           Intra module refs:   TL_Receive
    -------------------------------------------------------------------------
CODE
  Relative segment, address: 4001370C - 4001370F (0x4 bytes), align: 2
  Segment part 479.           Intra module refs:   TL_Receive
    -------------------------------------------------------------------------
CODE
  Relative segment, address: 40013710 - 40013713 (0x4 bytes), align: 2
  Segment part 480.           Intra module refs:   TL_Receive
    -------------------------------------------------------------------------
CODE
  Relative segment, address: 40013714 - 40013717 (0x4 bytes), align: 2
  Segment part 481.           Intra module refs:   TL_Receive
    -------------------------------------------------------------------------
CODE
  Relative segment, address: 40013718 - 4001371B (0x4 bytes), align: 2
  Segment part 482.           Intra module refs:   TL_Receive
                                                   TL_RxHandler
    -------------------------------------------------------------------------
CODE
  Relative segment, address: 4001371C - 4001371F (0x4 bytes), align: 2
  Segment part 483.           Intra module refs:   TL_Receive
                                                   TL_RxHandler
    -------------------------------------------------------------------------
CODE
  Relative segment, address: 40013720 - 40013723 (0x4 bytes), align: 2
  Segment part 484.           Intra module refs:   TL_Receive
    -------------------------------------------------------------------------
CODE
  Relative segment, address: 40013724 - 40013727 (0x4 bytes), align: 2
  Segment part 485.           Intra module refs:   TL_Receive
    -------------------------------------------------------------------------
CODE
  Relative segment, address: 40013728 - 400139C7 (0x2a0 bytes), align: 2
  Segment part 486.           Intra module refs:   TL_RxTxISR
           ENTRY                   ADDRESS         REF BY
           =====                   =======         ======
           TL_TxHandler            40013728 
               stack 1 = 00000000 ( 00000008 )
    -------------------------------------------------------------------------
CODE
  Relative segment, address: 400139C8 - 400139CB (0x4 bytes), align: 2
  Segment part 487.           Intra module refs:   TL_TxHandler
    -------------------------------------------------------------------------
CODE
  Relative segment, address: 400139CC - 400139CF (0x4 bytes), align: 2
  Segment part 488.           Intra module refs:   TL_TxHandler
    -------------------------------------------------------------------------
CODE
  Relative segment, address: 400139D0 - 40013DB3 (0x3e4 bytes), align: 2
  Segment part 489.           Intra module refs:   main
           ENTRY                   ADDRESS         REF BY
           =====                   =======         ======
           TL_Send                 400139D0 
               stack 1 = 00000000 ( 00000020 )
    -------------------------------------------------------------------------
CODE
  Relative segment, address: 40013DB4 - 40013DB7 (0x4 bytes), align: 2
  Segment part 490.           Intra module refs:   TL_Send
    -------------------------------------------------------------------------
CODE
  Relative segment, address: 40013DB8 - 40013DBB (0x4 bytes), align: 2
  Segment part 491.           Intra module refs:   TL_Send
    -------------------------------------------------------------------------
CODE
  Relative segment, address: 40013DBC - 40013DBF (0x4 bytes), align: 2
  Segment part 492.           Intra module refs:   TL_Send
                                                   TL_TxHandler
    -------------------------------------------------------------------------
CODE
  Relative segment, address: 40013DC0 - 40013DC3 (0x4 bytes), align: 2
  Segment part 493.           Intra module refs:   TL_Send
                                                   TL_TxHandler
    -------------------------------------------------------------------------
CODE
  Relative segment, address: 40013DC4 - 40013DC7 (0x4 bytes), align: 2
  Segment part 494.           Intra module refs:   TL_Send
    -------------------------------------------------------------------------
CODE
  Relative segment, address: 40013DC8 - 40013DCB (0x4 bytes), align: 2
  Segment part 495.           Intra module refs:   TL_Send
                                                   TL_TxHandler
    -------------------------------------------------------------------------
CODE
  Relative segment, address: 40013DCC - 40013EA3 (0xd8 bytes), align: 2
  Segment part 496.           Intra module refs:   Car_Number_Process
                                                   Port_Check
                                                   main
           LOCAL                   ADDRESS         
           =====                   =======         
           HexIncDec               40013DCC 
               stack 1 = 00000000 ( 0000000C )
    -------------------------------------------------------------------------
CODE
  Relative segment, address: 40013EA4 - 40013ECB (0x28 bytes), align: 2
  Segment part 497.           Intra module refs:   CL_RxHandler
                                                   CL_Send
                                                   TL_RxHandler
                                                   TL_Send
           ENTRY                   ADDRESS         REF BY
           =====                   =======         ======
           CRC_Check               40013EA4 
    -------------------------------------------------------------------------
CODE
  Relative segment, address: 40013ECC - 40013ECF (0x4 bytes), align: 2
  Segment part 498.           Intra module refs:   CRC_Check
    -------------------------------------------------------------------------
CODE
  Relative segment, address: 40013ED0 - 40013F1B (0x4c bytes), align: 2
  Segment part 499.           Intra module refs:   CL_Send
                                                   TL_Send
           ENTRY                   ADDRESS         REF BY
           =====                   =======         ======
           ByteToAsc               40013ED0 
    -------------------------------------------------------------------------
CODE
  Relative segment, address: 40013F1C - 40013F63 (0x48 bytes), align: 2
  Segment part 500.           Intra module refs:   CL_RxHandler
                                                   TL_RxHandler
           ENTRY                   ADDRESS         REF BY
           =====                   =======         ======
           Asc16ToByte             40013F1C 
    -------------------------------------------------------------------------
CODE
  Relative segment, address: 40013F64 - 4001536B (0x1408 bytes), align: 2
  Segment part 501.           Intra module refs:   main
           LOCAL                   ADDRESS         
           =====                   =======         
           Set_Var                 40013F64 
    -------------------------------------------------------------------------
CODE
  Relative segment, address: 4001536C - 4001536F (0x4 bytes), align: 2
  Segment part 502.           Intra module refs:   Set_Var
    -------------------------------------------------------------------------
CODE
  Relative segment, address: 40015370 - 40015373 (0x4 bytes), align: 2
  Segment part 503.           Intra module refs:   Set_Var
    -------------------------------------------------------------------------
CODE
  Relative segment, address: 40015374 - 40015377 (0x4 bytes), align: 2
  Segment part 504.           Intra module refs:   Set_Var
    -------------------------------------------------------------------------
CODE
  Relative segment, address: 40015378 - 4001537B (0x4 bytes), align: 2
  Segment part 505.           Intra module refs:   Set_Var
    -------------------------------------------------------------------------
CODE
  Relative segment, address: 4001537C - 4001537F (0x4 bytes), align: 2
  Segment part 506.           Intra module refs:   Set_Var
    -------------------------------------------------------------------------
CODE
  Relative segment, address: 40015380 - 40015383 (0x4 bytes), align: 2
  Segment part 507.           Intra module refs:   Set_Var
    -------------------------------------------------------------------------
CODE
  Relative segment, address: 40015384 - 40015387 (0x4 bytes), align: 2
  Segment part 508.           Intra module refs:   Set_Var
    -------------------------------------------------------------------------
CODE
  Relative segment, address: 40015388 - 4001538B (0x4 bytes), align: 2
  Segment part 509.           Intra module refs:   Set_Var
    -------------------------------------------------------------------------
CODE
  Relative segment, address: 4001538C - 4001538F (0x4 bytes), align: 2
  Segment part 510.           Intra module refs:   Set_Var
    -------------------------------------------------------------------------
CODE
  Relative segment, address: 40015390 - 40015393 (0x4 bytes), align: 2
  Segment part 511.           Intra module refs:   Set_Var
    -------------------------------------------------------------------------
CODE
  Relative segment, address: 40015394 - 40015397 (0x4 bytes), align: 2
  Segment part 512.           Intra module refs:   Set_Var
    -------------------------------------------------------------------------
CODE
  Relative segment, address: 40015398 - 4001539B (0x4 bytes), align: 2
  Segment part 513.           Intra module refs:   Set_Var
    -------------------------------------------------------------------------
CODE
  Relative segment, address: 4001539C - 4001539F (0x4 bytes), align: 2
  Segment part 514.           Intra module refs:   Set_Var
    -------------------------------------------------------------------------
CODE
  Relative segment, address: 400153A0 - 400153A3 (0x4 bytes), align: 2
  Segment part 515.           Intra module refs:   Set_Var
    -------------------------------------------------------------------------
CODE
  Relative segment, address: 400153A4 - 400153A7 (0x4 bytes), align: 2
  Segment part 516.           Intra module refs:   Set_Var
    -------------------------------------------------------------------------
CODE
  Relative segment, address: 400153A8 - 400153AB (0x4 bytes), align: 2
  Segment part 517.           Intra module refs:   Set_Var
    -------------------------------------------------------------------------
CODE
  Relative segment, address: 400153AC - 400153AF (0x4 bytes), align: 2
  Segment part 518.           Intra module refs:   Set_Var
    -------------------------------------------------------------------------
CODE
  Relative segment, address: 400153B0 - 400153B3 (0x4 bytes), align: 2
  Segment part 519.           Intra module refs:   Set_Var
    -------------------------------------------------------------------------
CODE
  Relative segment, address: 400153B4 - 400153B7 (0x4 bytes), align: 2
  Segment part 520.           Intra module refs:   Set_Var
    -------------------------------------------------------------------------
CODE
  Relative segment, address: 400153B8 - 400153BB (0x4 bytes), align: 2
  Segment part 521.           Intra module refs:   Set_Var
    -------------------------------------------------------------------------
CODE
  Relative segment, address: 400153BC - 400153BF (0x4 bytes), align: 2
  Segment part 522.           Intra module refs:   Set_Var
    -------------------------------------------------------------------------
CODE
  Relative segment, address: 400153C0 - 400153C3 (0x4 bytes), align: 2
  Segment part 523.           Intra module refs:   Set_Var
    -------------------------------------------------------------------------
CODE
  Relative segment, address: 400153C4 - 400153C7 (0x4 bytes), align: 2
  Segment part 524.           Intra module refs:   Set_Var
    -------------------------------------------------------------------------
CODE
  Relative segment, address: 400153C8 - 400153CB (0x4 bytes), align: 2
  Segment part 525.           Intra module refs:   Set_Var
    -------------------------------------------------------------------------
CODE
  Relative segment, address: 400153CC - 400153CF (0x4 bytes), align: 2
  Segment part 526.           Intra module refs:   Set_Var
    -------------------------------------------------------------------------
CODE
  Relative segment, address: 400153D0 - 400153D3 (0x4 bytes), align: 2
  Segment part 527.           Intra module refs:   Set_Var
    -------------------------------------------------------------------------
CODE
  Relative segment, address: 400153D4 - 400153D7 (0x4 bytes), align: 2
  Segment part 528.           Intra module refs:   Set_Var
    -------------------------------------------------------------------------
CODE
  Relative segment, address: 400153D8 - 400153DB (0x4 bytes), align: 2
  Segment part 529.           Intra module refs:   Set_Var
    -------------------------------------------------------------------------
CODE
  Relative segment, address: 400153DC - 400153DF (0x4 bytes), align: 2
  Segment part 530.           Intra module refs:   Set_Var
    -------------------------------------------------------------------------
CODE
  Relative segment, address: 400153E0 - 400153E3 (0x4 bytes), align: 2
  Segment part 531.           Intra module refs:   Set_Var
    -------------------------------------------------------------------------
CODE
  Relative segment, address: 400153E4 - 400153E7 (0x4 bytes), align: 2
  Segment part 532.           Intra module refs:   Set_Var
    -------------------------------------------------------------------------
CODE
  Relative segment, address: 400153E8 - 400153EB (0x4 bytes), align: 2
  Segment part 533.           Intra module refs:   Set_Var
    -------------------------------------------------------------------------
CODE
  Relative segment, address: 400153EC - 400153EF (0x4 bytes), align: 2
  Segment part 534.           Intra module refs:   Set_Var
    -------------------------------------------------------------------------
CODE
  Relative segment, address: 400153F0 - 400153F3 (0x4 bytes), align: 2
  Segment part 535.           Intra module refs:   Set_Var
    -------------------------------------------------------------------------
CODE
  Relative segment, address: 400153F4 - 400153F7 (0x4 bytes), align: 2
  Segment part 536.           Intra module refs:   Set_Var
    -------------------------------------------------------------------------
CODE
  Relative segment, address: 400153F8 - 400153FB (0x4 bytes), align: 2
  Segment part 537.           Intra module refs:   Set_Var
    -------------------------------------------------------------------------
CODE
  Relative segment, address: 400153FC - 400153FF (0x4 bytes), align: 2
  Segment part 538.           Intra module refs:   Set_Var
    -------------------------------------------------------------------------
CODE
  Relative segment, address: 40015400 - 40015403 (0x4 bytes), align: 2
  Segment part 539.           Intra module refs:   Set_Var
    -------------------------------------------------------------------------
CODE
  Relative segment, address: 40015404 - 40015407 (0x4 bytes), align: 2
  Segment part 540.           Intra module refs:   Set_Var
    -------------------------------------------------------------------------
CODE
  Relative segment, address: 40015408 - 4001540B (0x4 bytes), align: 2
  Segment part 541.           Intra module refs:   Set_Var
    -------------------------------------------------------------------------
CODE
  Relative segment, address: 4001540C - 4001540F (0x4 bytes), align: 2
  Segment part 542.           Intra module refs:   Set_Var
    -------------------------------------------------------------------------
CODE
  Relative segment, address: 40015410 - 40015413 (0x4 bytes), align: 2
  Segment part 543.           Intra module refs:   Set_Var
    -------------------------------------------------------------------------
CODE
  Relative segment, address: 40015414 - 40015417 (0x4 bytes), align: 2
  Segment part 544.           Intra module refs:   Set_Var
    -------------------------------------------------------------------------
CODE
  Relative segment, address: 40015418 - 4001541B (0x4 bytes), align: 2
  Segment part 545.           Intra module refs:   Set_Var
    -------------------------------------------------------------------------
CODE
  Relative segment, address: 4001541C - 4001541F (0x4 bytes), align: 2
  Segment part 546.           Intra module refs:   Set_Var
    -------------------------------------------------------------------------
CODE
  Relative segment, address: 40015420 - 40015423 (0x4 bytes), align: 2
  Segment part 547.           Intra module refs:   Set_Var
    -------------------------------------------------------------------------
CODE
  Relative segment, address: 40015424 - 40015427 (0x4 bytes), align: 2
  Segment part 548.           Intra module refs:   Set_Var
    -------------------------------------------------------------------------
CODE
  Relative segment, address: 40015428 - 4001542B (0x4 bytes), align: 2
  Segment part 549.           Intra module refs:   Set_Var
    -------------------------------------------------------------------------
CODE
  Relative segment, address: 4001542C - 4001542F (0x4 bytes), align: 2
  Segment part 550.           Intra module refs:   Set_Var
    -------------------------------------------------------------------------
CODE
  Relative segment, address: 40015430 - 40015433 (0x4 bytes), align: 2
  Segment part 551.           Intra module refs:   Set_Var
    -------------------------------------------------------------------------
CODE
  Relative segment, address: 40015434 - 40015437 (0x4 bytes), align: 2
  Segment part 552.           Intra module refs:   Set_Var
    -------------------------------------------------------------------------
CODE
  Relative segment, address: 40015438 - 4001543B (0x4 bytes), align: 2
  Segment part 553.           Intra module refs:   Set_Var
    -------------------------------------------------------------------------
CODE
  Relative segment, address: 4001543C - 4001543F (0x4 bytes), align: 2
  Segment part 554.           Intra module refs:   Set_Var
    -------------------------------------------------------------------------
CODE
  Relative segment, address: 40015440 - 40015443 (0x4 bytes), align: 2
  Segment part 555.           Intra module refs:   Set_Var
    -------------------------------------------------------------------------
CODE
  Relative segment, address: 40015444 - 40015447 (0x4 bytes), align: 2
  Segment part 556.           Intra module refs:   Set_Var
    -------------------------------------------------------------------------
CODE
  Relative segment, address: 40015448 - 4001544B (0x4 bytes), align: 2
  Segment part 557.           Intra module refs:   Set_Var
    -------------------------------------------------------------------------
CODE
  Relative segment, address: 4001544C - 4001544F (0x4 bytes), align: 2
  Segment part 558.           Intra module refs:   Set_Var
    -------------------------------------------------------------------------
CODE
  Relative segment, address: 40015450 - 40015453 (0x4 bytes), align: 2
  Segment part 559.           Intra module refs:   Set_Var
    -------------------------------------------------------------------------
CODE
  Relative segment, address: 40015454 - 40015457 (0x4 bytes), align: 2
  Segment part 560.           Intra module refs:   Set_Var
    -------------------------------------------------------------------------
CODE
  Relative segment, address: 40015458 - 4001545B (0x4 bytes), align: 2
  Segment part 561.           Intra module refs:   Set_Var
    -------------------------------------------------------------------------
CODE
  Relative segment, address: 4001545C - 4001545F (0x4 bytes), align: 2
  Segment part 562.           Intra module refs:   Set_Var
    -------------------------------------------------------------------------
CODE
  Relative segment, address: 40015460 - 40015463 (0x4 bytes), align: 2
  Segment part 563.           Intra module refs:   Set_Var
    -------------------------------------------------------------------------
CODE
  Relative segment, address: 40015464 - 40015467 (0x4 bytes), align: 2
  Segment part 564.           Intra module refs:   Set_Var
    -------------------------------------------------------------------------
CODE
  Relative segment, address: 40015468 - 4001546B (0x4 bytes), align: 2
  Segment part 565.           Intra module refs:   Set_Var
    -------------------------------------------------------------------------
CODE
  Relative segment, address: 4001546C - 4001546F (0x4 bytes), align: 2
  Segment part 566.           Intra module refs:   Set_Var
    -------------------------------------------------------------------------
CODE
  Relative segment, address: 40015470 - 40015473 (0x4 bytes), align: 2
  Segment part 567.           Intra module refs:   Set_Var
    -------------------------------------------------------------------------
CODE
  Relative segment, address: 40015474 - 40015477 (0x4 bytes), align: 2
  Segment part 568.           Intra module refs:   Set_Var
    -------------------------------------------------------------------------
CODE
  Relative segment, address: 40015478 - 4001547B (0x4 bytes), align: 2
  Segment part 569.           Intra module refs:   Set_Var
    -------------------------------------------------------------------------
CODE
  Relative segment, address: 4001547C - 4001547F (0x4 bytes), align: 2
  Segment part 570.           Intra module refs:   Set_Var
    -------------------------------------------------------------------------
CODE
  Relative segment, address: 40015480 - 40015483 (0x4 bytes), align: 2
  Segment part 571.           Intra module refs:   Set_Var
    -------------------------------------------------------------------------
CODE
  Relative segment, address: 40015484 - 40015487 (0x4 bytes), align: 2
  Segment part 572.           Intra module refs:   Set_Var
    -------------------------------------------------------------------------
CODE
  Relative segment, address: 40015488 - 4001548B (0x4 bytes), align: 2
  Segment part 573.           Intra module refs:   Set_Var
    -------------------------------------------------------------------------
CODE
  Relative segment, address: 4001548C - 4001548F (0x4 bytes), align: 2
  Segment part 574.           Intra module refs:   Set_Var
    -------------------------------------------------------------------------
CODE
  Relative segment, address: 40015490 - 40015493 (0x4 bytes), align: 2
  Segment part 575.           Intra module refs:   Set_Var
    -------------------------------------------------------------------------
CODE
  Relative segment, address: 40015494 - 40015497 (0x4 bytes), align: 2
  Segment part 576.           Intra module refs:   Set_Var
    -------------------------------------------------------------------------
CODE
  Relative segment, address: 40015498 - 4001549B (0x4 bytes), align: 2
  Segment part 577.           Intra module refs:   Set_Var
    -------------------------------------------------------------------------
CODE
  Relative segment, address: 4001549C - 4001549F (0x4 bytes), align: 2
  Segment part 578.           Intra module refs:   Set_Var
    -------------------------------------------------------------------------
CODE
  Relative segment, address: 400154A0 - 400154A3 (0x4 bytes), align: 2
  Segment part 579.           Intra module refs:   Set_Var
    -------------------------------------------------------------------------
CODE
  Relative segment, address: 400154A4 - 400154A7 (0x4 bytes), align: 2
  Segment part 580.           Intra module refs:   Set_Var
    -------------------------------------------------------------------------
CODE
  Relative segment, address: 400154A8 - 400154AB (0x4 bytes), align: 2
  Segment part 581.           Intra module refs:   Set_Var
    -------------------------------------------------------------------------
CODE
  Relative segment, address: 400154AC - 400154AF (0x4 bytes), align: 2
  Segment part 582.           Intra module refs:   Set_Var
    -------------------------------------------------------------------------
CODE
  Relative segment, address: 400154B0 - 400154B3 (0x4 bytes), align: 2
  Segment part 583.           Intra module refs:   Set_Var
    -------------------------------------------------------------------------
CODE
  Relative segment, address: 400154B4 - 400154B7 (0x4 bytes), align: 2
  Segment part 584.           Intra module refs:   Set_Var
    -------------------------------------------------------------------------
CODE
  Relative segment, address: 400154B8 - 400154BB (0x4 bytes), align: 2
  Segment part 585.           Intra module refs:   Set_Var
    -------------------------------------------------------------------------
CODE
  Relative segment, address: 400154BC - 400154BF (0x4 bytes), align: 2
  Segment part 586.           Intra module refs:   Set_Var
    -------------------------------------------------------------------------
CODE
  Relative segment, address: 400154C0 - 400154C3 (0x4 bytes), align: 2
  Segment part 587.           Intra module refs:   Set_Var
    -------------------------------------------------------------------------
CODE
  Relative segment, address: 400154C4 - 400154C7 (0x4 bytes), align: 2
  Segment part 588.           Intra module refs:   Set_Var
    -------------------------------------------------------------------------
CODE
  Relative segment, address: 400154C8 - 400154CB (0x4 bytes), align: 2
  Segment part 589.           Intra module refs:   Set_Var
    -------------------------------------------------------------------------
CODE
  Relative segment, address: 400154CC - 400154CF (0x4 bytes), align: 2
  Segment part 590.           Intra module refs:   Set_Var
    -------------------------------------------------------------------------
CODE
  Relative segment, address: 400154D0 - 400154D3 (0x4 bytes), align: 2
  Segment part 591.           Intra module refs:   Set_Var
    -------------------------------------------------------------------------
CODE
  Relative segment, address: 400154D4 - 400154D7 (0x4 bytes), align: 2
  Segment part 592.           Intra module refs:   Set_Var
    -------------------------------------------------------------------------
CODE
  Relative segment, address: 400154D8 - 400154DB (0x4 bytes), align: 2
  Segment part 593.           Intra module refs:   Set_Var
    -------------------------------------------------------------------------
CODE
  Relative segment, address: 400154DC - 400154DF (0x4 bytes), align: 2
  Segment part 594.           Intra module refs:   Set_Var
    -------------------------------------------------------------------------
CODE
  Relative segment, address: 400154E0 - 400154E3 (0x4 bytes), align: 2
  Segment part 595.           Intra module refs:   Set_Var
    -------------------------------------------------------------------------
CODE
  Relative segment, address: 400154E4 - 400154E7 (0x4 bytes), align: 2
  Segment part 596.           Intra module refs:   Set_Var
    -------------------------------------------------------------------------
CODE
  Relative segment, address: 400154E8 - 400154EB (0x4 bytes), align: 2
  Segment part 597.           Intra module refs:   Set_Var
    -------------------------------------------------------------------------
CODE
  Relative segment, address: 400154EC - 400154EF (0x4 bytes), align: 2
  Segment part 598.           Intra module refs:   Set_Var
    -------------------------------------------------------------------------
CODE
  Relative segment, address: 400154F0 - 400154F3 (0x4 bytes), align: 2
  Segment part 599.           Intra module refs:   Set_Var
    -------------------------------------------------------------------------
CODE
  Relative segment, address: 400154F4 - 400154F7 (0x4 bytes), align: 2
  Segment part 600.           Intra module refs:   Set_Var
    -------------------------------------------------------------------------
CODE
  Relative segment, address: 400154F8 - 400154FB (0x4 bytes), align: 2
  Segment part 601.           Intra module refs:   Set_Var
    -------------------------------------------------------------------------
CODE
  Relative segment, address: 400154FC - 400154FF (0x4 bytes), align: 2
  Segment part 602.           Intra module refs:   Set_Var
    -------------------------------------------------------------------------
CODE
  Relative segment, address: 40015500 - 40015503 (0x4 bytes), align: 2
  Segment part 603.           Intra module refs:   Set_Var
    -------------------------------------------------------------------------
CODE
  Relative segment, address: 40015504 - 40015507 (0x4 bytes), align: 2
  Segment part 604.           Intra module refs:   Set_Var
    -------------------------------------------------------------------------
CODE
  Relative segment, address: 40015508 - 4001550B (0x4 bytes), align: 2
  Segment part 605.           Intra module refs:   Set_Var
    -------------------------------------------------------------------------
CODE
  Relative segment, address: 4001550C - 4001550F (0x4 bytes), align: 2
  Segment part 606.           Intra module refs:   Set_Var
    -------------------------------------------------------------------------
CODE
  Relative segment, address: 40015510 - 40015513 (0x4 bytes), align: 2
  Segment part 607.           Intra module refs:   Set_Var
    -------------------------------------------------------------------------
CODE
  Relative segment, address: 40015514 - 40015517 (0x4 bytes), align: 2
  Segment part 608.           Intra module refs:   Set_Var
    -------------------------------------------------------------------------
CODE
  Relative segment, address: 40015518 - 4001551B (0x4 bytes), align: 2
  Segment part 609.           Intra module refs:   Set_Var
    -------------------------------------------------------------------------
CODE
  Relative segment, address: 4001551C - 4001551F (0x4 bytes), align: 2
  Segment part 610.           Intra module refs:   Set_Var
    -------------------------------------------------------------------------
CODE
  Relative segment, address: 40015520 - 40015523 (0x4 bytes), align: 2
  Segment part 611.           Intra module refs:   Set_Var
    -------------------------------------------------------------------------
CODE
  Relative segment, address: 40015524 - 40015527 (0x4 bytes), align: 2
  Segment part 612.           Intra module refs:   Set_Var
    -------------------------------------------------------------------------
CODE
  Relative segment, address: 40015528 - 4001552B (0x4 bytes), align: 2
  Segment part 613.           Intra module refs:   Set_Var
    -------------------------------------------------------------------------
CODE
  Relative segment, address: 4001552C - 4001552F (0x4 bytes), align: 2
  Segment part 614.           Intra module refs:   Set_Var
    -------------------------------------------------------------------------
CODE
  Relative segment, address: 40015530 - 40015533 (0x4 bytes), align: 2
  Segment part 615.           Intra module refs:   Set_Var
    -------------------------------------------------------------------------
CODE
  Relative segment, address: 40015534 - 40015537 (0x4 bytes), align: 2
  Segment part 616.           Intra module refs:   Set_Var
    -------------------------------------------------------------------------
CODE
  Relative segment, address: 40015538 - 4001553B (0x4 bytes), align: 2
  Segment part 617.           Intra module refs:   Set_Var
    -------------------------------------------------------------------------
CODE
  Relative segment, address: 4001553C - 4001553F (0x4 bytes), align: 2
  Segment part 618.           Intra module refs:   Set_Var
    -------------------------------------------------------------------------
CODE
  Relative segment, address: 40015540 - 40015543 (0x4 bytes), align: 2
  Segment part 619.           Intra module refs:   Set_Var
    -------------------------------------------------------------------------
CODE
  Relative segment, address: 40015544 - 40015547 (0x4 bytes), align: 2
  Segment part 620.           Intra module refs:   Set_Var
    -------------------------------------------------------------------------
CODE
  Relative segment, address: 40015548 - 4001554B (0x4 bytes), align: 2
  Segment part 621.           Intra module refs:   Set_Var
    -------------------------------------------------------------------------
CODE
  Relative segment, address: 4001554C - 4001554F (0x4 bytes), align: 2
  Segment part 622.           Intra module refs:   Set_Var
    -------------------------------------------------------------------------
CODE
  Relative segment, address: 40015550 - 40015553 (0x4 bytes), align: 2
  Segment part 623.           Intra module refs:   Set_Var
    -------------------------------------------------------------------------
CODE
  Relative segment, address: 40015554 - 40015557 (0x4 bytes), align: 2
  Segment part 624.           Intra module refs:   Set_Var
    -------------------------------------------------------------------------
CODE
  Relative segment, address: 40015558 - 4001555B (0x4 bytes), align: 2
  Segment part 625.           Intra module refs:   Set_Var
    -------------------------------------------------------------------------
CODE
  Relative segment, address: 4001555C - 4001555F (0x4 bytes), align: 2
  Segment part 626.           Intra module refs:   Set_Var
    -------------------------------------------------------------------------
CODE
  Relative segment, address: 40015560 - 40015563 (0x4 bytes), align: 2
  Segment part 627.           Intra module refs:   Set_Var
    -------------------------------------------------------------------------
CODE
  Relative segment, address: 40015564 - 40015567 (0x4 bytes), align: 2
  Segment part 628.           Intra module refs:   Set_Var
    -------------------------------------------------------------------------
CODE
  Relative segment, address: 40015568 - 4001556B (0x4 bytes), align: 2
  Segment part 629.           Intra module refs:   Set_Var
    -------------------------------------------------------------------------
CODE
  Relative segment, address: 4001556C - 4001556F (0x4 bytes), align: 2
  Segment part 630.           Intra module refs:   Set_Var
    -------------------------------------------------------------------------
CODE
  Relative segment, address: 40015570 - 40015573 (0x4 bytes), align: 2
  Segment part 631.           Intra module refs:   Set_Var
    -------------------------------------------------------------------------
CODE
  Relative segment, address: 40015574 - 40015577 (0x4 bytes), align: 2
  Segment part 632.           Intra module refs:   Set_Var
    -------------------------------------------------------------------------
CODE
  Relative segment, address: 40015578 - 4001557B (0x4 bytes), align: 2
  Segment part 633.           Intra module refs:   Set_Var
    -------------------------------------------------------------------------
CODE
  Relative segment, address: 4001557C - 4001557F (0x4 bytes), align: 2
  Segment part 634.           Intra module refs:   Set_Var
    -------------------------------------------------------------------------
CODE
  Relative segment, address: 40015580 - 40015583 (0x4 bytes), align: 2
  Segment part 635.           Intra module refs:   Set_Var
    -------------------------------------------------------------------------
CODE
  Relative segment, address: 40015584 - 40015587 (0x4 bytes), align: 2
  Segment part 636.           Intra module refs:   Set_Var
    -------------------------------------------------------------------------
CODE
  Relative segment, address: 40015588 - 4001558B (0x4 bytes), align: 2
  Segment part 637.           Intra module refs:   Set_Var
    -------------------------------------------------------------------------
CODE
  Relative segment, address: 4001558C - 4001558F (0x4 bytes), align: 2
  Segment part 638.           Intra module refs:   Set_Var
    -------------------------------------------------------------------------
CODE
  Relative segment, address: 40015590 - 40015593 (0x4 bytes), align: 2
  Segment part 639.           Intra module refs:   Set_Var
    -------------------------------------------------------------------------
DATA_C
  Relative segment, address: 40015778 - 40015783 (0xc bytes), align: 2
  Segment part 2.             Intra module refs:   MP3_SerialDataParsing
    -------------------------------------------------------------------------
DATA_C
  Relative segment, address: 40015784 - 4001578F (0xc bytes), align: 2
  Segment part 3.             Intra module refs:   MP3_SerialDataParsing
    -------------------------------------------------------------------------
DATA_C
  Relative segment, address: 40015790 - 4001579B (0xc bytes), align: 2
  Segment part 4.             Intra module refs:   MP3_SerialDataParsing
    -------------------------------------------------------------------------
DATA_C
  Relative segment, address: 4001579C - 400157A7 (0xc bytes), align: 2
  Segment part 5.             Intra module refs:   MP3_SerialDataParsing
    -------------------------------------------------------------------------
DATA_C
  Relative segment, address: 400157A8 - 400157B3 (0xc bytes), align: 2
  Segment part 6.             Intra module refs:   MP3_SerialDataParsing

    *************************************************************************

  FILE NAME : C:\Program Files (x86)\IAR Systems\Embedded Workbench 4.0 Evaluation\arm\LIB\dl4tpannl8n.r79
  LIBRARY MODULE, NAME : ?low_level_init

  SEGMENTS IN THE MODULE
  ======================
ICODE
  Relative segment, address: 40004714 - 4000471B (0x8 bytes), align: 2
  Segment part 2.
           ENTRY                   ADDRESS         REF BY
           =====                   =======         ======
           __low_level_init        40004714        ?main (?CMAIN)

    -------------------------------------------------------------------------
  LIBRARY MODULE, NAME : ?segment_init

  SEGMENTS IN THE MODULE
  ======================
ICODE
  Relative segment, address: 4000471C - 40004773 (0x58 bytes), align: 2
  Segment part 2.
           ENTRY                   ADDRESS         REF BY
           =====                   =======         ======
           __segment_init          4000471C        ?main (?CMAIN)
               stack 1 = 00000000 ( 00000010 )

    -------------------------------------------------------------------------
  LIBRARY MODULE, NAME : ?__exit

  SEGMENTS IN THE MODULE
  ======================
CODE
  Relative segment, address: 40015594 - 40015597 (0x4 bytes), align: 2
  Segment part 2.
           ENTRY                   ADDRESS         REF BY
           =====                   =======         ======
           __exit                  40015594        ?jump_to_exit (?_EXIT)

    -------------------------------------------------------------------------
  LIBRARY MODULE, NAME : ?exit

  SEGMENTS IN THE MODULE
  ======================
CODE
  Relative segment, address: 40015598 - 400155A7 (0x10 bytes), align: 2
  Segment part 2.
           ENTRY                   ADDRESS         REF BY
           =====                   =======         ======
           exit                    40015598        _main (?CMAIN)
               stack 1 = 00000000 ( 00000008 )

    -------------------------------------------------------------------------
  LIBRARY MODULE, NAME : ?memcpy

  SEGMENTS IN THE MODULE
  ======================
CODE
  Relative segment, address: 400155A8 - 400155C7 (0x20 bytes), align: 2
  Segment part 3.
           ENTRY                   ADDRESS         REF BY
           =====                   =======         ======
           memcpy                  400155A8        __segment_init (?segment_init)

    -------------------------------------------------------------------------
  LIBRARY MODULE, NAME : ?memset

  SEGMENTS IN THE MODULE
  ======================
CODE
  Relative segment, address: 400155C8 - 400155E7 (0x20 bytes), align: 2
  Segment part 3.
           ENTRY                   ADDRESS         REF BY
           =====                   =======         ======
           memset                  400155C8        __segment_init (?segment_init)

    -------------------------------------------------------------------------
  LIBRARY MODULE, NAME : ?strlen

  SEGMENTS IN THE MODULE
  ======================
CODE
  Relative segment, address: 400155E8 - 4001560B (0x24 bytes), align: 2
  Segment part 3.
           ENTRY                   ADDRESS         REF BY
           =====                   =======         ======
           strlen                  400155E8        CheckCMDLine (pac)

    -------------------------------------------------------------------------
  LIBRARY MODULE, NAME : ?strncmp

  SEGMENTS IN THE MODULE
  ======================
CODE
  Relative segment, address: 4001560C - 40015653 (0x48 bytes), align: 2
  Segment part 3.
           ENTRY                   ADDRESS         REF BY
           =====                   =======         ======
           strncmp                 4001560C        CheckCMDLine (pac)

    -------------------------------------------------------------------------
  LIBRARY MODULE, NAME : ?CMAIN

  SEGMENTS IN THE MODULE
  ======================
DIFUNCT
  Relative segment, address: 400047E0, align: 2
  Segment part 0. ROOT.
    -------------------------------------------------------------------------
ICODE
  Relative segment, address: 40004774 - 400047AB (0x38 bytes), align: 2
  Segment part 1.
           ENTRY                   ADDRESS         REF BY
           =====                   =======         ======
           ?main                   40004774        __program_start (?program_start)
    -------------------------------------------------------------------------
ICODE
  Relative segment, address: 400047AC - 400047DF (0x34 bytes), align: 2
  Segment part 3.             Intra module refs:   ?main
           ENTRY                   ADDRESS         REF BY
           =====                   =======         ======
           _main                   400047C0 

    -------------------------------------------------------------------------
  LIBRARY MODULE, NAME : ?_EXIT

  SEGMENTS IN THE MODULE
  ======================
CODE
  Relative segment, address: 40015654, align: 2
  Segment part 0.
           ENTRY                   ADDRESS         REF BY
           =====                   =======         ======
           _exit                   40015654        _main (?CMAIN)
                                                   exit (?exit)
    -------------------------------------------------------------------------
CODE
  Relative segment, address: 40015654 - 40015663 (0x10 bytes), align: 2
  Segment part 5.             Intra module refs:   _exit
           ENTRY                   ADDRESS         REF BY
           =====                   =======         ======
           ?jump_to_exit           40015654 

    -------------------------------------------------------------------------
  LIBRARY MODULE, NAME : ?div_module

  SEGMENTS IN THE MODULE
  ======================
CODE
  Relative segment, address: 40015664 - 4001566F (0xc bytes), align: 2
  Segment part 5.
           ENTRY                   ADDRESS         REF BY
           =====                   =======         ======
           ??divu32_a              40015664        ADC12_PrescalerConfig (71x_adc12)
                                                   I2C_SpeedConfig (71x_i2c)
                                                   RCCU_FrequencyValue (71x_rccu)
                                                   Set_Vol_I2C (pac)
                                                   UART_BaudRateConfig (71x_uart)
    -------------------------------------------------------------------------
CODE
  Relative segment, address: 40015670 - 40015687 (0x18 bytes), align: 2
  Segment part 11.
           ENTRY                   ADDRESS         REF BY
           =====                   =======         ======
           ??div32_a               40015670        HexIncDec (pac)
                                                   Port_Check (pac)
    -------------------------------------------------------------------------
CODE
  Relative segment, address: 40015688 - 4001575F (0xd8 bytes), align: 2
  Segment part 12.            Intra module refs:   ??div32_a
                                                   ??divu32_a




                ****************************************
                *                                      *
                *      SEGMENTS IN ADDRESS ORDER       *
                *                                      *
                ****************************************


SEGMENT              SPACE    START ADDRESS   END ADDRESS     SIZE  TYPE  ALIGN
=======              =====    =============   ===========     ====  ====  =====
INTVEC_RAM                              20000000                     rel    2
DATA_I                                  20000000                     dse    0
DATA_Z                             20000000 - 20000EAF         EB0   rel    2
CSTACK                             20000EB0 - 20001EAF        1000   rel    2
SVC_STACK                          20001EB0 - 20001FAF         100   rel    2
ABT_STACK                          20001FB0 - 200020AF         100   rel    2
UNDEF_STACK                        200020B0 - 200021AF         100   rel    2
FIQ_STACK                          200021B0 - 200022AF         100   rel    2
IRQ_STACK                          200022B0 - 200026AF         400   rel    2
INTVEC                             40004000 - 40004627         628   rel    2
ICODE                              40004628 - 400047DF         1B8   rel    2
DIFUNCT                                 400047E0                     rel    2
CODE                               400047E0 - 4001575F       10F80   rel    2
INITTAB                            40015760 - 40015777          18   rel    2
DATA_ID                                 40015778                     dse    0
DATA_C                             40015778 - 400157B3          3C   rel    2

                ****************************************
                *                                      *
                *        END OF CROSS REFERENCE        *
                *                                      *
                ****************************************

 71 520 bytes of CODE  memory
  9 904 bytes of DATA  memory
     84 bytes of CONST memory

Errors: none
Warnings: none

