;******************************************************************************
;* TMS320C3x/4x ANSI C Code Generator                            Version 5.11 *
;* Date/Time created: Mon Apr 16 19:12:09 2018                                *
;******************************************************************************
	.regalias	; enable floating point register aliases
fp	.set	ar3
FP	.set	ar3
;******************************************************************************
;* GLOBAL FILE PARAMETERS                                                     *
;*                                                                            *
;*   Optimization       : Always Choose Smaller Code Size                     *
;*   Memory             : Small Memory Model                                  *
;*   Float-to-Int       : Normal Conversions (round toward zero)              *
;*   Multiply           : in Hardware (24 bits max)                           *
;*   Memory Info        : Unmapped Memory Exists                              *
;*   Repeat Loops       : Use RPTS and/or RPTB                                *
;*   Calls              : Normal Library ASM calls                            *
;*   Debug Info         : Optimized TI Debug Information                      *
;******************************************************************************
;	c:\lang\tms320c3x\511\bin\ac30.exe loninfo.c C:\Users\JDS_DELL\AppData\Local\Temp\loninfo.if 
	.file	"loninfo.c"
	.file	"def.h"
	.sym	_WORD,0,13,13,32
	.sym	_USHORT,0,13,13,32
	.sym	_BYTE,0,12,13,32
	.sym	_UCHAR,0,12,13,32
	.sym	_UINT,0,14,13,32
	.sym	_BOOL,0,4,13,32
	.sym	_DWORD,0,15,13,32
	.file	"ds1647.h"
	.stag	.fake1,32
	.member	_R,6,4,18,1
	.member	_W,7,4,18,1
	.eos
	.stag	.fake2,32
	.member	_Sec,0,4,18,7
	.member	_Osc,7,4,18,1
	.eos
	.stag	.fake3,32
	.member	_Day,0,4,18,3
	.member	_SPare2,3,4,18,3
	.member	_FT,6,4,18,1
	.member	_Spare1,7,4,18,1
	.eos
	.utag	.fake0,32
	.member	_CtrlBit,0,8,11,32,.fake1
	.member	_SecBit,0,8,11,32,.fake2
	.member	_DayBit,0,8,11,32,.fake3
	.member	_B8,0,12,11,32
	.eos
	.sym	_DS1647ONELTP,0,9,13,32,.fake0
	.sym	_PDS1647ONELTP,0,25,13,32,.fake0
	.stag	.fake4,256
	.member	_Ctrl,0,9,8,32,.fake0
	.member	_Second,32,9,8,32,.fake0
	.member	_Minute,64,9,8,32,.fake0
	.member	_Hour,96,9,8,32,.fake0
	.member	_Day,128,9,8,32,.fake0
	.member	_Date,160,9,8,32,.fake0
	.member	_Month,192,9,8,32,.fake0
	.member	_Year,224,9,8,32,.fake0
	.eos
	.sym	_DS1647BDY,0,8,13,256,.fake4
	.sym	_PDS1647BDY,0,24,13,32,.fake4
	.stag	.fake5,224
	.member	_second,0,12,8,32
	.member	_minute,32,12,8,32
	.member	_hour,64,12,8,32
	.member	_day,96,12,8,32
	.member	_month,128,12,8,32
	.member	_year,160,12,8,32
	.member	_weekday,192,12,8,32
	.eos
	.sym	_DATE_TIME_TYPE,0,8,13,224,.fake5
	.sym	_DATE_TIME_PTR,0,24,13,32,.fake5
	.file	"main.h"
	.file	"user.h"
	.stag	.fake6,6400
	.member	_btStx,0,12,8,32
	.member	_btCmd,32,12,8,32
	.member	_btMessCode,64,12,8,32
	.member	_btLen,96,12,8,32
	.member	_btDat,128,60,8,6272,,196
	.eos
	.sym	_LNWKFTPIT,0,8,13,6400,.fake6
	.sym	_PLNWKFTPIT,0,24,13,32,.fake6
	.stag	.fake7,6400
	.member	_btStx,0,12,8,32
	.member	_btCmd,32,12,8,32
	.member	_btMessCode,64,12,8,32
	.member	_btLen,96,12,8,32
	.member	_btDat,128,60,8,6272,,196
	.eos
	.sym	_LNWKGERIT,0,8,13,6400,.fake7
	.sym	_PLNWKGERIT,0,24,13,32,.fake7
	.stag	.fake8,51712
	.member	_btKind,0,12,8,32
	.member	_btVerH,32,12,8,32
	.member	_btVerL,64,12,8,32
	.member	_btBuildDateHH,96,12,8,32
	.member	_btBuildDateHL,128,12,8,32
	.member	_btBuildDateLH,160,12,8,32
	.member	_btBuildDateLL,192,12,8,32
	.member	_btSpare,224,60,8,288,,9
	.member	_lfBuf,512,56,8,38400,.fake6,6
	.member	_lgRxBuf,38912,8,8,6400,.fake7
	.member	_lgTxBuf,45312,8,8,6400,.fake7
	.eos
	.sym	_LNWKDP,0,8,13,51712,.fake8
	.sym	_PLNWKDP,0,24,13,32,.fake8
	.stag	.fake9,416
	.member	_btSoh,0,12,8,32
	.member	_chSrcDev,32,60,8,64,,2
	.member	_chDestDev,96,60,8,64,,2
	.member	_chMsgCnt,160,60,8,64,,2
	.member	_chCmdCode,224,60,8,64,,2
	.member	_chDataLen,288,60,8,128,,4
	.eos
	.sym	_PTCHD,0,8,13,416,.fake9
	.sym	_PPTCHD,0,24,13,32,.fake9
	.stag	.fake10,768
	.member	_chPacT,0,60,8,64,,2
	.member	_chCcpM,64,60,8,64,,2
	.member	_chCncsT,128,60,8,64,,2
	.member	_chD0,192,60,8,64,,2
	.member	_chD1,256,60,8,64,,2
	.member	_chTran,320,252,8,192,,3,2
	.member	_chCid,512,252,8,192,,3,2
	.member	_chDs,704,60,8,64,,2
	.eos
	.sym	_PROTOCOL_1,0,8,13,768,.fake10
	.stag	.fake11,832
	.member	_phHdBuf,0,8,8,416,.fake9
	.member	_nDdata,416,60,8,64,,2
	.member	_nData_2,480,60,8,64,,2
	.member	_nCaller_ID,544,60,8,128,,4
	.member	_nCRC,672,60,8,128,,4
	.member	_btEot,800,12,8,32
	.eos
	.sym	_PACSDR,0,8,13,832,.fake11
	.sym	_PPACSDR,0,24,13,32,.fake11
	.stag	.fake14,32
	.member	_sACab_ON,0,14,18,1
	.member	_sAVoipCM,1,14,18,1
	.member	_sAAutom,2,14,18,1
	.member	_sAHead_Bit,3,14,18,1
	.member	_sBCab_ON,4,14,18,1
	.member	_sBVoipCM,5,14,18,1
	.member	_sBAutom,6,14,18,1
	.member	_sBHead_Bit,7,14,18,1
	.eos
	.utag	.fake13,32
	.member	_BYTE,0,14,11,32
	.member	_BIT,0,8,11,32,.fake14
	.eos
	.stag	.fake16,32
	.member	_sAWLR,0,14,18,1
	.member	_sAGPS,1,14,18,1
	.member	_sAVOIP,2,14,18,1
	.member	_sACCP1,3,14,18,1
	.member	_sBWLR,4,14,18,1
	.member	_sBGPS,5,14,18,1
	.member	_sBVOIP,6,14,18,1
	.member	_sBCCP1,7,14,18,1
	.eos
	.utag	.fake15,32
	.member	_BYTE,0,14,11,32
	.member	_BIT,0,8,11,32,.fake16
	.eos
	.stag	.fake18,32
	.member	_sACNCS,0,14,18,1
	.member	_sAVTX,1,14,18,1
	.member	_sALIC,2,14,18,1
	.member	_sAPAC,3,14,18,1
	.member	_sBCNCS,4,14,18,1
	.member	_sBVTX,5,14,18,1
	.member	_sBLIC,6,14,18,1
	.member	_sBPAC,7,14,18,1
	.eos
	.utag	.fake17,32
	.member	_BYTE,0,14,11,32
	.member	_BIT,0,8,11,32,.fake18
	.eos
	.stag	.fake20,32
	.member	_sAPII2,0,14,18,1
	.member	_sAPII1,1,14,18,1
	.member	_sAFDI,2,14,18,1
	.member	_sASp_3,3,14,18,1
	.member	_sBPII2,4,14,18,1
	.member	_sBPII1,5,14,18,1
	.member	_sBFDI,6,14,18,1
	.member	_sBSp_3,7,14,18,1
	.eos
	.utag	.fake19,32
	.member	_BYTE,0,14,11,32
	.member	_BIT,0,8,11,32,.fake20
	.eos
	.stag	.fake22,32
	.member	_sASDI4,0,14,18,1
	.member	_sASDI3,1,14,18,1
	.member	_sASDI2,2,14,18,1
	.member	_sASDI1,3,14,18,1
	.member	_sBSDI4,4,14,18,1
	.member	_sBSDI3,5,14,18,1
	.member	_sBSDI2,6,14,18,1
	.member	_sBSDI1,7,14,18,1
	.eos
	.utag	.fake21,32
	.member	_BYTE,0,14,11,32
	.member	_BIT,0,8,11,32,.fake22
	.eos
	.stag	.fake24,32
	.member	_sAPID1_4,0,14,18,1
	.member	_sAPID1_3,1,14,18,1
	.member	_sAPID1_2,2,14,18,1
	.member	_sAPID1_1,3,14,18,1
	.member	_sBPID1_4,4,14,18,1
	.member	_sBPID1_3,5,14,18,1
	.member	_sBPID1_2,6,14,18,1
	.member	_sBPID1_1,7,14,18,1
	.eos
	.utag	.fake23,32
	.member	_BYTE,0,14,11,32
	.member	_BIT,0,8,11,32,.fake24
	.eos
	.stag	.fake26,32
	.member	_sAPEI1,0,14,18,1
	.member	_sAPEI2,1,14,18,1
	.member	_sASp_3,2,14,18,1
	.member	_sAPID2_1,3,14,18,1
	.member	_sBPEI1,4,14,18,1
	.member	_sBPEI2,5,14,18,1
	.member	_sBSp_3,6,14,18,1
	.member	_sBPID2_1,7,14,18,1
	.eos
	.utag	.fake25,32
	.member	_BYTE,0,14,11,32
	.member	_BIT,0,8,11,32,.fake26
	.eos
	.stag	.fake28,32
	.member	_sAPEI1_Call,0,14,18,1
	.member	_sAPEI2_Call,1,14,18,1
	.member	_sASp_2,2,14,18,1
	.member	_sASp_3,3,14,18,1
	.member	_sBPEI1_Call,4,14,18,1
	.member	_sBPEI2_Call,5,14,18,1
	.member	_sBSp_2,6,14,18,1
	.member	_sBSp_3,7,14,18,1
	.eos
	.utag	.fake27,32
	.member	_BYTE,0,14,11,32
	.member	_BIT,0,8,11,32,.fake28
	.eos
	.stag	.fake30,32
	.member	_sADPO,0,14,18,1
	.member	_sASp_2,1,14,18,1
	.member	_sASp_3,2,14,18,1
	.member	_sADPH,3,14,18,1
	.member	_sBDPO,4,14,18,1
	.member	_sBSp_2,5,14,18,1
	.member	_sBSp_3,6,14,18,1
	.member	_sBDPH,7,14,18,1
	.eos
	.utag	.fake29,32
	.member	_BYTE,0,14,11,32
	.member	_BIT,0,8,11,32,.fake30
	.eos
	.stag	.fake12,352
	.member	_CRA_1,0,9,8,32,.fake13
	.member	_CRA_2,32,9,8,32,.fake15
	.member	_CRA_3,64,9,8,32,.fake17
	.member	_CRA_4,96,9,8,32,.fake19
	.member	_CRA_5,128,9,8,32,.fake21
	.member	_CRA_6,160,9,8,32,.fake23
	.member	_CRA_7,192,9,8,32,.fake25
	.member	_CRA_8,224,9,8,32,.fake27
	.member	_CRA_9,256,9,8,32,.fake29
	.member	_CarNum_H,288,12,8,32
	.member	_CarNum_L,320,12,8,32
	.eos
	.sym	_CRA_STATION,0,8,13,352,.fake12
	.sym	_PCRA_STATION,0,24,13,32,.fake12
	.stag	.fake31,704
	.member	_sUnitStat,0,252,8,576,,9,2
	.member	_sCarNumBcd_H,576,252,8,64,,1,2
	.member	_sCarNumBcd_L,640,252,8,64,,1,2
	.eos
	.sym	_CARSTAT_PRO,0,8,13,704,.fake31
	.stag	.fake32,8576
	.member	_phHdBuf,0,8,8,416,.fake9
	.member	_sPAC_T,416,60,8,64,,2
	.member	_sC_ID,480,60,8,64,,2
	.member	_sDO,544,60,8,64,,2
	.member	_sD1,608,60,8,64,,2
	.member	_sD2,672,60,8,64,,2
	.member	_sODM,736,252,8,256,,4,2
	.member	_sANS,992,60,8,64,,2
	.member	_sTRAN_NO,1056,252,8,192,,3,2
	.member	_sCRAW_ID,1248,252,8,192,,3,2
	.member	_sTRIP,1440,252,8,192,,3,2
	.member	_sD3,1632,60,8,64,,2
	.member	_sSTST,1696,252,8,128,,2,2
	.member	_sNOST,1824,252,8,128,,2,2
	.member	_sNEST,1952,252,8,128,,2,2
	.member	_sDEST,2080,252,8,128,,2,2
	.member	_sSPK,2208,252,8,128,,2,2
	.member	_sD4,2336,60,8,64,,2
	.member	_sD5,2400,60,8,64,,2
	.member	_sPR,2464,60,8,64,,2
	.member	_sPRVector,2528,252,8,128,,2,2
	.member	_sPACVector,2656,252,8,128,,2,2
	.member	_sFDI_SDI_Color,2784,252,8,128,,2,2
	.member	_sFDI_SDI_Vector1,2912,252,8,128,,2,2
	.member	_sFDI_SDI_Vector2,3040,252,8,128,,2,2
	.member	_sPII_Vector,3168,252,8,128,,2,2
	.member	_sPP_Line_Vector,3296,252,8,128,,2,2
	.member	_sPP_Vector,3424,252,8,128,,2,2
	.member	_sSP_Vector,3552,252,8,128,,2,2
	.member	_sROUTE_SKIP,3680,252,8,640,,10,2
	.member	_sCI_Index,4320,252,8,512,,8,2
	.member	_sCI_Fault,4832,60,8,64,,2
	.member	_sCCI,4896,60,8,64,,2
	.member	_sCPI,4960,60,8,64,,2
	.member	_phCRA_Sta,5024,1020,8,2816,,4,11,2
	.member	_sTrainLength,7840,60,8,64,,2
	.member	_sCI_IndexLic,7904,252,8,512,,8,2
	.member	_nCRC,8416,60,8,128,,4
	.member	_btEot,8544,12,8,32
	.eos
	.sym	_PAC_PAC,0,8,13,8576,.fake32
	.sym	_PPAC_PAC,0,24,13,32,.fake32
	.stag	.fake33,4800
	.member	_phHdBuf,0,8,8,416,.fake9
	.member	_sDO,416,60,8,64,,2
	.member	_sTRAN_NO,480,252,8,192,,3,2
	.member	_sCRAW_ID,672,252,8,192,,3,2
	.member	_sTRIP,864,252,8,192,,3,2
	.member	_sD1,1056,60,8,64,,2
	.member	_sSTST,1120,252,8,128,,2,2
	.member	_sNOST,1248,252,8,128,,2,2
	.member	_sNEST,1376,252,8,128,,2,2
	.member	_sDEST,1504,252,8,128,,2,2
	.member	_sSPK,1632,252,8,128,,2,2
	.member	_sODM,1760,252,8,256,,4,2
	.member	_sD2,2016,252,8,128,,2,2
	.member	_sD3,2144,252,8,128,,2,2
	.member	_sPR,2272,60,8,64,,2
	.member	_sPRVector,2336,252,8,128,,2,2
	.member	_sPACVector,2464,252,8,128,,2,2
	.member	_sFDI_SDI_Color,2592,252,8,128,,2,2
	.member	_sFDI_SDI_Vector1,2720,252,8,128,,2,2
	.member	_sFDI_SDI_Vector2,2848,252,8,128,,2,2
	.member	_sPII_Vector,2976,252,8,128,,2,2
	.member	_sPP_Line_Vector,3104,252,8,128,,2,2
	.member	_sPP_Vector,3232,252,8,128,,2,2
	.member	_sSP_Vector,3360,252,8,128,,2,2
	.member	_sROUTE_SKIP,3488,252,8,640,,10,2
	.member	_sCI_Index,4128,252,8,512,,8,2
	.member	_nCRC,4640,60,8,128,,4
	.member	_btEot,4768,12,8,32
	.eos
	.sym	_CCP_PAC,0,8,13,4800,.fake33
	.sym	_PCCP_PAC,0,24,13,32,.fake33
	.stag	.fake36,32
	.member	_Sp_0,0,14,18,1
	.member	_Sp_1,1,14,18,1
	.member	_CI_Fault,2,14,18,1
	.member	_DST,3,14,18,1
	.member	_Sp_4,4,14,18,1
	.member	_Sp_5,5,14,18,1
	.member	_Sp_6,6,14,18,1
	.member	_Sp_7,7,14,18,1
	.eos
	.utag	.fake35,32
	.member	_BYTE,0,14,11,32
	.member	_BIT,0,8,11,32,.fake36
	.eos
	.stag	.fake38,32
	.member	_All_Doors_Closed,0,14,18,1
	.member	_EP_Mode,1,14,18,1
	.member	_Traction,2,14,18,1
	.member	_Atcive_Cab,3,14,18,1
	.member	_Sp_4,4,14,18,1
	.member	_Sp_5,5,14,18,1
	.member	_Sp_6,6,14,18,1
	.member	_Sp_7,7,14,18,1
	.eos
	.utag	.fake37,32
	.member	_BYTE,0,14,11,32
	.member	_BIT,0,8,11,32,.fake38
	.eos
	.stag	.fake34,704
	.member	_phHdBuf,0,8,8,416,.fake9
	.member	_DATA2,416,9,8,32,.fake35
	.member	_DATA1,448,9,8,32,.fake37
	.member	_CI_Index_Num,480,60,8,64,,2
	.member	_nCRC,544,60,8,128,,4
	.member	_btEot,672,12,8,32
	.eos
	.sym	_LICSD,0,8,13,704,.fake34
	.sym	_PLICSDR,0,24,13,32,.fake34
	.stag	.fake39,480
	.member	_btSoh,0,12,8,32
	.member	_chSrcDev,32,60,8,64,,2
	.member	_chDestDev,96,60,8,64,,2
	.member	_chMsgCnt,160,60,8,128,,4
	.member	_chCmdCode,288,60,8,64,,2
	.member	_chDataLen,352,60,8,128,,4
	.eos
	.sym	_CNCSHD,0,8,13,480,.fake39
	.sym	_PCNCSHD,0,24,13,32,.fake39
	.stag	.fake40,10208
	.member	_phHdBuf,0,8,8,480,.fake39
	.member	_sCommand,480,60,8,64,,2
	.member	_sCarKind,544,60,8,64,,2
	.member	_sTextDataAsc,608,60,8,9600,,300
	.eos
	.sym	_LIC_CNCS_HD,0,8,13,10208,.fake40
	.sym	_PLIC_CNCS_HD,0,24,13,32,.fake40
	.stag	.fake41,320
	.member	_chVer,0,50,8,128,,4
	.member	_chBuildDate,128,50,8,192,,6
	.eos
	.sym	_CNCS_LIC_VERBDD_SD,0,8,13,320,.fake41
	.sym	_PCNCS_LIC_VERBDD_SD,0,24,13,32,.fake41
	.stag	.fake42,8096
	.member	_VerCnt,0,13,8,32
	.member	_cvbBuf,32,56,8,8000,.fake41,25
	.member	_CarNum,8032,61,8,64,,2
	.eos
	.sym	_LIC_DPRAM_Ver,0,8,13,8096,.fake42
	.sym	_PLIC_DPRAM_Ver,0,24,13,32,.fake42
	.stag	.fake43,9600
	.member	_phHdBuf,0,8,8,480,.fake39
	.member	_sCommand,480,60,8,64,,2
	.member	_sYear,544,60,8,64,,2
	.member	_sMonth,608,60,8,64,,2
	.member	_sDay,672,60,8,64,,2
	.member	_sHour,736,60,8,64,,2
	.member	_sMinute,800,60,8,64,,2
	.member	_sSecond,864,60,8,64,,2
	.member	_sWaySide,928,60,8,64,,2
	.member	_sDaType,992,60,8,64,,2
	.member	_sFaultTime,1056,60,8,256,,8
	.member	_cvbBuf,1312,56,8,8000,.fake41,25
	.member	_sRailNumVer,9312,60,8,128,,4
	.member	_nCRC,9440,60,8,128,,4
	.member	_btEot,9568,12,8,32
	.eos
	.sym	_CNCS_LIC_SD,0,8,13,9600,.fake43
	.sym	_PCNCS_LIC_SD,0,24,13,32,.fake43
	.stag	.fake44,896
	.member	_phHdBuf,0,8,8,480,.fake39
	.member	_sCommand,480,60,8,64,,2
	.member	_sTEXT,544,60,8,128,,4
	.member	_chContactSignalBuf,672,60,8,64,,2
	.member	_nCRC,736,60,8,128,,4
	.member	_btEot,864,12,8,32
	.eos
	.sym	_CNCS_LIC_T_F,0,8,13,896,.fake44
	.sym	_PCNCS_LIC_T_F,0,24,13,32,.fake44
	.stag	.fake45,832
	.member	_phHdBuf,0,8,8,480,.fake39
	.member	_sCommand,480,60,8,64,,2
	.member	_sTEXT,544,60,8,128,,4
	.member	_nCRC,672,60,8,128,,4
	.member	_btEot,800,12,8,32
	.eos
	.sym	_CNCS_LIC_T_F_C,0,8,13,832,.fake45
	.sym	_PCNCS_LIC_T_F_C,0,24,13,32,.fake45
	.stag	.fake46,96
	.member	_sChSum,0,60,8,64,,2
	.member	_sETX,64,12,8,32
	.eos
	.sym	_LIC_CNCS_ED,0,8,13,96,.fake46
	.sym	_PLIC_CNCS_ED,0,24,13,32,.fake46
	.stag	.fake48,32
	.member	_n1VTX,0,14,18,1
	.member	_n2CNCS,1,14,18,1
	.member	_n3PAC2,2,14,18,1
	.member	_n4LIC,3,14,18,1
	.member	_n5WLAN,4,14,18,1
	.member	_n6GPS,5,14,18,1
	.member	_n7PAC1,6,14,18,1
	.member	_n8sp,7,14,18,1
	.eos
	.stag	.fake49,32
	.member	_n1DPO1,0,14,18,1
	.member	_n2DPO2,1,14,18,1
	.member	_n3CCP1,2,14,18,1
	.member	_n4CCP2,3,14,18,1
	.member	_n5TRIC1,4,14,18,1
	.member	_n6TRIC2,5,14,18,1
	.member	_n7TR1,6,14,18,1
	.member	_n8TR2,7,14,18,1
	.eos
	.stag	.fake50,32
	.member	_n1Sp,0,14,18,1
	.member	_n2Sp,1,14,18,1
	.member	_n3CPO1,2,14,18,1
	.member	_n4CPO2,3,14,18,1
	.member	_n5CPO3,4,14,18,1
	.member	_n6CPO4,5,14,18,1
	.member	_n7Sp,6,14,18,1
	.member	_n8Sp,7,14,18,1
	.eos
	.stag	.fake51,32
	.member	_n1PEI1,0,14,18,1
	.member	_n2PEI2,1,14,18,1
	.member	_n3PEI3,2,14,18,1
	.member	_n4PEI4,3,14,18,1
	.member	_n5PEI5,4,14,18,1
	.member	_n6PEI6,5,14,18,1
	.member	_n7FDI1,6,14,18,1
	.member	_n8FDI2,7,14,18,1
	.eos
	.stag	.fake52,32
	.member	_n1SDI1,0,14,18,1
	.member	_n2SDI2,1,14,18,1
	.member	_n3SDI3,2,14,18,1
	.member	_n4SDI4,3,14,18,1
	.member	_n5SDI5,4,14,18,1
	.member	_n6SDI6,5,14,18,1
	.member	_n7SDI7,6,14,18,1
	.member	_n8SDI8,7,14,18,1
	.eos
	.stag	.fake53,32
	.member	_n1PID1_1,0,14,18,1
	.member	_n2PID1_2,1,14,18,1
	.member	_n3PID1_3,2,14,18,1
	.member	_n4PID1_4,3,14,18,1
	.member	_n5PID1_5,4,14,18,1
	.member	_n6PID1_6,5,14,18,1
	.member	_n7PID1_7,6,14,18,1
	.member	_n8PID1_8,7,14,18,1
	.eos
	.stag	.fake54,32
	.member	_n1PID2_1,0,14,18,1
	.member	_n2PID2_2,1,14,18,1
	.member	_n3PID2_3,2,14,18,1
	.member	_n4PID2_4,3,14,18,1
	.member	_n5PII1,4,14,18,1
	.member	_n6PII2,5,14,18,1
	.member	_n7PII3,6,14,18,1
	.member	_n8PII4,7,14,18,1
	.eos
	.stag	.fake47,256
	.member	_BYTE_1,0,8,8,32,.fake48
	.member	_BYTE_2,32,8,8,32,.fake49
	.member	_BYTE_3,64,8,8,32,.fake50
	.member	_BYTE_4,96,8,8,32,.fake51
	.member	_BYTE_5,128,12,8,32
	.member	_BYTE_6,160,8,8,32,.fake52
	.member	_BYTE_7,192,8,8,32,.fake53
	.member	_BYTE_8,224,8,8,32,.fake54
	.eos
	.sym	_COMMSTATUS_PA,0,8,13,256,.fake47
	.sym	_PCOMMSTATUS_PA,0,24,13,32,.fake47
	.stag	.fake57,32
	.member	_nCcp,0,14,18,1
	.member	_nsp,1,14,18,1
	.member	_nVtx,2,14,18,1
	.member	_nVoip,3,14,18,1
	.member	_nPac,4,14,18,1
	.member	_nLic,5,14,18,1
	.member	_nFdi,6,14,18,1
	.member	_nSdi1,7,14,18,1
	.eos
	.utag	.fake56,32
	.member	_BYTE,0,12,11,32
	.member	_BIT,0,8,11,32,.fake57
	.eos
	.stag	.fake59,32
	.member	_nSdi2,0,14,18,1
	.member	_nSdi3,1,14,18,1
	.member	_nSdi4,2,14,18,1
	.member	_nPii1,3,14,18,1
	.member	_nPii2,4,14,18,1
	.member	_nPid1_1,5,14,18,1
	.member	_nPid1_2,6,14,18,1
	.member	_nPid1_3,7,14,18,1
	.eos
	.utag	.fake58,32
	.member	_BYTE,0,12,11,32
	.member	_BIT,0,8,11,32,.fake59
	.eos
	.stag	.fake61,32
	.member	_nPid1_4,0,14,18,1
	.member	_nPid2_1,1,14,18,1
	.member	_nCncs,2,14,18,1
	.member	_CRA_LAUN,3,14,18,1
	.member	_CRA_UP,4,14,18,1
	.member	_CRA_PP,5,14,18,1
	.member	_CRA_SP,6,14,18,1
	.member	_CRA_FTP,7,14,18,1
	.eos
	.utag	.fake60,32
	.member	_BYTE,0,12,11,32
	.member	_BIT,0,8,11,32,.fake61
	.eos
	.stag	.fake63,32
	.member	_nPei1,0,14,18,1
	.member	_nPei2,1,14,18,1
	.member	_sp_2,2,14,18,1
	.member	_sp_3,3,14,18,1
	.member	_nDpo,4,14,18,1
	.member	_sp_5,5,14,18,1
	.member	_sp_6,6,14,18,1
	.member	_nDph,7,14,18,1
	.eos
	.utag	.fake62,32
	.member	_BYTE,0,12,11,32
	.member	_BIT,0,8,11,32,.fake63
	.eos
	.stag	.fake65,32
	.member	_sp_0,0,14,18,1
	.member	_sp_1,1,14,18,1
	.member	_sp_2,2,14,18,1
	.member	_sp_3,3,14,18,1
	.member	_sp_4,4,14,18,1
	.member	_sp_5,5,14,18,1
	.member	_sp_6,6,14,18,1
	.member	_sp_7,7,14,18,1
	.eos
	.utag	.fake64,32
	.member	_BYTE,0,12,11,32
	.member	_BIT,0,8,11,32,.fake65
	.eos
	.stag	.fake55,160
	.member	_BYTE_1,0,9,8,32,.fake56
	.member	_BYTE_2,32,9,8,32,.fake58
	.member	_BYTE_3,64,9,8,32,.fake60
	.member	_BYTE_4,96,9,8,32,.fake62
	.member	_BYTE_5,128,9,8,32,.fake64
	.eos
	.sym	_COMMSTATUS_LIC,0,8,13,160,.fake55
	.sym	_PCOMMSTATUS_LIC,0,24,13,32,.fake55
	.stag	.fake66,768
	.member	_nCcp_0,0,12,8,32
	.member	_nsp_1,32,12,8,32
	.member	_nVtx_2,64,12,8,32
	.member	_nVoip_3,96,12,8,32
	.member	_nPac_4,128,12,8,32
	.member	_nLic_5,160,12,8,32
	.member	_nFdi_6,192,12,8,32
	.member	_nSdi1_7,224,12,8,32
	.member	_nSdi2_8,256,12,8,32
	.member	_nSdi3_9,288,12,8,32
	.member	_nSdi4_10,320,12,8,32
	.member	_nPii1_11,352,12,8,32
	.member	_nPii2_12,384,12,8,32
	.member	_nPid1_1_13,416,12,8,32
	.member	_nPid1_2_14,448,12,8,32
	.member	_nPid1_3_15,480,12,8,32
	.member	_nPid1_4_16,512,12,8,32
	.member	_nPid2_1_17,544,12,8,32
	.member	_nCncs_18,576,12,8,32
	.member	_CRA_LAUN_19,608,12,8,32
	.member	_CRA_UP_20,640,12,8,32
	.member	_CRA_PP_21,672,12,8,32
	.member	_CRA_SP_22,704,12,8,32
	.member	_CRA_FTP_23,736,12,8,32
	.eos
	.sym	_COMMSTATUS_LIC_ERRCNT,0,8,13,768,.fake66
	.sym	_PCOMMSTATUS_LIC_ERRCNT,0,24,13,32,.fake66
	.etag	_eCDT_TYPE,32
	.member	_eCDT_A,0,4,16,32
	.member	_eCDT_B,1,4,16,32
	.member	_eCDT_MAXIMUM,2,4,16,32
	.eos
	.stag	.fake67,96
	.member	_nTCnt,0,4,8,32
	.member	_nStPosi,32,4,8,32
	.member	_nEdPosi,64,4,8,32
	.eos
	.sym	_T_FAULT_INFO,0,8,13,96,.fake67
	.sym	_PFAULT_INFO,0,24,13,32,.fake67
	.file	"Variable.h"
	.stag	.fake70,32
	.member	_Atcive_Cab,0,14,18,1
	.member	_Traction,1,14,18,1
	.member	_EP_Mode,2,14,18,1
	.member	_All_Doors_Closed,3,14,18,1
	.member	_Ci_CutOff,4,14,18,1
	.member	_Sp_5,5,14,18,1
	.member	_Sp_6,6,14,18,1
	.member	_Sp_7,7,14,18,1
	.eos
	.utag	.fake69,32
	.member	_BYTE,0,14,11,32
	.member	_BIT,0,8,11,32,.fake70
	.eos
	.stag	.fake68,11776
	.member	_LIC_VerList,0,242,8,7200,,25,9
	.member	_m_nUart1RxOneByteGapDelayTime,7200,14,8,32
	.member	_m_nUart2RxOneByteGapDelayTime,7232,14,8,32
	.member	_m_nUart3RxOneByteGapDelayTime,7264,14,8,32
	.member	_m_nUserDebug1msTimer,7296,14,8,32
	.member	_m_nTest1msTimer,7328,14,8,32
	.member	_m_tmCurTime,7360,8,8,224,.fake5
	.member	_m_tmUtcTime,7584,8,8,224,.fake5
	.member	_m_ProStartFlag,7808,12,8,32
	.member	_m_btCommSt,7840,60,8,256,,8
	.member	_m_btOldCommSt,8096,60,8,256,,8
	.member	_m_btSenseCommStBuf,8352,60,8,256,,8
	.member	_m_LIC_CNCS_Tx_Flag,8608,4,8,32
	.member	_m_LIC_CNCS_TX_DelyTime,8640,4,8,32
	.member	_m_nLnWkTxFlag,8672,4,8,32
	.member	_m_nFaultCnt,8704,4,8,32
	.member	_m_Recving_Posi,8736,4,8,32
	.member	_m_nCDT_FaultDataStFlag,8768,4,8,32
	.member	_m_TrainCofVal,8800,4,8,32
	.member	_m_TrainCofVal_Time_Flag,8832,4,8,32
	.member	_m_TrainCofVal_Chick,8864,4,8,32
	.member	_m_TrainCofVal_ing,8896,4,8,32
	.member	_m_nCarPos,8928,4,8,32
	.member	_m_nCarPos_Backup,8960,4,8,32
	.member	_m_btCiFaultVal,8992,4,8,32
	.member	_m_nCarNo,9024,13,8,32
	.member	_m_nCarNo_CncsRx,9056,13,8,32
	.member	_m_chCarKind,9088,2,8,32
	.member	_m_nCarKindToLonCnt,9120,4,8,32
	.member	_m_chCarKindNum,9152,2,8,32
	.member	_m_chCncsKindNum,9184,2,8,32
	.member	_m_bLnWkDbgTxFlag,9216,4,8,32
	.member	_m_nLnWkWaySideOnRxOk,9248,12,8,32
	.member	_m_nCarCnt,9280,12,8,32
	.member	_m_nNvsramPos,9312,14,8,32
	.member	_m_bLnWkFtpEndFlag,9344,4,8,32
	.member	_m_nDateTime2SecondCnt,9376,14,8,32
	.member	_m_nTxDbg1msTimer,9408,14,8,32
	.member	_m_nDbgTxPos,9440,14,8,32
	.member	_m_btExVersionTbl,9472,61,8,928,,29
	.member	_m_btExVersion_DAYTbl,10400,61,8,928,,29
	.member	_m_btCttSignalA,11328,9,8,32,.fake69
	.member	_m_btCttSignalB,11360,12,8,32
	.member	_m_LIC_CNCS_TimSetFlag,11392,4,8,32
	.member	_m_LIC_GIA_TimSetFlag,11424,4,8,32
	.member	_m_nCncsRxCheck1msTimer,11456,14,8,32
	.member	_m_nGiaRxCheck1msTimer,11488,14,8,32
	.member	_m_btTestOtherCiFault,11520,12,8,32
	.member	_m_bCiFaultFlag,11552,4,8,32
	.member	_m_tFaultInfo,11584,56,8,192,.fake67,2
	.eos
	.sym	_VARIABLE_H,0,8,13,11776,.fake68
	.sym	_PVARIABLE_H,0,24,13,32,.fake68
	.file	"LonInfo.h"
	.file	"loninfo.c"
	.sect	 ".text"

	.global	_LonWorkLoop
	.sym	_LonWorkLoop,_LonWorkLoop,32,2,0
	.func	11
;******************************************************************************
;* FUNCTION NAME: _LonWorkLoop                                                *
;*                                                                            *
;*   Architecture       : TMS320C30                                           *
;*   Calling Convention : Stack Parameter Convention                          *
;*   Function Uses Regs : r0,r1,r2,r4,ar0,fp,ir0,sp,st                        *
;*   Regs Saved         : r4                                                  *
;*   Stack Frame        : Full (w/ debug)                                     *
;*   Total Frame Size   : 2 Call + 0 Parm + 707 Auto + 1 SOE = 710 words      *
;******************************************************************************
_LonWorkLoop:
	.sym	_i,1,4,1,32
	.sym	_nTxPos,2,4,1,32
	.sym	_btTxBuf,3,60,1,4096,,128
	.sym	_pNvsram,131,28,1,32
	.sym	_szBuf,132,50,1,16384,,512
	.sym	_szBuf2,644,50,1,2048,,64
	.line	1
;----------------------------------------------------------------------
;  11 | void LonWorkLoop()                                                     
;  13 | int i;                                                                 
;----------------------------------------------------------------------
        push      fp
        ldiu      sp,fp
        addi      707,sp
        push      r4
	.line	4
;----------------------------------------------------------------------
;  14 | int nTxPos = 0;                                                        
;  15 | UCHAR btTxBuf[128];                                                    
;----------------------------------------------------------------------
        ldiu      0,r0
        sti       r0,*+fp(2)
	.line	6
;----------------------------------------------------------------------
;  16 | UCHAR *pNvsram = (UCHAR *)NVSRAM_BASE;                                 
;  17 | char szBuf[512];                                                       
;  18 | char szBuf2[64];                                                       
;----------------------------------------------------------------------
        ldiu      @CL1,r0
        sti       r0,*+fp(131)
	.line	10
;----------------------------------------------------------------------
;  20 | if(m_Variable.m_nCDT_FaultDataStFlag == 1)                             
;----------------------------------------------------------------------
        ldiu      @_m_Variable+274,r0
        cmpi      1,r0
        bne       L3
;*      Branch Occurs to L3 
	.line	12
;----------------------------------------------------------------------
;  22 | m_Variable.m_nCDT_FaultDataStFlag = 0;                                 
;----------------------------------------------------------------------
        ldiu      0,r0
        sti       r0,@_m_Variable+274
	.line	14
;----------------------------------------------------------------------
;  24 | m_Variable.m_LIC_CNCS_Tx_Flag = TRUE;                                  
;----------------------------------------------------------------------
        ldiu      1,r0
        sti       r0,@_m_Variable+269
	.line	15
;----------------------------------------------------------------------
;  25 | m_Variable.m_nTxDbg1msTimer = 0;                                       
;----------------------------------------------------------------------
        ldiu      0,r0
        sti       r0,@_m_Variable+294
	.line	17
;----------------------------------------------------------------------
;  27 | nTxPos = 0;                                                            
;----------------------------------------------------------------------
        sti       r0,*+fp(2)
	.line	18
;----------------------------------------------------------------------
;  28 | btTxBuf[nTxPos++] = STX;  // STX                                       
;----------------------------------------------------------------------
        ldiu      fp,ar0
        ldiu      1,r1
        addi      3,ar0
        ldiu      r0,ir0
        addi      ir0,r1
        ldiu      2,r0
        sti       r1,*+fp(2)
        sti       r0,*+ar0(ir0)
	.line	19
;----------------------------------------------------------------------
;  29 | btTxBuf[nTxPos++] = 0x01; // Command Code                              
;----------------------------------------------------------------------
        ldiu      1,r1
        ldiu      fp,ar0
        ldiu      *+fp(2),ir0
        addi      3,ar0
        addi      ir0,r1
        ldiu      1,r0
        sti       r1,*+fp(2)
        sti       r0,*+ar0(ir0)
	.line	20
;----------------------------------------------------------------------
;  30 | btTxBuf[nTxPos++] = 0x00; // 0x00Ŕ¸·Î ĽłÁ¤                             
;----------------------------------------------------------------------
        ldiu      1,r1
        ldiu      *+fp(2),ir0
        addi      ir0,r1
        sti       r1,*+fp(2)
        ldiu      fp,ar0
        addi      3,ar0
        ldiu      0,r0
        sti       r0,*+ar0(ir0)
	.line	21
;----------------------------------------------------------------------
;  31 | btTxBuf[nTxPos++] = 0x06; // ±ćŔĚ                                      
;----------------------------------------------------------------------
        ldiu      1,r1
        ldiu      fp,ar0
        ldiu      *+fp(2),ir0
        addi      ir0,r1
        sti       r1,*+fp(2)
        addi      3,ar0
        ldiu      6,r0
        sti       r0,*+ar0(ir0)
	.line	22
;----------------------------------------------------------------------
;  32 | btTxBuf[nTxPos++] = m_Variable.m_nLnWkTxFlag; // ˝şĹ×ŔĚĽÇ(Recently):0x0
;     | 1, ±âÁöĂ˘(Historycal):0x02                                             
;----------------------------------------------------------------------
        ldiu      *+fp(2),ir0
        ldiu      1,r0
        addi      ir0,r0
        sti       r0,*+fp(2)
        ldiu      fp,ar0
        addi      3,ar0
        ldiu      @_m_Variable+271,r0
        sti       r0,*+ar0(ir0)
	.line	23
;----------------------------------------------------------------------
;  33 | btTxBuf[nTxPos++] = 0x00; //                                           
;----------------------------------------------------------------------
        ldiu      0,r0
        ldiu      1,r1
        ldiu      *+fp(2),ir0
        ldiu      fp,ar0
        addi      ir0,r1
        addi      3,ar0
        sti       r1,*+fp(2)
        sti       r0,*+ar0(ir0)
	.line	24
;----------------------------------------------------------------------
;  34 | btTxBuf[nTxPos++] = WORD_H(DWORD_H(m_Variable.m_nDateTime2SecondCnt));
;     | // ˝Ă°Ł(HH)                                                            
;----------------------------------------------------------------------
        ldiu      @_m_Variable+293,r0
        lsh       -16,r0
        and       65535,r0
        ldiu      1,r1
        ldiu      *+fp(2),ir0
        addi      ir0,r1
        lsh       -8,r0
        ldiu      fp,ar0
        and       255,r0
        addi      3,ar0
        sti       r1,*+fp(2)
        sti       r0,*+ar0(ir0)
	.line	25
;----------------------------------------------------------------------
;  35 | btTxBuf[nTxPos++] = WORD_L(DWORD_H(m_Variable.m_nDateTime2SecondCnt));
;     | // ˝Ă°Ł(HL)                                                            
;----------------------------------------------------------------------
        ldiu      @_m_Variable+293,r0
        ldiu      *+fp(2),ir0
        lsh       -16,r0
        ldiu      1,r1
        ldiu      fp,ar0
        addi      ir0,r1
        addi      3,ar0
        and       255,r0
        sti       r1,*+fp(2)
        sti       r0,*+ar0(ir0)
	.line	26
;----------------------------------------------------------------------
;  36 | btTxBuf[nTxPos++] = WORD_H(DWORD_L(m_Variable.m_nDateTime2SecondCnt));
;     | // ˝Ă°Ł(LH)                                                            
;----------------------------------------------------------------------
        ldiu      @_m_Variable+293,r0
        ldiu      *+fp(2),ir0
        ldiu      1,r1
        ldiu      fp,ar0
        addi      ir0,r1
        and       65535,r0
        addi      3,ar0
        lsh       -8,r0
        sti       r1,*+fp(2)
        and       255,r0
        sti       r0,*+ar0(ir0)
	.line	27
;----------------------------------------------------------------------
;  37 | btTxBuf[nTxPos++] = WORD_L(DWORD_L(m_Variable.m_nDateTime2SecondCnt));
;     | // ˝Ă°Ł(LL)                                                            
;----------------------------------------------------------------------
        ldiu      1,r1
        ldiu      *+fp(2),ir0
        ldiu      255,r0
        ldiu      fp,ar0
        and       @_m_Variable+293,r0
        addi      ir0,r1
        addi      3,ar0
        sti       r1,*+fp(2)
        sti       r0,*+ar0(ir0)
	.line	28
;----------------------------------------------------------------------
;  38 | btTxBuf[nTxPos++] = Make1ByteBcc(&btTxBuf[1],nTxPos-1); // Check Sum   
;----------------------------------------------------------------------
        ldiu      fp,r0
        addi      4,r0
        ldiu      1,r1
        subri     *+fp(2),r1
        push      r1
        push      r0
        call      _Make1ByteBcc
                                        ; Call Occurs
        subi      2,sp
        ldiu      1,r1
        ldiu      *+fp(2),ir0
        ldiu      fp,ar0
        addi      ir0,r1
        addi      3,ar0
        sti       r1,*+fp(2)
        sti       r0,*+ar0(ir0)
	.line	29
;----------------------------------------------------------------------
;  39 | btTxBuf[nTxPos++] = ETX; // ETX                                        
;----------------------------------------------------------------------
        ldiu      3,r0
        ldiu      fp,ar0
        ldiu      1,r1
        ldiu      *+fp(2),ir0
        addi      3,ar0
        addi      ir0,r1
        sti       r1,*+fp(2)
        sti       r0,*+ar0(ir0)
	.line	30
;----------------------------------------------------------------------
;  40 | LonWorkTx(btTxBuf,nTxPos);                                             
;----------------------------------------------------------------------
        ldiu      fp,r0
        addi      3,r0
        ldiu      *+fp(2),r1
        push      r1
        push      r0
        call      _LonWorkTx
                                        ; Call Occurs
        subi      2,sp
	.line	32
;----------------------------------------------------------------------
;  42 | MyPrintf("LonMDS Falut Request : ",nTxPos);                            
;  43 | //for(i=0;i<nTxPos;i++) MyPrintf("%02X ",WORD_L(btTxBuf[i]));          
;  44 | //MyPrintf("\r\n");                                                    
;  47 | // NVSRAMżˇ ŔúŔĺµČ ł»żëŔ» RS232·Î ŔüĽŰÇĎż© µđąö±ëÇŃ´Ů.                 
;----------------------------------------------------------------------
        ldiu      @CL2,r0
        ldiu      *+fp(2),r1
        push      r1
        push      r0
        call      _MyPrintf
                                        ; Call Occurs
        subi      2,sp
L3:        
	.line	38
;----------------------------------------------------------------------
;  48 | if(m_Variable.m_bLnWkDbgTxFlag)                                        
;----------------------------------------------------------------------
        ldi       @_m_Variable+288,r0
        beq       L5
;*      Branch Occurs to L5 
	.line	40
;----------------------------------------------------------------------
;  50 | m_Variable.m_bLnWkDbgTxFlag = FALSE;                                   
;----------------------------------------------------------------------
        ldiu      0,r0
        sti       r0,@_m_Variable+288
	.line	41
;----------------------------------------------------------------------
;  51 | m_Variable.m_nDbgTxPos = 0;                                            
;----------------------------------------------------------------------
        sti       r0,@_m_Variable+295
	.line	42
;----------------------------------------------------------------------
;  52 | m_Variable.m_nTxDbg1msTimer = 0;                                       
;----------------------------------------------------------------------
        sti       r0,@_m_Variable+294
L5:        
	.line	45
;----------------------------------------------------------------------
;  55 | if(m_Variable.m_nDbgTxPos < m_Variable.m_nNvsramPos) //m_nDbgTxPos = 0x
;     | FFFFFFFF ·Î Ç×»ó Ĺ« °ŞŔ» °ˇÁö°í ŔÖ´Ů°ˇ ŔüĽŰÇĎ¶ó´Â ¸í·Éżˇ Ŕ§ÇŘ 0Ŕ¸·Î Ĺ¬¸
;     | ®ľî µČ´Ů.                                                              
;----------------------------------------------------------------------
        ldiu      @_m_Variable+295,r0
        cmpi      @_m_Variable+291,r0
        bhs       L15
;*      Branch Occurs to L15 
	.line	47
;----------------------------------------------------------------------
;  57 | if(m_Variable.m_nTxDbg1msTimer > 200)                                  
;----------------------------------------------------------------------
        ldiu      @_m_Variable+294,r0
        cmpi      200,r0
        bls       L20
;*      Branch Occurs to L20 
	.line	49
;----------------------------------------------------------------------
;  59 | m_Variable.m_nTxDbg1msTimer = 0;                                       
;----------------------------------------------------------------------
        ldiu      0,r0
        sti       r0,@_m_Variable+294
	.line	50
;----------------------------------------------------------------------
;  60 | szBuf[0] = 0;                                                          
;----------------------------------------------------------------------
        ldiu      fp,ar0
        addi      132,ar0
        sti       r0,*ar0
	.line	51
;----------------------------------------------------------------------
;  61 | for(i=0;i<(MIN(128,(UINT)(m_Variable.m_nNvsramPos-m_Variable.m_nDbgTxPo
;     | s)));i++) {sprintf(szBuf2,"%02X ",pNvsram[m_Variable.m_nDbgTxPos+i]); s
;     | trcat(szBuf,szBuf2);}                                                  
;----------------------------------------------------------------------
        sti       r0,*+fp(1)
        bu        L10
;*      Branch Occurs to L10 
	.line	51
L9:        
        addi      *+fp(131),ir0         ; Unsigned
        ldiu      @CL3,r0
        ldiu      *+ar0(ir0),r2
        addi      fp,r1
        push      r2
        push      r0
        push      r1
        call      _sprintf
                                        ; Call Occurs
        subi      3,sp
        ldiu      644,r1
        ldiu      fp,r0
        addi      fp,r1
        addi      132,r0
        push      r1
        push      r0
        call      _strcat
                                        ; Call Occurs
        subi      2,sp
        ldiu      1,r0
        addi      *+fp(1),r0
        sti       r0,*+fp(1)
L10:        
        ldiu      @_m_Variable+295,r0
        ldiu      128,r1
        subri     @_m_Variable+291,r0   ; Unsigned
        cmpi3     r0,r1
        bhs       L12
;*      Branch Occurs to L12 
        bud       L13
	nop
	nop
        ldiu      128,r0
;*      Branch Occurs to L13 
L12:        
        ldiu      @_m_Variable+295,r0
        subri     @_m_Variable+291,r0   ; Unsigned
L13:        
        ldiu      *+fp(1),r1
        cmpi3     r0,r1
        blod      L9
        ldilo     @_m_Variable+295,ir0
        ldilo     *+fp(1),ar0
        ldilo     644,r1
;*      Branch Occurs to L9 
	.line	52
;----------------------------------------------------------------------
;  62 | strcat(szBuf,"\r\n");                                                  
;----------------------------------------------------------------------
        ldiu      @CL4,r1
        ldiu      fp,r0
        push      r1
        addi      132,r0
        push      r0
        call      _strcat
                                        ; Call Occurs
        subi      2,sp
	.line	53
;----------------------------------------------------------------------
;  63 | user_DebugPrint(szBuf);                                                
;----------------------------------------------------------------------
        ldiu      fp,r0
        addi      132,r0
        push      r0
        call      _user_DebugPrint
                                        ; Call Occurs
        subi      1,sp
	.line	54
;----------------------------------------------------------------------
;  64 | m_Variable.m_nDbgTxPos += 128;                                         
;  67 | else                                                                   
;----------------------------------------------------------------------
        ldiu      128,r0
        addi      @_m_Variable+295,r0   ; Unsigned
        sti       r0,@_m_Variable+295
        bu        L20
;*      Branch Occurs to L20 
L15:        
	.line	58
;----------------------------------------------------------------------
;  68 | if(m_Variable.m_nDbgTxPos == 0xFFFFFFFF)                               
;----------------------------------------------------------------------
        ldiu      @_m_Variable+295,r0
        cmpi      @CL5,r0
        bne       L20
;*      Branch Occurs to L20 
	.line	60
;----------------------------------------------------------------------
;  70 | if(nTxPos)                                                             
;----------------------------------------------------------------------
        ldi       *+fp(2),r0
        beq       L20
;*      Branch Occurs to L20 
	.line	62
;----------------------------------------------------------------------
;  72 | szBuf[0] = 0;                                                          
;----------------------------------------------------------------------
        ldiu      fp,ar0
        addi      132,ar0
        ldiu      0,r0
        sti       r0,*ar0
	.line	63
;----------------------------------------------------------------------
;  73 | sprintf(szBuf2,"[TX:%02d] ",nTxPos); strcat(szBuf,szBuf2);             
;----------------------------------------------------------------------
        ldiu      @CL6,r1
        ldiu      *+fp(2),r2
        ldiu      644,r0
        push      r2
        addi      fp,r0
        push      r1
        push      r0
        call      _sprintf
                                        ; Call Occurs
        subi      3,sp
        ldiu      644,r1
        ldiu      fp,r0
        addi      fp,r1
        addi      132,r0
        push      r1
        push      r0
        call      _strcat
                                        ; Call Occurs
        subi      2,sp
	.line	64
;----------------------------------------------------------------------
;  74 | for(i=0;i<nTxPos;i++) {sprintf(szBuf2,"%02X ",WORD_L(btTxBuf[i])); strc
;     | at(szBuf,szBuf2);}                                                     
;----------------------------------------------------------------------
        ldiu      0,r0
        sti       r0,*+fp(1)
        ldiu      255,r4
        cmpi      *+fp(2),r0
        bge       L19
;*      Branch Occurs to L19 
L18:        
        ldiu      fp,ar0
        ldiu      *+fp(1),ir0
        ldiu      644,r2
        addi      3,ar0
        ldiu      @CL3,r0
        and3      r4,*+ar0(ir0),r1
        addi      fp,r2
        push      r1
        push      r0
        push      r2
        call      _sprintf
                                        ; Call Occurs
        subi      3,sp
        ldiu      644,r1
        ldiu      fp,r0
        addi      fp,r1
        addi      132,r0
        push      r1
        push      r0
        call      _strcat
                                        ; Call Occurs
        subi      2,sp
        ldiu      1,r0
        addi      *+fp(1),r0
        sti       r0,*+fp(1)
        cmpi      *+fp(2),r0
        blt       L18
;*      Branch Occurs to L18 
L19:        
	.line	65
;----------------------------------------------------------------------
;  75 | strcat(szBuf,"\r\n");                                                  
;----------------------------------------------------------------------
        ldiu      @CL4,r1
        ldiu      fp,r0
        push      r1
        addi      132,r0
        push      r0
        call      _strcat
                                        ; Call Occurs
        subi      2,sp
	.line	66
;----------------------------------------------------------------------
;  76 | user_DebugPrint(szBuf);                                                
;----------------------------------------------------------------------
        ldiu      fp,r0
        addi      132,r0
        push      r0
        call      _user_DebugPrint
                                        ; Call Occurs
        subi      1,sp
L20:        
	.line	69
        ldiu      *-fp(1),bk
        pop       r4
        ldiu      *fp,fp
        subi      709,sp
        bu        bk
;*      Branch Occurs to bk 
	.endfunc	79,000000010h,707



	.sect	".cinit"
	.field  	1,32
	.field  	_d_MDSinputData+0,32
	.field  	0,32		; _d_MDSinputData @ 0

	.sect	".text"

	.global	_d_MDSinputData
	.bss	_d_MDSinputData,1
	.sym	_d_MDSinputData,_d_MDSinputData,12,2,32

	.sect	".cinit"
	.field  	1,32
	.field  	_d_CIShiftFlag+0,32
	.field  	0,32		; _d_CIShiftFlag @ 0

	.sect	".text"

	.global	_d_CIShiftFlag
	.bss	_d_CIShiftFlag,1
	.sym	_d_CIShiftFlag,_d_CIShiftFlag,12,2,32

	.sect	".cinit"
	.field  	1,32
	.field  	_nOldKind$1+0,32
	.field  	0,32		; _nOldKind$1 @ 0

	.sect	".text"

	.sect	".cinit"
	.field  	1,32
	.field  	_nRecRxPos$2+0,32
	.field  	0,32		; _nRecRxPos$2 @ 0

	.sect	".text"
	.sect	 ".text"

	.global	_LonWorkRead
	.sym	_LonWorkRead,_LonWorkRead,32,2,0
	.func	89
;******************************************************************************
;* FUNCTION NAME: _LonWorkRead                                                *
;*                                                                            *
;*   Architecture       : TMS320C30                                           *
;*   Calling Convention : Stack Parameter Convention                          *
;*   Function Uses Regs : r0,r1,r2,r3,r4,ar0,ar1,fp,ar4,ir0,ir1,sp,st,rs,re,  *
;*                        rc                                                  *
;*   Regs Saved         : r4,ar4                                              *
;*   Stack Frame        : Full (w/ debug)                                     *
;*   Total Frame Size   : 2 Call + 0 Parm + 968 Auto + 2 SOE = 972 words      *
;******************************************************************************
_LonWorkRead:
	.bss	_nOldKind$1,1
	.sym	_nOldKind,_nOldKind$1,12,3,32
	.bss	_nRecRxPos$2,1
	.sym	_nRecRxPos,_nRecRxPos$2,4,3,32
	.bss	_btFtpOneRecRxBuf$3,1024
	.sym	_btFtpOneRecRxBuf,_btFtpOneRecRxBuf$3,60,3,32768,,1024
	.sym	_i,1,4,1,32
	.sym	_nTmp,2,4,1,32
	.sym	_pLnWkDp,3,24,1,32,.fake8
	.sym	_pNvsram,4,28,1,32
	.sym	_pLicVerDp,5,24,1,32,.fake42
	.sym	_nKind,6,12,1,32
	.sym	_nRxLen,7,12,1,32
	.sym	_btRxBuf,8,60,1,8192,,256
	.sym	_nTxPos,264,4,1,32
	.sym	_btTxBuf,265,60,1,4096,,128
	.sym	_szBuf,393,50,1,16384,,512
	.sym	_szBuf2,905,50,1,2048,,64
	.line	1
;----------------------------------------------------------------------
;  89 | void LonWorkRead()                                                     
;  91 | int i;                                                                 
;  92 | int nTmp;                                                              
;----------------------------------------------------------------------
        push      fp
        ldiu      sp,fp
        addi      968,sp
        push      r4
        push      ar4
	.line	5
;----------------------------------------------------------------------
;  93 | PLNWKDP pLnWkDp = (LNWKDP *)DPRAM_BASE;                                
;----------------------------------------------------------------------
        ldiu      @CL7,r0
        sti       r0,*+fp(3)
	.line	6
;----------------------------------------------------------------------
;  94 | UCHAR *pNvsram = (UCHAR *)NVSRAM_BASE;                                 
;----------------------------------------------------------------------
        ldiu      @CL1,r0
        sti       r0,*+fp(4)
	.line	7
;----------------------------------------------------------------------
;  95 | PLIC_DPRAM_Ver pLicVerDp = (LIC_DPRAM_Ver *)NVSRAM_VER; //ąöŔü Á¤ş¸ Ăł¸
;     | ®¸¦ Ŕ§ÇŘ ŔÓŔÇ·Î ¸¸µéľú´Ů.                                              
;  96 | UCHAR nKind;                                                           
;  97 | static UCHAR nOldKind = 0;                                             
;  98 | UCHAR nRxLen;                                                          
;  99 | static int nRecRxPos = 0;                                              
; 100 | UCHAR btRxBuf[256];                                                    
; 101 | static UCHAR btFtpOneRecRxBuf[1024];                                   
;----------------------------------------------------------------------
        ldiu      @CL8,r0
        sti       r0,*+fp(5)
	.line	14
;----------------------------------------------------------------------
; 102 | int nTxPos = 0;                                                        
; 103 | UCHAR btTxBuf[128];                                                    
; 104 | char szBuf[512];                                                       
; 105 | char szBuf2[64];                                                       
;----------------------------------------------------------------------
        ldiu      264,ir0
        ldiu      0,r0
        sti       r0,*+fp(ir0)
	.line	19
;----------------------------------------------------------------------
; 107 | nKind = WORD_L(pLnWkDp->btKind);                                       
; 109 | switch(nKind)                                                          
; 111 | // FTP1~6 ÇÁ·ÎĹäÄÝ                                                     
; 112 | case 1: case 2: case 3: case 4: case 5: case 6:                        
;----------------------------------------------------------------------
        ldiu      *+fp(3),ar0
        bud       L156
        ldiu      255,r0
        and3      r0,*ar0,r0
        sti       r0,*+fp(6)
;*      Branch Occurs to L156 
L23:        
	.line	25
;----------------------------------------------------------------------
; 113 | nRxLen = 0;                                                            
; 115 | // ˝ĂŔŰ                                                                
;----------------------------------------------------------------------
        ldiu      0,r0
        sti       r0,*+fp(7)
	.line	28
;----------------------------------------------------------------------
; 116 | if(nKind == 1)                                                         
;----------------------------------------------------------------------
        ldiu      *+fp(6),r0
        cmpi      1,r0
        bne       L35
;*      Branch Occurs to L35 
	.line	30
;----------------------------------------------------------------------
; 118 | nRecRxPos = 0;                                                         
;----------------------------------------------------------------------
        ldiu      0,r0
        sti       r0,@_nRecRxPos$2+0
	.line	31
;----------------------------------------------------------------------
; 119 | nRxLen = LonWorkRx(nKind,btRxBuf);                                     
;----------------------------------------------------------------------
        ldiu      *+fp(6),r1
        ldiu      fp,r0
        addi      8,r0
        push      r0
        push      r1
        call      _LonWorkRx
                                        ; Call Occurs
        subi      2,sp
        sti       r0,*+fp(7)
	.line	32
;----------------------------------------------------------------------
; 120 | if(nRxLen>6 && nRecRxPos<768)                                          
;----------------------------------------------------------------------
        cmpi      6,r0
        bls       L60
;*      Branch Occurs to L60 
        ldiu      @_nRecRxPos$2+0,r0
        cmpi      768,r0
        bge       L60
;*      Branch Occurs to L60 
	.line	34
;----------------------------------------------------------------------
; 122 | memcpy(&btFtpOneRecRxBuf[nRecRxPos],&btRxBuf[5],nRxLen-7);             
;----------------------------------------------------------------------
        ldiu      @CL9,r0
        ldiu      7,r1
        ldiu      fp,r2
        addi      @_nRecRxPos$2+0,r0    ; Unsigned
        subri     *+fp(7),r1            ; Unsigned
        addi      13,r2
        push      r1
        push      r2
        push      r0
        call      _memcpy
                                        ; Call Occurs
        subi      3,sp
	.line	35
;----------------------------------------------------------------------
; 123 | nTmp = (nRxLen-7);                                                     
;----------------------------------------------------------------------
        ldiu      7,r0
        subri     *+fp(7),r0            ; Unsigned
        sti       r0,*+fp(2)
	.line	36
;----------------------------------------------------------------------
; 124 | nRecRxPos += nTmp;                                                     
;----------------------------------------------------------------------
        addi      @_nRecRxPos$2+0,r0
        sti       r0,@_nRecRxPos$2+0
	.line	38
;----------------------------------------------------------------------
; 126 | szBuf[0] = 0;                                                          
;----------------------------------------------------------------------
        ldiu      393,ir0
        ldiu      0,r0
        sti       r0,*+fp(ir0)
	.line	39
;----------------------------------------------------------------------
; 127 | sprintf(szBuf2,"[%d,%3d,%c]",nKind,nRxLen,(char)btRxBuf[4]); strcat(szB
;     | uf,szBuf2);                                                            
;----------------------------------------------------------------------
        ldiu      fp,ar0
        addi      12,ar0
        ldiu      @CL10,r1
        ldiu      905,r2
        ldiu      *ar0,r0
        push      r0
        ldiu      *+fp(7),r0
        push      r0
        ldiu      *+fp(6),r0
        push      r0
        push      r1
        addi      fp,r2
        push      r2
        call      _sprintf
                                        ; Call Occurs
        subi      5,sp
        ldiu      905,r0
        addi      fp,r0
        push      r0
        ldiu      393,r0
        addi      fp,r0
        push      r0
        call      _strcat
                                        ; Call Occurs
        subi      2,sp
	.line	40
;----------------------------------------------------------------------
; 128 | if(nTmp < 128)                                                         
;----------------------------------------------------------------------
        ldiu      *+fp(2),r0
        cmpi      128,r0
        bge       L30
;*      Branch Occurs to L30 
	.line	42
;----------------------------------------------------------------------
; 130 | for(i=0;i<nTmp;i++) {sprintf(szBuf2,"%02X",btRxBuf[i+5]); strcat(szBuf,
;     | szBuf2);}                                                              
; 132 | else                                                                   
;----------------------------------------------------------------------
        ldiu      0,r0
        sti       r0,*+fp(1)
        cmpi      *+fp(2),r0
        bge       L34
;*      Branch Occurs to L34 
L28:        
        ldiu      5,ir0
        ldiu      fp,ar0
        ldiu      905,r1
        addi      *+fp(1),ir0
        addi      8,ar0
        ldiu      @CL11,r0
        ldiu      *+ar0(ir0),r2
        addi      fp,r1
        push      r2
        push      r0
        push      r1
        call      _sprintf
                                        ; Call Occurs
        subi      3,sp
        ldiu      905,r0
        addi      fp,r0
        push      r0
        ldiu      393,r0
        addi      fp,r0
        push      r0
        call      _strcat
                                        ; Call Occurs
        subi      2,sp
        ldiu      1,r0
        addi      *+fp(1),r0
        sti       r0,*+fp(1)
        cmpi      *+fp(2),r0
        blt       L28
;*      Branch Occurs to L28 
        bu        L34
;*      Branch Occurs to L34 
L30:        
	.line	46
;----------------------------------------------------------------------
; 134 | for(i=0;i<8;i++) {sprintf(szBuf2,"%02X",btRxBuf[i+5]); strcat(szBuf,szB
;     | uf2);}                                                                 
;----------------------------------------------------------------------
        ldiu      0,r0
        sti       r0,*+fp(1)
        cmpi      8,r0
        bge       L32
;*      Branch Occurs to L32 
L31:        
        ldiu      5,ir0
        ldiu      fp,ar0
        ldiu      905,r2
        addi      *+fp(1),ir0
        addi      8,ar0
        ldiu      @CL11,r0
        ldiu      *+ar0(ir0),r1
        addi      fp,r2
        push      r1
        push      r0
        push      r2
        call      _sprintf
                                        ; Call Occurs
        subi      3,sp
        ldiu      905,r0
        addi      fp,r0
        push      r0
        ldiu      393,r0
        addi      fp,r0
        push      r0
        call      _strcat
                                        ; Call Occurs
        subi      2,sp
        ldiu      1,r0
        addi      *+fp(1),r0
        sti       r0,*+fp(1)
        cmpi      8,r0
        blt       L31
;*      Branch Occurs to L31 
L32:        
	.line	47
;----------------------------------------------------------------------
; 135 | strcat(szBuf,"..");                                                    
;----------------------------------------------------------------------
        ldiu      @CL12,r1
        ldiu      393,r0
        push      r1
        addi      fp,r0
        push      r0
        call      _strcat
                                        ; Call Occurs
        subi      2,sp
	.line	48
;----------------------------------------------------------------------
; 136 | for(i=120;i<128;i++) {sprintf(szBuf2,"%02X",btRxBuf[i+5]); strcat(szBuf
;     | ,szBuf2);}                                                             
;----------------------------------------------------------------------
        ldiu      120,r0
        sti       r0,*+fp(1)
        cmpi      128,r0
        bge       L34
;*      Branch Occurs to L34 
L33:        
        ldiu      5,ir0
        ldiu      fp,ar0
        ldiu      905,r0
        addi      *+fp(1),ir0
        addi      8,ar0
        ldiu      @CL11,r1
        ldiu      *+ar0(ir0),r2
        addi      fp,r0
        push      r2
        push      r1
        push      r0
        call      _sprintf
                                        ; Call Occurs
        subi      3,sp
        ldiu      905,r0
        addi      fp,r0
        push      r0
        ldiu      393,r0
        addi      fp,r0
        push      r0
        call      _strcat
                                        ; Call Occurs
        subi      2,sp
        ldiu      1,r0
        addi      *+fp(1),r0
        sti       r0,*+fp(1)
        cmpi      128,r0
        blt       L33
;*      Branch Occurs to L33 
L34:        
	.line	50
;----------------------------------------------------------------------
; 138 | strcat(szBuf,"\r\n");                                                  
;----------------------------------------------------------------------
        ldiu      @CL4,r0
        ldiu      393,r1
        push      r0
        addi      fp,r1
        push      r1
        call      _strcat
                                        ; Call Occurs
        subi      2,sp
	.line	51
;----------------------------------------------------------------------
; 139 | user_DebugPrint(szBuf);                                                
; 142 | else                                                                   
; 143 | // Áß°Ł ·ąÄÚµĺ Ľö˝Ĺ                                                    
;----------------------------------------------------------------------
        ldiu      393,r0
        addi      fp,r0
        push      r0
        call      _user_DebugPrint
                                        ; Call Occurs
        subi      1,sp
        bu        L60
;*      Branch Occurs to L60 
L35:        
	.line	56
;----------------------------------------------------------------------
; 144 | if(nKind >= 2 && nKind <= 5)                                           
;----------------------------------------------------------------------
        ldiu      *+fp(6),r0
        cmpi      2,r0
        blo       L48
;*      Branch Occurs to L48 
        cmpi      5,r0
        bhi       L48
;*      Branch Occurs to L48 
	.line	58
;----------------------------------------------------------------------
; 146 | nRxLen = LonWorkRx(nKind,btRxBuf);                                     
;----------------------------------------------------------------------
        ldiu      fp,r0
        ldiu      *+fp(6),r1
        addi      8,r0
        push      r0
        push      r1
        call      _LonWorkRx
                                        ; Call Occurs
        subi      2,sp
        sti       r0,*+fp(7)
	.line	59
;----------------------------------------------------------------------
; 147 | if(nRxLen>6 && nRecRxPos<768)                                          
;----------------------------------------------------------------------
        cmpi      6,r0
        bls       L60
;*      Branch Occurs to L60 
        ldiu      @_nRecRxPos$2+0,r0
        cmpi      768,r0
        bge       L60
;*      Branch Occurs to L60 
	.line	61
;----------------------------------------------------------------------
; 149 | memcpy(&btFtpOneRecRxBuf[nRecRxPos],&btRxBuf[5],nRxLen-7);             
;----------------------------------------------------------------------
        ldiu      @CL9,r0
        ldiu      7,r1
        ldiu      fp,r2
        addi      @_nRecRxPos$2+0,r0    ; Unsigned
        subri     *+fp(7),r1            ; Unsigned
        addi      13,r2
        push      r1
        push      r2
        push      r0
        call      _memcpy
                                        ; Call Occurs
        subi      3,sp
	.line	62
;----------------------------------------------------------------------
; 150 | nTmp = (nRxLen-7);                                                     
;----------------------------------------------------------------------
        ldiu      7,r0
        subri     *+fp(7),r0            ; Unsigned
        sti       r0,*+fp(2)
	.line	63
;----------------------------------------------------------------------
; 151 | nRecRxPos += nTmp;                                                     
;----------------------------------------------------------------------
        addi      @_nRecRxPos$2+0,r0
        sti       r0,@_nRecRxPos$2+0
	.line	65
;----------------------------------------------------------------------
; 153 | szBuf[0] = 0;                                                          
;----------------------------------------------------------------------
        ldiu      393,ir0
        ldiu      0,r0
        sti       r0,*+fp(ir0)
	.line	66
;----------------------------------------------------------------------
; 154 | sprintf(szBuf2,"[%d,%3d,%c]",nKind,nRxLen,(char)btRxBuf[4]); strcat(szB
;     | uf,szBuf2);                                                            
;----------------------------------------------------------------------
        ldiu      fp,ar0
        addi      12,ar0
        ldiu      *ar0,r1
        push      r1
        ldiu      *+fp(7),r1
        push      r1
        ldiu      905,r2
        ldiu      *+fp(6),r1
        push      r1
        ldiu      @CL10,r0
        push      r0
        addi      fp,r2
        push      r2
        call      _sprintf
                                        ; Call Occurs
        subi      5,sp
        ldiu      905,r0
        addi      fp,r0
        push      r0
        ldiu      393,r0
        addi      fp,r0
        push      r0
        call      _strcat
                                        ; Call Occurs
        subi      2,sp
	.line	67
;----------------------------------------------------------------------
; 155 | if(nTmp < 128)                                                         
;----------------------------------------------------------------------
        ldiu      *+fp(2),r0
        cmpi      128,r0
        bge       L43
;*      Branch Occurs to L43 
	.line	69
;----------------------------------------------------------------------
; 157 | for(i=0;i<nTmp;i++) {sprintf(szBuf2,"%02X",btRxBuf[i+5]); strcat(szBuf,
;     | szBuf2);}                                                              
; 159 | else                                                                   
;----------------------------------------------------------------------
        ldiu      0,r0
        sti       r0,*+fp(1)
        cmpi      *+fp(2),r0
        bge       L47
;*      Branch Occurs to L47 
L41:        
        ldiu      5,ir0
        ldiu      fp,ar0
        ldiu      905,r0
        addi      *+fp(1),ir0
        addi      8,ar0
        ldiu      @CL11,r1
        ldiu      *+ar0(ir0),r2
        addi      fp,r0
        push      r2
        push      r1
        push      r0
        call      _sprintf
                                        ; Call Occurs
        subi      3,sp
        ldiu      905,r0
        addi      fp,r0
        push      r0
        ldiu      393,r0
        addi      fp,r0
        push      r0
        call      _strcat
                                        ; Call Occurs
        subi      2,sp
        ldiu      1,r0
        addi      *+fp(1),r0
        sti       r0,*+fp(1)
        cmpi      *+fp(2),r0
        blt       L41
;*      Branch Occurs to L41 
        bu        L47
;*      Branch Occurs to L47 
L43:        
	.line	73
;----------------------------------------------------------------------
; 161 | for(i=0;i<8;i++) {sprintf(szBuf2,"%02X",btRxBuf[i+5]); strcat(szBuf,szB
;     | uf2);}                                                                 
;----------------------------------------------------------------------
        ldiu      0,r0
        sti       r0,*+fp(1)
        cmpi      8,r0
        bge       L45
;*      Branch Occurs to L45 
L44:        
        ldiu      5,ir0
        ldiu      fp,ar0
        ldiu      905,r1
        addi      *+fp(1),ir0
        addi      8,ar0
        ldiu      @CL11,r0
        ldiu      *+ar0(ir0),r2
        addi      fp,r1
        push      r2
        push      r0
        push      r1
        call      _sprintf
                                        ; Call Occurs
        subi      3,sp
        ldiu      905,r0
        addi      fp,r0
        push      r0
        ldiu      393,r0
        addi      fp,r0
        push      r0
        call      _strcat
                                        ; Call Occurs
        subi      2,sp
        ldiu      1,r0
        addi      *+fp(1),r0
        sti       r0,*+fp(1)
        cmpi      8,r0
        blt       L44
;*      Branch Occurs to L44 
L45:        
	.line	74
;----------------------------------------------------------------------
; 162 | strcat(szBuf,"..");                                                    
;----------------------------------------------------------------------
        ldiu      @CL12,r1
        ldiu      393,r0
        push      r1
        addi      fp,r0
        push      r0
        call      _strcat
                                        ; Call Occurs
        subi      2,sp
	.line	75
;----------------------------------------------------------------------
; 163 | for(i=120;i<128;i++) {sprintf(szBuf2,"%02X",btRxBuf[i+5]); strcat(szBuf
;     | ,szBuf2);}                                                             
;----------------------------------------------------------------------
        ldiu      120,r0
        sti       r0,*+fp(1)
        cmpi      128,r0
        bge       L47
;*      Branch Occurs to L47 
L46:        
        ldiu      5,ir0
        ldiu      fp,ar0
        ldiu      905,r0
        addi      *+fp(1),ir0
        addi      8,ar0
        ldiu      @CL11,r1
        ldiu      *+ar0(ir0),r2
        addi      fp,r0
        push      r2
        push      r1
        push      r0
        call      _sprintf
                                        ; Call Occurs
        subi      3,sp
        ldiu      905,r0
        addi      fp,r0
        push      r0
        ldiu      393,r0
        addi      fp,r0
        push      r0
        call      _strcat
                                        ; Call Occurs
        subi      2,sp
        ldiu      1,r0
        addi      *+fp(1),r0
        sti       r0,*+fp(1)
        cmpi      128,r0
        blt       L46
;*      Branch Occurs to L46 
L47:        
	.line	77
;----------------------------------------------------------------------
; 165 | strcat(szBuf,"\r\n");                                                  
;----------------------------------------------------------------------
        ldiu      @CL4,r0
        ldiu      393,r1
        push      r0
        addi      fp,r1
        push      r1
        call      _strcat
                                        ; Call Occurs
        subi      2,sp
	.line	78
;----------------------------------------------------------------------
; 166 | user_DebugPrint(szBuf);                                                
; 169 | else                                                                   
; 170 | // łˇ                                                                  
;----------------------------------------------------------------------
        ldiu      393,r0
        addi      fp,r0
        push      r0
        call      _user_DebugPrint
                                        ; Call Occurs
        subi      1,sp
        bu        L60
;*      Branch Occurs to L60 
L48:        
	.line	83
;----------------------------------------------------------------------
; 171 | if(nKind == 6)                                                         
;----------------------------------------------------------------------
        ldiu      *+fp(6),r0
        cmpi      6,r0
        bne       L60
;*      Branch Occurs to L60 
	.line	85
;----------------------------------------------------------------------
; 173 | nRxLen = LonWorkRx(nKind,btRxBuf);                                     
;----------------------------------------------------------------------
        ldiu      fp,r0
        ldiu      *+fp(6),r1
        addi      8,r0
        push      r0
        push      r1
        call      _LonWorkRx
                                        ; Call Occurs
        subi      2,sp
        sti       r0,*+fp(7)
	.line	86
;----------------------------------------------------------------------
; 174 | if(nRxLen>6 && nRecRxPos<768)                                          
;----------------------------------------------------------------------
        cmpi      6,r0
        bls       L60
;*      Branch Occurs to L60 
        ldiu      @_nRecRxPos$2+0,r0
        cmpi      768,r0
        bge       L60
;*      Branch Occurs to L60 
	.line	88
;----------------------------------------------------------------------
; 176 | memcpy(&btFtpOneRecRxBuf[nRecRxPos],&btRxBuf[5],nRxLen-7);             
;----------------------------------------------------------------------
        ldiu      @CL9,r0
        ldiu      7,r1
        ldiu      fp,r2
        addi      @_nRecRxPos$2+0,r0    ; Unsigned
        subri     *+fp(7),r1            ; Unsigned
        addi      13,r2
        push      r1
        push      r2
        push      r0
        call      _memcpy
                                        ; Call Occurs
        subi      3,sp
	.line	89
;----------------------------------------------------------------------
; 177 | nTmp = (nRxLen-7);                                                     
;----------------------------------------------------------------------
        ldiu      7,r0
        subri     *+fp(7),r0            ; Unsigned
        sti       r0,*+fp(2)
	.line	90
;----------------------------------------------------------------------
; 178 | nRecRxPos += nTmp;                                                     
;----------------------------------------------------------------------
        addi      @_nRecRxPos$2+0,r0
        sti       r0,@_nRecRxPos$2+0
	.line	92
;----------------------------------------------------------------------
; 180 | szBuf[0] = 0;                                                          
;----------------------------------------------------------------------
        ldiu      393,ir0
        ldiu      0,r0
        sti       r0,*+fp(ir0)
	.line	93
;----------------------------------------------------------------------
; 181 | sprintf(szBuf2,"[%d,%3d,%c]",nKind,nRxLen,(char)btRxBuf[4]); strcat(szB
;     | uf,szBuf2);                                                            
;----------------------------------------------------------------------
        ldiu      fp,ar0
        addi      12,ar0
        ldiu      *ar0,r1
        push      r1
        ldiu      *+fp(7),r1
        push      r1
        ldiu      905,r2
        ldiu      *+fp(6),r1
        push      r1
        ldiu      @CL10,r0
        push      r0
        addi      fp,r2
        push      r2
        call      _sprintf
                                        ; Call Occurs
        subi      5,sp
        ldiu      905,r0
        addi      fp,r0
        push      r0
        ldiu      393,r0
        addi      fp,r0
        push      r0
        call      _strcat
                                        ; Call Occurs
        subi      2,sp
	.line	94
;----------------------------------------------------------------------
; 182 | if(nTmp < 128)                                                         
;----------------------------------------------------------------------
        ldiu      *+fp(2),r0
        cmpi      128,r0
        bge       L55
;*      Branch Occurs to L55 
	.line	96
;----------------------------------------------------------------------
; 184 | for(i=0;i<nTmp;i++) {sprintf(szBuf2,"%02X",btRxBuf[i+5]); strcat(szBuf,
;     | szBuf2);}                                                              
; 186 | else                                                                   
;----------------------------------------------------------------------
        ldiu      0,r0
        sti       r0,*+fp(1)
        cmpi      *+fp(2),r0
        bge       L59
;*      Branch Occurs to L59 
L53:        
        ldiu      5,ir0
        ldiu      fp,ar0
        ldiu      905,r1
        addi      *+fp(1),ir0
        addi      8,ar0
        ldiu      @CL11,r0
        ldiu      *+ar0(ir0),r2
        addi      fp,r1
        push      r2
        push      r0
        push      r1
        call      _sprintf
                                        ; Call Occurs
        subi      3,sp
        ldiu      905,r0
        addi      fp,r0
        push      r0
        ldiu      393,r0
        addi      fp,r0
        push      r0
        call      _strcat
                                        ; Call Occurs
        subi      2,sp
        ldiu      1,r0
        addi      *+fp(1),r0
        sti       r0,*+fp(1)
        cmpi      *+fp(2),r0
        blt       L53
;*      Branch Occurs to L53 
        bu        L59
;*      Branch Occurs to L59 
L55:        
	.line	100
;----------------------------------------------------------------------
; 188 | for(i=0;i<8;i++) {sprintf(szBuf2,"%02X",btRxBuf[i+5]); strcat(szBuf,szB
;     | uf2);}                                                                 
;----------------------------------------------------------------------
        ldiu      0,r0
        sti       r0,*+fp(1)
        cmpi      8,r0
        bge       L57
;*      Branch Occurs to L57 
L56:        
        ldiu      5,ir0
        ldiu      fp,ar0
        ldiu      905,r1
        addi      *+fp(1),ir0
        addi      8,ar0
        ldiu      @CL11,r0
        ldiu      *+ar0(ir0),r2
        addi      fp,r1
        push      r2
        push      r0
        push      r1
        call      _sprintf
                                        ; Call Occurs
        subi      3,sp
        ldiu      905,r0
        addi      fp,r0
        push      r0
        ldiu      393,r0
        addi      fp,r0
        push      r0
        call      _strcat
                                        ; Call Occurs
        subi      2,sp
        ldiu      1,r0
        addi      *+fp(1),r0
        sti       r0,*+fp(1)
        cmpi      8,r0
        blt       L56
;*      Branch Occurs to L56 
L57:        
	.line	101
;----------------------------------------------------------------------
; 189 | strcat(szBuf,"..");                                                    
;----------------------------------------------------------------------
        ldiu      @CL12,r1
        ldiu      393,r0
        push      r1
        addi      fp,r0
        push      r0
        call      _strcat
                                        ; Call Occurs
        subi      2,sp
	.line	102
;----------------------------------------------------------------------
; 190 | for(i=120;i<128;i++) {sprintf(szBuf2,"%02X",btRxBuf[i+5]); strcat(szBuf
;     | ,szBuf2);}                                                             
;----------------------------------------------------------------------
        ldiu      120,r0
        sti       r0,*+fp(1)
        cmpi      128,r0
        bge       L59
;*      Branch Occurs to L59 
L58:        
        ldiu      5,ir0
        ldiu      fp,ar0
        ldiu      905,r0
        addi      *+fp(1),ir0
        addi      8,ar0
        ldiu      @CL11,r1
        ldiu      *+ar0(ir0),r2
        addi      fp,r0
        push      r2
        push      r1
        push      r0
        call      _sprintf
                                        ; Call Occurs
        subi      3,sp
        ldiu      905,r0
        addi      fp,r0
        push      r0
        ldiu      393,r0
        addi      fp,r0
        push      r0
        call      _strcat
                                        ; Call Occurs
        subi      2,sp
        ldiu      1,r0
        addi      *+fp(1),r0
        sti       r0,*+fp(1)
        cmpi      128,r0
        blt       L58
;*      Branch Occurs to L58 
L59:        
	.line	104
;----------------------------------------------------------------------
; 192 | strcat(szBuf,"\r\n");                                                  
;----------------------------------------------------------------------
        ldiu      @CL4,r0
        ldiu      393,r1
        push      r0
        addi      fp,r1
        push      r1
        call      _strcat
                                        ; Call Occurs
        subi      2,sp
	.line	105
;----------------------------------------------------------------------
; 193 | user_DebugPrint(szBuf);                                                
; 197 | // ±ćŔĚ°ˇ 0~127±îÁö żÂ´Ů¸é µĄŔĚĹÍ¸¦ ŔúŔĺÇŃ´Ů.                          
;----------------------------------------------------------------------
        ldiu      393,r0
        addi      fp,r0
        push      r0
        call      _user_DebugPrint
                                        ; Call Occurs
        subi      1,sp
L60:        
	.line	110
;----------------------------------------------------------------------
; 198 | if((nRxLen>6 && nRxLen<134))                                           
;----------------------------------------------------------------------
        ldiu      *+fp(7),r0
        cmpi      6,r0
        bls       L66
;*      Branch Occurs to L66 
        cmpi      134,r0
        bhs       L66
;*      Branch Occurs to L66 
	.line	112
;----------------------------------------------------------------------
; 200 | if(NVSRAM_WAYSIDEONBUF_SIZE > m_Variable.m_nNvsramPos)                 
;----------------------------------------------------------------------
        ldiu      @CL13,r0
        cmpi      @_m_Variable+291,r0
        bls       L64
;*      Branch Occurs to L64 
	.line	114
;----------------------------------------------------------------------
; 202 | user_DebugPrint("***FTP File receive... ^^;;***\r\n");                 
;----------------------------------------------------------------------
        ldiu      @CL14,r0
        push      r0
        call      _user_DebugPrint
                                        ; Call Occurs
        subi      1,sp
	.line	115
;----------------------------------------------------------------------
; 203 | memcpy(&pNvsram[m_Variable.m_nNvsramPos],btFtpOneRecRxBuf,nRecRxPos);  
;----------------------------------------------------------------------
        ldiu      @_m_Variable+291,r0
        ldiu      @_nRecRxPos$2+0,r2
        ldiu      @CL9,r1
        addi      *+fp(4),r0            ; Unsigned
        push      r2
        push      r1
        push      r0
        call      _memcpy
                                        ; Call Occurs
        subi      3,sp
	.line	116
;----------------------------------------------------------------------
; 204 | m_Variable.m_nNvsramPos += nRecRxPos;                                  
; 206 | else                                                                   
;----------------------------------------------------------------------
        ldiu      @_nRecRxPos$2+0,r0
        addi      @_m_Variable+291,r0   ; Unsigned
        sti       r0,@_m_Variable+291
        bu        L65
;*      Branch Occurs to L65 
L64:        
	.line	120
;----------------------------------------------------------------------
; 208 | MyPrintf("***FTP data buffer full..\r\n");                             
;----------------------------------------------------------------------
        ldiu      @CL15,r0
        push      r0
        call      _MyPrintf
                                        ; Call Occurs
        subi      1,sp
L65:        
	.line	123
;----------------------------------------------------------------------
; 211 | m_Variable.m_bLnWkFtpEndFlag = TRUE;                                   
; 213 | else                                                                   
;----------------------------------------------------------------------
        ldiu      1,r0
        sti       r0,@_m_Variable+292
        bu        L70
;*      Branch Occurs to L70 
L66:        
	.line	126
;----------------------------------------------------------------------
; 214 | if(nKind == 6)                                                         
;----------------------------------------------------------------------
        ldiu      *+fp(6),r0
        cmpi      6,r0
        bne       L70
;*      Branch Occurs to L70 
	.line	128
;----------------------------------------------------------------------
; 216 | if(NVSRAM_WAYSIDEONBUF_SIZE > m_Variable.m_nNvsramPos)                 
;----------------------------------------------------------------------
        ldiu      @CL13,r0
        cmpi      @_m_Variable+291,r0
        bls       L69
;*      Branch Occurs to L69 
	.line	130
;----------------------------------------------------------------------
; 218 | user_DebugPrint("***FTP File receive End ^..^ ***\r\n");               
;----------------------------------------------------------------------
        ldiu      @CL16,r0
        push      r0
        call      _user_DebugPrint
                                        ; Call Occurs
        subi      1,sp
	.line	131
;----------------------------------------------------------------------
; 219 | memcpy(&pNvsram[m_Variable.m_nNvsramPos],btFtpOneRecRxBuf,nRecRxPos);  
;----------------------------------------------------------------------
        ldiu      @_m_Variable+291,r0
        ldiu      @_nRecRxPos$2+0,r2
        ldiu      @CL9,r1
        addi      *+fp(4),r0            ; Unsigned
        push      r2
        push      r1
        push      r0
        call      _memcpy
                                        ; Call Occurs
        subi      3,sp
	.line	132
;----------------------------------------------------------------------
; 220 | m_Variable.m_nNvsramPos += nRecRxPos;                                  
; 222 | else                                                                   
;----------------------------------------------------------------------
        ldiu      @_nRecRxPos$2+0,r0
        addi      @_m_Variable+291,r0   ; Unsigned
        sti       r0,@_m_Variable+291
        bu        L70
;*      Branch Occurs to L70 
L69:        
	.line	136
;----------------------------------------------------------------------
; 224 | MyPrintf("***FTP data buffer full..\r\n");                             
;----------------------------------------------------------------------
        ldiu      @CL15,r0
        push      r0
        call      _MyPrintf
                                        ; Call Occurs
        subi      1,sp
L70:        
	.line	140
;----------------------------------------------------------------------
; 228 | nOldKind = nKind;                                                      
;----------------------------------------------------------------------
        ldiu      *+fp(6),r0
        sti       r0,@_nOldKind$1+0
	.line	142
;----------------------------------------------------------------------
; 230 | break;                                                                 
; 232 | // ŔĎąÝ ÇÁ·ÎĹäÄÝ(Ľö˝Ĺ)                                                 
; 233 | case 7:                                                                
;----------------------------------------------------------------------
        bu        L163
;*      Branch Occurs to L163 
	.line	146
;----------------------------------------------------------------------
; 234 | nRxLen = LonWorkRx(7,btRxBuf);                                         
;----------------------------------------------------------------------
L72:        
        addi      8,r0
        push      r0
        push      r1
        call      _LonWorkRx
                                        ; Call Occurs
        subi      2,sp
        sti       r0,*+fp(7)
	.line	148
;----------------------------------------------------------------------
; 236 | if(m_Variable.m_nDbgTxPos == 0xFFFFFFFF)                               
;----------------------------------------------------------------------
	.line	160
;----------------------------------------------------------------------
; 248 | if(nRxLen)                                                             
;----------------------------------------------------------------------
        ldi       *+fp(7),r0
        beqd      L163
	nop
        ldine     264,ir0
        ldine     0,r0
;*      Branch Occurs to L163 
	.line	162
;----------------------------------------------------------------------
; 250 | nTxPos = 0;                                                            
; 252 | switch(btRxBuf[1])                                                     
; 254 | // WAYSIDE ON ACK ŔŔ´ä                                                 
; 255 | case 0x02:                                                             
;----------------------------------------------------------------------
        bud       L138
        sti       r0,*+fp(ir0)
        ldiu      fp,ar0
        addi      9,ar0
;*      Branch Occurs to L138 
L74:        
	.line	169
;----------------------------------------------------------------------
; 257 | m_Variable.m_nLnWkWaySideOnRxOk = 1;                                   
; 259 | //MyPrintf("WAYSIDE ON Flage On. \r\n");                               
;----------------------------------------------------------------------
        ldiu      1,r0
        sti       r0,@_m_Variable+289
	.line	173
;----------------------------------------------------------------------
; 261 | break;                                                                 
; 263 | // FTPŔüĽŰ łˇ                                                          
; 264 | case 0x06:                                                             
;----------------------------------------------------------------------
        bu        L150
;*      Branch Occurs to L150 
L75:        
	.line	177
;----------------------------------------------------------------------
; 265 | if(m_Variable.m_nLnWkWaySideOnRxOk)                                    
;----------------------------------------------------------------------
        ldi       @_m_Variable+289,r0
        beq       L150
;*      Branch Occurs to L150 
	.line	179
;----------------------------------------------------------------------
; 267 | m_Variable.m_nLnWkWaySideOnRxOk--;                                     
;----------------------------------------------------------------------
        ldiu      1,r0
        subri     @_m_Variable+289,r0   ; Unsigned
        sti       r0,@_m_Variable+289
	.line	180
;----------------------------------------------------------------------
; 268 | m_Variable.m_bLnWkFtpEndFlag = TRUE;                                   
; 270 | //MyPrintf("FTP Sending END. \r\n");                                   
;----------------------------------------------------------------------
        ldiu      1,r0
        sti       r0,@_m_Variable+292
	.line	184
;----------------------------------------------------------------------
; 272 | break;                                                                 
; 274 | // ˝Ă°ŁżäĂ», MPU°ˇ DPRAMżˇ µĄŔĚĹÍ¸¦ ľ˛°í ŔüĽŰ ŔÎĹÍ·´Ć®¸¦ ŔüĽŰÇĎÁöľĘŔ¸¸é
;     |  LIC_LONżˇĽ­ ŔüĽŰÇĎÁö ľĘŔ˝                                             
; 275 | case 0x08:                                                             
;----------------------------------------------------------------------
        bu        L150
;*      Branch Occurs to L150 
	.line	188
;----------------------------------------------------------------------
; 276 | nTxPos = 0;                                                            
;----------------------------------------------------------------------
L78:        
        sti       r0,*+fp(ir0)
	.line	190
;----------------------------------------------------------------------
; 278 | if(m_Variable.m_LIC_CNCS_TimSetFlag && m_Variable.m_nCncsRxCheck1msTime
;     | r)                                                                     
;----------------------------------------------------------------------
        ldi       @_m_Variable+356,r0
        beq       L150
;*      Branch Occurs to L150 
        ldi       @_m_Variable+358,r0
        beq       L150
;*      Branch Occurs to L150 
	.line	193
;----------------------------------------------------------------------
; 281 | btTxBuf[nTxPos++] = STX; // STX                                        
;----------------------------------------------------------------------
        ldiu      1,r2
        ldiu      *+fp(ir0),r0
        ldiu      264,ir1
        ldiu      265,ar0
        ldiu      2,r1
        addi      r0,r2
        addi3     r0,fp,ir0             ; Unsigned
        sti       r2,*+fp(ir1)
        sti       r1,*+ar0(ir0)
	.line	194
;----------------------------------------------------------------------
; 282 | btTxBuf[nTxPos++] = 0x09; // Command Code                              
;----------------------------------------------------------------------
        ldiu      264,ir0
        ldiu      1,r2
        ldiu      *+fp(ir0),r0
        ldiu      9,r1
        addi      r0,r2
        addi3     r0,fp,ir0             ; Unsigned
        sti       r2,*+fp(ir1)
        sti       r1,*+ar0(ir0)
	.line	195
;----------------------------------------------------------------------
; 283 | btTxBuf[nTxPos++] = 0x00; // 0x00Ŕ¸·Î ĽłÁ¤                             
;----------------------------------------------------------------------
        ldiu      264,ir0
        ldiu      1,r2
        ldiu      *+fp(ir0),r0
        ldiu      0,r1
        addi      r0,r2
        addi3     r0,fp,ir0             ; Unsigned
        sti       r2,*+fp(ir1)
        sti       r1,*+ar0(ir0)
	.line	196
;----------------------------------------------------------------------
; 284 | btTxBuf[nTxPos++] = 0x06; // ±ćŔĚ                                      
; 286 | // Y.J ĽöÁ¤                                                            
;----------------------------------------------------------------------
        ldiu      264,ir0
        ldiu      *+fp(ir0),r0
        ldiu      1,r2
        addi      r0,r2
        addi3     r0,fp,ir0             ; Unsigned
        sti       r2,*+fp(ir1)
        ldiu      6,r1
        sti       r1,*+ar0(ir0)
	.line	199
;----------------------------------------------------------------------
; 287 | btTxBuf[nTxPos++] = m_Variable.m_tmUtcTime.year;
;     |                                  // łâ BCD                             
;----------------------------------------------------------------------
        ldiu      264,ir0
        ldiu      1,r1
        ldiu      *+fp(ir0),r0
        addi      r0,r1
        sti       r1,*+fp(ir1)
        addi3     r0,fp,ir0             ; Unsigned
        ldiu      @_m_Variable+242,r0
        sti       r0,*+ar0(ir0)
	.line	200
;----------------------------------------------------------------------
; 288 | btTxBuf[nTxPos++] = m_Variable.m_tmUtcTime.month;
;     |                                  // żů                                 
;----------------------------------------------------------------------
        ldiu      264,ir0
        ldiu      *+fp(ir1),r0
        ldiu      1,r1
        addi      r0,r1
        sti       r1,*+fp(ir0)
        addi3     r0,fp,ir0             ; Unsigned
        ldiu      @_m_Variable+241,r0
        sti       r0,*+ar0(ir0)
	.line	201
;----------------------------------------------------------------------
; 289 | btTxBuf[nTxPos++] = m_Variable.m_tmUtcTime.day;
;     |                                  // ŔĎ                                 
;----------------------------------------------------------------------
        ldiu      264,ir0
        ldiu      *+fp(ir0),r0
        ldiu      1,r1
        addi      r0,r1
        sti       r1,*+fp(ir1)
        addi3     r0,fp,ir0             ; Unsigned
        ldiu      @_m_Variable+240,r0
        sti       r0,*+ar0(ir0)
	.line	202
;----------------------------------------------------------------------
; 290 | btTxBuf[nTxPos++] = m_Variable.m_tmUtcTime.hour;
;     |                                  // ˝Ă                                 
;----------------------------------------------------------------------
        ldiu      264,ir0
        ldiu      1,r1
        ldiu      *+fp(ir0),r0
        addi      r0,r1
        addi3     r0,fp,ir0             ; Unsigned
        sti       r1,*+fp(ir1)
        ldiu      @_m_Variable+239,r0
        sti       r0,*+ar0(ir0)
	.line	203
;----------------------------------------------------------------------
; 291 | btTxBuf[nTxPos++] = m_Variable.m_tmUtcTime.minute;
;     |                                  // şĐ                                 
;----------------------------------------------------------------------
        ldiu      264,ir0
        ldiu      *+fp(ir0),r0
        ldiu      1,r1
        addi3     r0,fp,ir0             ; Unsigned
        addi      r0,r1
        sti       r1,*+fp(ir1)
        ldiu      @_m_Variable+238,r0
        sti       r0,*+ar0(ir0)
	.line	204
;----------------------------------------------------------------------
; 292 | btTxBuf[nTxPos++] = m_Variable.m_tmUtcTime.second;
;     |                                  // ĂĘ                                 
;----------------------------------------------------------------------
        ldiu      264,ir0
        ldiu      1,r1
        ldiu      *+fp(ir0),r0
        addi      r0,r1
        sti       r1,*+fp(ir1)
        addi3     r0,fp,ir0             ; Unsigned
        ldiu      @_m_Variable+237,r0
        sti       r0,*+ar0(ir0)
	.line	206
;----------------------------------------------------------------------
; 294 | btTxBuf[nTxPos++] = Make1ByteBcc(&btTxBuf[1],nTxPos-1); // Check Sum   
;----------------------------------------------------------------------
        ldiu      266,r0
        addi      fp,r0
        ldiu      264,ir0
        ldiu      1,r1
        subi3     r1,*+fp(ir0),r1
        push      r1
        push      r0
        call      _Make1ByteBcc
                                        ; Call Occurs
        ldiu      264,ir0
        subi      2,sp
        ldiu      *+fp(ir0),r1
        addi3     r1,fp,ir0             ; Unsigned
        addi      1,r1
        ldiu      264,ir1
        ldiu      265,ar0
        sti       r1,*+fp(ir1)
        sti       r0,*+ar0(ir0)
	.line	207
;----------------------------------------------------------------------
; 295 | btTxBuf[nTxPos++] = ETX; // ETX                                        
;----------------------------------------------------------------------
        ldiu      264,ir0
        ldiu      *+fp(ir0),r0
        ldiu      1,r2
        addi3     r0,fp,ir0             ; Unsigned
        addi      r0,r2
        ldiu      3,r1
        sti       r2,*+fp(ir1)
        sti       r1,*+ar0(ir0)
	.line	208
;----------------------------------------------------------------------
; 296 | LonWorkTx(btTxBuf,nTxPos);                                             
;----------------------------------------------------------------------
        ldiu      264,ir0
        ldiu      *+fp(ir0),r0
        push      r0
        ldiu      265,r0
        addi      fp,r0
        push      r0
        call      _LonWorkTx
                                        ; Call Occurs
        subi      2,sp
	.line	210
;----------------------------------------------------------------------
; 298 | nTxPos = 0;                                                            
; 299 | //MyPrintf("TIME Sending : ");                                         
;----------------------------------------------------------------------
        ldiu      264,ir0
        ldiu      0,r0
        sti       r0,*+fp(ir0)
	.line	214
;----------------------------------------------------------------------
; 302 | break;                                                                 
; 304 | // »óĹÂµĄŔĚĹÍ żäĂ», MPU°ˇ DPRAMżˇ µĄŔĚĹÍ¸¦ ľ˛°í ŔüĽŰ ŔÎĹÍ·´Ć®¸¦ ŔüĽŰÇĎÁ
;     | öľĘŔ¸¸é LIC_LONżˇĽ­ ŔüĽŰÇĎÁö ľĘŔ˝                                      
; 305 | case 0x0A:                                                             
;----------------------------------------------------------------------
        bu        L150
;*      Branch Occurs to L150 
L81:        
	.line	218
;----------------------------------------------------------------------
; 306 | m_Variable.m_nCarCnt = btRxBuf[4];                                     
;----------------------------------------------------------------------
        ldiu      fp,ar0
        addi      12,ar0
        ldi       *ar0,r0
        sti       r0,@_m_Variable+290
	.line	219
;----------------------------------------------------------------------
; 307 | if(m_Variable.m_nCarCnt < 1 && m_Variable.m_nCarCnt > 2) m_Variable.m_n
;     | CarCnt = 1;                                                            
;----------------------------------------------------------------------
        bne       L84
;*      Branch Occurs to L84 
        cmpi      2,r0
        bls       L84
;*      Branch Occurs to L84 
        ldiu      1,r0
        sti       r0,@_m_Variable+290
L84:        
	.line	220
;----------------------------------------------------------------------
; 308 | nTxPos = 0;                                                            
;----------------------------------------------------------------------
        ldiu      264,ir0
        ldiu      0,r0
        sti       r0,*+fp(ir0)
	.line	222
;----------------------------------------------------------------------
; 310 | btTxBuf[nTxPos++] = STX; // STX                                        
;----------------------------------------------------------------------
        ldiu      1,r2
        ldiu      264,ir1
        ldiu      265,ar0
        ldiu      2,r1
        ldiu      *+fp(ir0),r0
        addi      r0,r2
        addi3     r0,fp,ir0             ; Unsigned
        sti       r2,*+fp(ir1)
        sti       r1,*+ar0(ir0)
	.line	223
;----------------------------------------------------------------------
; 311 | btTxBuf[nTxPos++] = 0x0B; // Command Code                              
;----------------------------------------------------------------------
        ldiu      264,ir0
        ldiu      1,r2
        ldiu      *+fp(ir0),r0
        ldiu      11,r1
        addi      r0,r2
        addi3     r0,fp,ir0             ; Unsigned
        sti       r2,*+fp(ir1)
        sti       r1,*+ar0(ir0)
	.line	224
;----------------------------------------------------------------------
; 312 | btTxBuf[nTxPos++] = 0x00; // 0x00Ŕ¸·Î ĽłÁ¤                             
;----------------------------------------------------------------------
        ldiu      264,ir0
        ldiu      0,r1
        ldiu      *+fp(ir0),r0
        ldiu      1,r2
        addi      r0,r2
        addi3     r0,fp,ir0             ; Unsigned
        sti       r2,*+fp(ir1)
        sti       r1,*+ar0(ir0)
	.line	225
;----------------------------------------------------------------------
; 313 | btTxBuf[nTxPos++] = 0x05; // ±ćŔĚ                                      
;----------------------------------------------------------------------
        ldiu      264,ir0
        ldiu      1,r2
        ldiu      *+fp(ir0),r0
        addi      r0,r2
        sti       r2,*+fp(ir1)
        addi3     r0,fp,ir0             ; Unsigned
        ldiu      5,r1
        sti       r1,*+ar0(ir0)
	.line	226
;----------------------------------------------------------------------
; 314 | btTxBuf[nTxPos++] = BitSwap(m_Variable.m_btSenseCommStBuf[0]); // »óĹÂ
;     | µĄŔĚĹÍ                                                                 
;----------------------------------------------------------------------
        ldiu      @_m_Variable+261,r0
        push      r0
        call      _BitSwap
                                        ; Call Occurs
        ldiu      264,ir1
        subi      1,sp
        ldiu      *+fp(ir1),r1
        ldiu      1,r2
        ldiu      264,ir0
        addi      r1,r2
        sti       r2,*+fp(ir0)
        addi3     r1,fp,ir0             ; Unsigned
        ldiu      265,ar0
        sti       r0,*+ar0(ir0)
	.line	227
;----------------------------------------------------------------------
; 315 | btTxBuf[nTxPos++] = BitSwap(m_Variable.m_btSenseCommStBuf[1]); // »óĹÂ
;     | µĄŔĚĹÍ                                                                 
;----------------------------------------------------------------------
        ldiu      @_m_Variable+262,r0
        push      r0
        call      _BitSwap
                                        ; Call Occurs
        ldiu      264,ir0
        subi      1,sp
        ldiu      265,ar0
        ldiu      *+fp(ir0),r1
        ldiu      264,ir1
        ldiu      1,r2
        addi      r1,r2
        addi3     r1,fp,ir0             ; Unsigned
        sti       r2,*+fp(ir1)
        sti       r0,*+ar0(ir0)
	.line	228
;----------------------------------------------------------------------
; 316 | btTxBuf[nTxPos++] = BitSwap(m_Variable.m_btSenseCommStBuf[2]); // »óĹÂ
;     | µĄŔĚĹÍ                                                                 
;----------------------------------------------------------------------
        ldiu      @_m_Variable+263,r0
        push      r0
        call      _BitSwap
                                        ; Call Occurs
        ldiu      264,ir0
        subi      1,sp
        ldiu      264,ir1
        ldiu      *+fp(ir0),r1
        addi3     r1,fp,ir0             ; Unsigned
        addi      1,r1
        sti       r1,*+fp(ir1)
        ldiu      265,ar0
        sti       r0,*+ar0(ir0)
	.line	229
;----------------------------------------------------------------------
; 317 | btTxBuf[nTxPos++] = BitSwap(m_Variable.m_btSenseCommStBuf[3]); // »óĹÂ
;     | µĄŔĚĹÍ                                                                 
;----------------------------------------------------------------------
        ldiu      @_m_Variable+264,r0
        push      r0
        call      _BitSwap
                                        ; Call Occurs
        ldiu      264,ir0
        subi      1,sp
        ldiu      1,r1
        ldiu      *+fp(ir0),r2
        addi3     r2,fp,ir0             ; Unsigned
        ldiu      264,ir1
        addi      r2,r1
        ldiu      265,ar0
        sti       r1,*+fp(ir1)
        sti       r0,*+ar0(ir0)
	.line	230
;----------------------------------------------------------------------
; 318 | btTxBuf[nTxPos++] = BitSwap(m_Variable.m_btSenseCommStBuf[4]); // »óĹÂ
;     | µĄŔĚĹÍ                                                                 
;----------------------------------------------------------------------
        ldiu      @_m_Variable+265,r0
        push      r0
        call      _BitSwap
                                        ; Call Occurs
        subi      1,sp
        ldiu      264,ir0
        ldiu      264,ir1
        ldiu      *+fp(ir0),r1
        ldiu      265,ar0
        ldiu      1,r2
        addi      r1,r2
        addi3     r1,fp,ir0             ; Unsigned
        sti       r2,*+fp(ir1)
        sti       r0,*+ar0(ir0)
	.line	231
;----------------------------------------------------------------------
; 319 | btTxBuf[nTxPos++] = BitSwap(m_Variable.m_btSenseCommStBuf[5]); // »óĹÂ
;     | µĄŔĚĹÍ                                                                 
;----------------------------------------------------------------------
        ldiu      @_m_Variable+266,r0
        push      r0
        call      _BitSwap
                                        ; Call Occurs
        ldiu      264,ir1
        ldiu      264,ir0
        subi      1,sp
        ldiu      1,r2
        ldiu      *+fp(ir0),r1
        ldiu      265,ar0
        addi      r1,r2
        sti       r2,*+fp(ir1)
        addi3     r1,fp,ir0             ; Unsigned
        sti       r0,*+ar0(ir0)
	.line	232
;----------------------------------------------------------------------
; 320 | btTxBuf[nTxPos++] = BitSwap(m_Variable.m_btSenseCommStBuf[6]); // »óĹÂ
;     | µĄŔĚĹÍ                                                                 
;----------------------------------------------------------------------
        ldiu      @_m_Variable+267,r0
        push      r0
        call      _BitSwap
                                        ; Call Occurs
        ldiu      264,ir0
        subi      1,sp
        ldiu      *+fp(ir0),r1
        ldiu      265,ar0
        ldiu      264,ir1
        ldiu      1,r2
        addi      r1,r2
        addi3     r1,fp,ir0             ; Unsigned
        sti       r2,*+fp(ir1)
        sti       r0,*+ar0(ir0)
	.line	233
;----------------------------------------------------------------------
; 321 | btTxBuf[nTxPos++] = BitSwap(m_Variable.m_btSenseCommStBuf[7]); // »óĹÂ
;     | µĄŔĚĹÍ                                                                 
;----------------------------------------------------------------------
        ldiu      @_m_Variable+268,r0
        push      r0
        call      _BitSwap
                                        ; Call Occurs
        subi      1,sp
        ldiu      264,ir0
        ldiu      *+fp(ir0),r2
        addi3     r2,fp,ir0             ; Unsigned
        ldiu      264,ir1
        ldiu      1,r1
        ldiu      265,ar0
        addi      r2,r1
        sti       r1,*+fp(ir1)
        sti       r0,*+ar0(ir0)
	.line	234
;----------------------------------------------------------------------
; 322 | btTxBuf[nTxPos++] = Make1ByteBcc(&btTxBuf[1],nTxPos-1); // Check Sum   
;----------------------------------------------------------------------
        ldiu      264,ir0
        ldiu      1,r0
        ldiu      266,r1
        addi      fp,r1
        subi3     r0,*+fp(ir0),r0
        push      r0
        push      r1
        call      _Make1ByteBcc
                                        ; Call Occurs
        subi      2,sp
        ldiu      264,ir1
        ldiu      *+fp(ir1),r1
        ldiu      1,r2
        ldiu      264,ir0
        addi      r1,r2
        sti       r2,*+fp(ir0)
        ldiu      265,ar0
        addi3     r1,fp,ir0             ; Unsigned
        sti       r0,*+ar0(ir0)
	.line	235
;----------------------------------------------------------------------
; 323 | btTxBuf[nTxPos++] = ETX; // ETX                                        
;----------------------------------------------------------------------
        ldiu      264,ir0
        ldiu      1,r0
        ldiu      *+fp(ir0),r2
        ldiu      3,r1
        addi      r2,r0
        addi3     r2,fp,ir0             ; Unsigned
        sti       r0,*+fp(ir1)
        sti       r1,*+ar0(ir0)
	.line	236
;----------------------------------------------------------------------
; 324 | LonWorkTx(btTxBuf,nTxPos);                                             
;----------------------------------------------------------------------
        ldiu      264,ir0
        ldiu      *+fp(ir0),r0
        push      r0
        ldiu      265,r0
        addi      fp,r0
        push      r0
        call      _LonWorkTx
                                        ; Call Occurs
        subi      2,sp
	.line	238
;----------------------------------------------------------------------
; 326 | memcpy(m_Variable.m_btSenseCommStBuf,m_Variable.m_btCommSt,8);         
;----------------------------------------------------------------------
        ldiu      @CL17,ar1
        ldiu      @CL18,ar0
        ldiu      *ar0++(1),r0
        rpts      6                     ; Fast MEMCPY(#3)
        sti       r0,*ar1++(1)
||      ldi       *ar0++(1),r0
        sti       r0,*ar1++(1)
	.line	240
;----------------------------------------------------------------------
; 328 | memcpy(d_BufChack, m_Variable.m_btSenseCommStBuf, 8);                  
;----------------------------------------------------------------------
        ldiu      @CL19,ar0
        ldiu      @CL17,ar1
        ldiu      *ar1++(1),r0
        rpts      6                     ; Fast MEMCPY(#6)
        sti       r0,*ar0++(1)
||      ldi       *ar1++(1),r0
        sti       r0,*ar0++(1)
	.line	242
;----------------------------------------------------------------------
; 330 | nTxPos = 0;                                                            
; 331 | //MyPrintf("Unit State Data Sending : ");                              
;----------------------------------------------------------------------
        ldiu      264,ir0
        ldiu      0,r0
        sti       r0,*+fp(ir0)
	.line	245
;----------------------------------------------------------------------
; 333 | break;                                                                 
; 335 | //ąöÁŻżäĂ»                                                             
; 336 | case 0x0C:                                                             
;----------------------------------------------------------------------
        bu        L150
;*      Branch Occurs to L150 
	.line	249
;----------------------------------------------------------------------
; 337 | nTxPos = 0;                                                            
;----------------------------------------------------------------------
L86:        
        sti       r0,*+fp(ir0)
	.line	250
;----------------------------------------------------------------------
; 338 | memset(btTxBuf,0x00,sizeof(btTxBuf));                                  
;----------------------------------------------------------------------
        ldiu      128,r2
        ldiu      0,r1
        ldiu      265,r0
        push      r2
        addi      fp,r0
        push      r1
        push      r0
        call      _memset
                                        ; Call Occurs
        subi      3,sp
	.line	252
;----------------------------------------------------------------------
; 340 | btTxBuf[nTxPos++] = STX; // STX                                        
;----------------------------------------------------------------------
        ldiu      264,ir0
        ldiu      264,ir1
        ldiu      265,ar0
        ldiu      1,r0
        ldiu      *+fp(ir0),r2
        ldiu      2,r1
        addi      r2,r0
        addi3     r2,fp,ir0             ; Unsigned
        sti       r0,*+fp(ir1)
        sti       r1,*+ar0(ir0)
	.line	253
;----------------------------------------------------------------------
; 341 | btTxBuf[nTxPos++] = 0x0D; // Command Code                              
; 343 | // 2 : Firmware                                                        
; 344 | // 0 : Not used¸¦ Ăâ·ÂÇĎ°í ąöŔü°ú łŻÂĄ´Â Ăâ·ÂÇĎÁöľĘ´Â´Ů.               
; 345 | // 6 : ąöŔüŔüĽŰ(LIC -> CDT) ÁßÁö                                       
;----------------------------------------------------------------------
        ldiu      264,ir0
        ldiu      *+fp(ir0),r2
        ldiu      1,r0
        addi      r2,r0
        ldiu      13,r1
        addi3     r2,fp,ir0             ; Unsigned
        sti       r0,*+fp(ir1)
        sti       r1,*+ar0(ir0)
	.line	259
;----------------------------------------------------------------------
; 347 | nTmp = MAX(1,WORD_L(btRxBuf[4]));                                      
;----------------------------------------------------------------------
        ldiu      fp,ar0
        addi      12,ar0
        ldiu      255,r0
        and3      r0,*ar0,r0
        ldiu      1,r1
        cmpi3     r0,r1
        bls       L88
;*      Branch Occurs to L88 
        bud       L89
	nop
	nop
        ldiu      1,r0
;*      Branch Occurs to L89 
L88:        
        ldiu      fp,ar0
        addi      12,ar0
        ldiu      255,r0
        and3      r0,*ar0,r0
L89:        
        sti       r0,*+fp(2)
	.line	260
;----------------------------------------------------------------------
; 348 | nTmp = MIN((VER_BDD_MAX_CNT)+1,WORD_L(btRxBuf[4]));                    
;----------------------------------------------------------------------
        ldiu      fp,ar0
        ldiu      255,r1
        addi      12,ar0
        ldiu      26,r0
        and3      r1,*ar0,r1
        cmpi3     r1,r0
        bhs       L91
;*      Branch Occurs to L91 
        bu        L92
;*      Branch Occurs to L92 
L91:        
        ldiu      fp,ar0
        addi      12,ar0
        ldiu      255,r0
        and3      r0,*ar0,r0
L92:        
        sti       r0,*+fp(2)
	.line	261
;----------------------------------------------------------------------
; 349 | nTmp--;                                                                
;----------------------------------------------------------------------
        ldiu      1,r0
        subri     *+fp(2),r0
        sti       r0,*+fp(2)
	.line	263
;----------------------------------------------------------------------
; 351 | btTxBuf[nTxPos++] = m_Variable.LIC_VerList[nTmp][0] == NULL ? 6 : 2; //
;     |  2:ąöÁŻ&µĄŔĚĆ®, 6:ÁßÁö                                                 
;----------------------------------------------------------------------
        ldiu      264,ir0
        ldiu      1,r1
        ldiu      264,ir1
        ldiu      265,ar0
        ldiu      @CL20,ar1
        ldiu      *+fp(ir0),r0
        ldiu      *+fp(2),ir0
        addi      r0,r1
        mpyi      9,ir0
        sti       r1,*+fp(ir1)
        addi3     r0,fp,ir1             ; Unsigned
        ldi       *+ar1(ir0),r0
        bne       L94
;*      Branch Occurs to L94 
        bud       L95
	nop
	nop
        ldiu      6,r0
;*      Branch Occurs to L95 
L94:        
        ldiu      2,r0
L95:        
        sti       r0,*+ar0(ir1)
	.line	265
;----------------------------------------------------------------------
; 353 | btTxBuf[nTxPos++] = 31; // µĄŔĚĹÍ±ćŔĚ                                  
;----------------------------------------------------------------------
        ldiu      264,ir0
        ldiu      31,r1
        ldiu      1,r0
        ldiu      *+fp(ir0),r2
        ldiu      264,ir1
        ldiu      265,ar0
        addi      r2,r0
        addi3     r2,fp,ir0             ; Unsigned
        sti       r0,*+fp(ir1)
        sti       r1,*+ar0(ir0)
	.line	267
;----------------------------------------------------------------------
; 355 | btTxBuf[nTxPos++] = btRxBuf[4]; // Index ąřČŁ                          
;----------------------------------------------------------------------
        ldiu      fp,ar0
        ldiu      265,ar1
        ldiu      1,r0
        ldiu      264,ir0
        ldiu      *+fp(ir1),r1
        addi      12,ar0
        addi      r1,r0
        addi3     r1,fp,ir1             ; Unsigned
        sti       r0,*+fp(ir0)
        ldiu      *ar0,r0
        sti       r0,*+ar1(ir1)
	.line	268
;----------------------------------------------------------------------
; 356 | btTxBuf[nTxPos++] = m_Variable.LIC_VerList[nTmp][0] == NULL ? 6 : 4; //
;     |  Type                                                                  
;----------------------------------------------------------------------
        ldiu      1,r0
        ldiu      *+fp(ir0),r1
        ldiu      265,ar0
        ldiu      *+fp(2),ir0
        addi      r1,r0
        ldiu      264,ir1
        mpyi      9,ir0
        ldiu      @CL20,ar1
        sti       r0,*+fp(ir1)
        ldi       *+ar1(ir0),r0
        bned      L97
        addi3     r1,fp,ir0             ; Unsigned
	nop
        ldine     4,r0
;*      Branch Occurs to L97 
        ldiu      6,r0
L97:        
        sti       r0,*+ar0(ir0)
	.line	270
;----------------------------------------------------------------------
; 358 | memcpy(&btTxBuf[nTxPos],&m_Variable.LIC_VerList[nTmp][0],strlen((char*)
;     | &m_Variable.LIC_VerList[nTmp][0]));                                    
;----------------------------------------------------------------------
        ldiu      *+fp(2),r0
        mpyi      9,r0
        addi      @CL20,r0              ; Unsigned
        push      r0
        call      _strlen
                                        ; Call Occurs
        ldiu      264,ir0
        subi      1,sp
        ldiu      *+fp(2),r2
        addi3     fp,*+fp(ir0),r1       ; Unsigned
        push      r0
        mpyi      9,r2
        addi      265,r1                ; Unsigned
        ldiu      @CL20,r0
        addi      r2,r0
        push      r0
        push      r1
        call      _memcpy
                                        ; Call Occurs
        subi      3,sp
	.line	271
;----------------------------------------------------------------------
; 359 | nTxPos = nTxPos+9;                                                     
;----------------------------------------------------------------------
        ldiu      264,ir1
        ldiu      9,r0
        ldiu      264,ir0
        addi3     r0,*+fp(ir1),r0
        sti       r0,*+fp(ir0)
	.line	273
;----------------------------------------------------------------------
; 361 | btTxBuf[nTxPos+0] = ConvHex2Asc((m_Variable.m_btExVersionTbl[WORD_L(nTm
;     | p)]>>12)&0x0F); // Production Version                                  
;----------------------------------------------------------------------
        ldiu      255,ir0
        ldiu      @CL21,ar0
        and       *+fp(2),ir0
        ldiu      -12,r0
        lsh3      r0,*+ar0(ir0),r0
        and       15,r0
        push      r0
        call      _ConvHex2Asc
                                        ; Call Occurs
        subi      1,sp
        ldiu      264,ir0
        addi3     fp,*+fp(ir0),ir0      ; Unsigned
        ldiu      265,ar0
        sti       r0,*+ar0(ir0)
	.line	274
;----------------------------------------------------------------------
; 362 | btTxBuf[nTxPos+1] = '.'; // Production Version                         
;----------------------------------------------------------------------
        ldiu      264,ir0
        addi3     fp,*+fp(ir0),ir0      ; Unsigned
        ldiu      266,ar0
        ldiu      46,r0
        sti       r0,*+ar0(ir0)
	.line	275
;----------------------------------------------------------------------
; 363 | btTxBuf[nTxPos+2] = ConvHex2Asc((m_Variable.m_btExVersionTbl[WORD_L(nTm
;     | p)]>>8)&0x0F); // Production Version                                   
;----------------------------------------------------------------------
        ldiu      255,ir0
        and       *+fp(2),ir0
        ldiu      @CL21,ar0
        ldiu      -8,r0
        lsh3      r0,*+ar0(ir0),r0
        and       15,r0
        push      r0
        call      _ConvHex2Asc
                                        ; Call Occurs
        subi      1,sp
        ldiu      264,ir0
        addi3     fp,*+fp(ir0),ir0      ; Unsigned
        ldiu      267,ar0
        sti       r0,*+ar0(ir0)
	.line	276
;----------------------------------------------------------------------
; 364 | btTxBuf[nTxPos+3] = '.'; // Production Version                         
;----------------------------------------------------------------------
        ldiu      264,ir0
        addi3     fp,*+fp(ir0),ir0      ; Unsigned
        ldiu      268,ar0
        ldiu      46,r0
        sti       r0,*+ar0(ir0)
	.line	277
;----------------------------------------------------------------------
; 365 | btTxBuf[nTxPos+4] = ConvHex2Asc((m_Variable.m_btExVersionTbl[WORD_L(nTm
;     | p)]>>4)&0x0F); // Production Version                                   
;----------------------------------------------------------------------
        ldiu      255,ir0
        and       *+fp(2),ir0
        ldiu      @CL21,ar0
        ldiu      -4,r0
        lsh3      r0,*+ar0(ir0),r0
        and       15,r0
        push      r0
        call      _ConvHex2Asc
                                        ; Call Occurs
        ldiu      264,ir0
        subi      1,sp
        ldiu      269,ar0
        addi3     fp,*+fp(ir0),ir0      ; Unsigned
        sti       r0,*+ar0(ir0)
	.line	278
;----------------------------------------------------------------------
; 366 | btTxBuf[nTxPos+5] = ConvHex2Asc((m_Variable.m_btExVersionTbl[WORD_L(nTm
;     | p)]&0x0F)); // Production Version                                      
;----------------------------------------------------------------------
        ldiu      255,ir0
        ldiu      @CL21,ar0
        and       *+fp(2),ir0
        ldiu      15,r0
        and3      r0,*+ar0(ir0),r0
        push      r0
        call      _ConvHex2Asc
                                        ; Call Occurs
        ldiu      264,ir0
        subi      1,sp
        ldiu      270,ar0
        addi3     fp,*+fp(ir0),ir0      ; Unsigned
        sti       r0,*+ar0(ir0)
	.line	279
;----------------------------------------------------------------------
; 367 | btTxBuf[nTxPos+6] = '';                                                
;----------------------------------------------------------------------
        ldiu      264,ir0
        addi3     fp,*+fp(ir0),ir0      ; Unsigned
        ldiu      271,ar0
        ldiu      0,r0
        sti       r0,*+ar0(ir0)
	.line	280
;----------------------------------------------------------------------
; 368 | nTxPos = nTxPos+9;                                                     
;----------------------------------------------------------------------
        ldiu      9,r0
        ldiu      264,ir1
        ldiu      264,ir0
        addi3     r0,*+fp(ir1),r0
        sti       r0,*+fp(ir0)
	.line	282
;----------------------------------------------------------------------
; 370 | btTxBuf[nTxPos+0] = ConvHex2Asc((m_Variable.m_btExVersion_DAYTbl[WORD_L
;     | (nTmp)]>>28)&0xF);// '2': // Year                                      
;----------------------------------------------------------------------
        ldiu      255,ir0
        and       *+fp(2),ir0
        ldiu      @CL22,ar0
        ldiu      -28,r0
        lsh3      r0,*+ar0(ir0),r0
        and       15,r0
        push      r0
        call      _ConvHex2Asc
                                        ; Call Occurs
        subi      1,sp
        ldiu      264,ir0
        ldiu      265,ar0
        addi3     fp,*+fp(ir0),ir0      ; Unsigned
        sti       r0,*+ar0(ir0)
	.line	283
;----------------------------------------------------------------------
; 371 | btTxBuf[nTxPos+1] = ConvHex2Asc((m_Variable.m_btExVersion_DAYTbl[WORD_L
;     | (nTmp)]>>24)&0xF);// '0': // Year                                      
;----------------------------------------------------------------------
        ldiu      255,ir0
        ldiu      @CL22,ar0
        and       *+fp(2),ir0
        ldiu      -24,r0
        lsh3      r0,*+ar0(ir0),r0
        and       15,r0
        push      r0
        call      _ConvHex2Asc
                                        ; Call Occurs
        subi      1,sp
        ldiu      264,ir0
        ldiu      266,ar0
        addi3     fp,*+fp(ir0),ir0      ; Unsigned
        sti       r0,*+ar0(ir0)
	.line	284
;----------------------------------------------------------------------
; 372 | btTxBuf[nTxPos+2] = ConvHex2Asc((m_Variable.m_btExVersion_DAYTbl[WORD_L
;     | (nTmp)]>>20)&0xF);// '1': // Year                                      
;----------------------------------------------------------------------
        ldiu      255,ir0
        ldiu      @CL22,ar0
        and       *+fp(2),ir0
        ldiu      -20,r0
        lsh3      r0,*+ar0(ir0),r0
        and       15,r0
        push      r0
        call      _ConvHex2Asc
                                        ; Call Occurs
        ldiu      264,ir0
        subi      1,sp
        ldiu      267,ar0
        addi3     fp,*+fp(ir0),ir0      ; Unsigned
        sti       r0,*+ar0(ir0)
	.line	285
;----------------------------------------------------------------------
; 373 | btTxBuf[nTxPos+3] = ConvHex2Asc((m_Variable.m_btExVersion_DAYTbl[WORD_L
;     | (nTmp)]>>16)&0xF);// '2': // Year                                      
;----------------------------------------------------------------------
        ldiu      255,ir0
        ldiu      @CL22,ar0
        and       *+fp(2),ir0
        ldiu      -16,r0
        lsh3      r0,*+ar0(ir0),r0
        and       15,r0
        push      r0
        call      _ConvHex2Asc
                                        ; Call Occurs
        subi      1,sp
        ldiu      264,ir0
        addi3     fp,*+fp(ir0),ir0      ; Unsigned
        ldiu      268,ar0
        sti       r0,*+ar0(ir0)
	.line	286
;----------------------------------------------------------------------
; 374 | btTxBuf[nTxPos+4] = '-';                                               
;----------------------------------------------------------------------
        ldiu      264,ir0
        addi3     fp,*+fp(ir0),ir0      ; Unsigned
        ldiu      269,ar0
        ldiu      45,r0
        sti       r0,*+ar0(ir0)
	.line	287
;----------------------------------------------------------------------
; 375 | btTxBuf[nTxPos+5] = ConvHex2Asc((m_Variable.m_btExVersion_DAYTbl[WORD_L
;     | (nTmp)]>>12)&0xF);// '0': // Month                                     
;----------------------------------------------------------------------
        ldiu      255,ir0
        ldiu      @CL22,ar0
        and       *+fp(2),ir0
        ldiu      -12,r0
        lsh3      r0,*+ar0(ir0),r0
        and       15,r0
        push      r0
        call      _ConvHex2Asc
                                        ; Call Occurs
        ldiu      264,ir0
        subi      1,sp
        ldiu      270,ar0
        addi3     fp,*+fp(ir0),ir0      ; Unsigned
        sti       r0,*+ar0(ir0)
	.line	288
;----------------------------------------------------------------------
; 376 | btTxBuf[nTxPos+6] = ConvHex2Asc((m_Variable.m_btExVersion_DAYTbl[WORD_L
;     | (nTmp)]>>8)&0xF);// '1': // Month                                      
;----------------------------------------------------------------------
        ldiu      255,ir0
        ldiu      @CL22,ar0
        and       *+fp(2),ir0
        ldiu      -8,r0
        lsh3      r0,*+ar0(ir0),r0
        and       15,r0
        push      r0
        call      _ConvHex2Asc
                                        ; Call Occurs
        subi      1,sp
        ldiu      264,ir0
        ldiu      271,ar0
        addi3     fp,*+fp(ir0),ir0      ; Unsigned
        sti       r0,*+ar0(ir0)
	.line	289
;----------------------------------------------------------------------
; 377 | btTxBuf[nTxPos+7] = '-';                                               
;----------------------------------------------------------------------
        ldiu      264,ir0
        ldiu      272,ar0
        addi3     fp,*+fp(ir0),ir0      ; Unsigned
        ldiu      45,r0
        sti       r0,*+ar0(ir0)
	.line	290
;----------------------------------------------------------------------
; 378 | btTxBuf[nTxPos+8] = ConvHex2Asc((m_Variable.m_btExVersion_DAYTbl[WORD_L
;     | (nTmp)]>>4)&0xF);// '0': // Day                                        
;----------------------------------------------------------------------
        ldiu      255,ir0
        ldiu      @CL22,ar0
        and       *+fp(2),ir0
        ldiu      -4,r0
        lsh3      r0,*+ar0(ir0),r0
        and       15,r0
        push      r0
        call      _ConvHex2Asc
                                        ; Call Occurs
        ldiu      264,ir0
        subi      1,sp
        ldiu      273,ar0
        addi3     fp,*+fp(ir0),ir0      ; Unsigned
        sti       r0,*+ar0(ir0)
	.line	291
;----------------------------------------------------------------------
; 379 | btTxBuf[nTxPos+9] = ConvHex2Asc((m_Variable.m_btExVersion_DAYTbl[WORD_L
;     | (nTmp)])&0xF);// '1' : // Day                                          
;----------------------------------------------------------------------
        ldiu      255,ir0
        ldiu      @CL22,ar0
        and       *+fp(2),ir0
        ldiu      15,r0
        and3      r0,*+ar0(ir0),r0
        push      r0
        call      _ConvHex2Asc
                                        ; Call Occurs
        subi      1,sp
        ldiu      264,ir0
        addi3     fp,*+fp(ir0),ir0      ; Unsigned
        ldiu      274,ar0
        sti       r0,*+ar0(ir0)
	.line	292
;----------------------------------------------------------------------
; 380 | btTxBuf[nTxPos+10] = '';                                               
;----------------------------------------------------------------------
        ldiu      264,ir0
        addi3     fp,*+fp(ir0),ir0      ; Unsigned
        ldiu      275,ar0
        ldiu      0,r0
        sti       r0,*+ar0(ir0)
	.line	293
;----------------------------------------------------------------------
; 381 | nTxPos = nTxPos+11;                                                    
;----------------------------------------------------------------------
        ldiu      264,ir1
        ldiu      11,r0
        ldiu      264,ir0
        addi3     r0,*+fp(ir1),r0
        sti       r0,*+fp(ir0)
	.line	295
;----------------------------------------------------------------------
; 383 | btTxBuf[nTxPos++] = Make1ByteBcc(&btTxBuf[1],nTxPos-1); // Check Sum   
;----------------------------------------------------------------------
        ldiu      1,r0
        ldiu      266,r1
        addi      fp,r1
        subi3     r0,*+fp(ir0),r0
        push      r0
        push      r1
        call      _Make1ByteBcc
                                        ; Call Occurs
        subi      2,sp
        ldiu      264,ir0
        ldiu      *+fp(ir0),r1
        ldiu      264,ir1
        addi3     r1,fp,ir0             ; Unsigned
        ldiu      265,ar0
        addi      1,r1
        sti       r1,*+fp(ir1)
        sti       r0,*+ar0(ir0)
	.line	296
;----------------------------------------------------------------------
; 384 | btTxBuf[nTxPos++] = ETX; // ETX                                        
;----------------------------------------------------------------------
        ldiu      264,ir0
        ldiu      *+fp(ir0),r0
        addi3     r0,fp,ir0             ; Unsigned
        ldiu      3,r1
        addi      1,r0
        sti       r0,*+fp(ir1)
        sti       r1,*+ar0(ir0)
	.line	298
;----------------------------------------------------------------------
; 386 | if(WORD_L(btRxBuf[4]) != 2)                                            
;----------------------------------------------------------------------
        ldiu      fp,ar0
        addi      12,ar0
        ldiu      255,r0
        and3      r0,*ar0,r0
        cmpi      2,r0
        beq       L100
;*      Branch Occurs to L100 
	.line	300
;----------------------------------------------------------------------
; 388 | LonWorkTx(btTxBuf,nTxPos);                                             
;----------------------------------------------------------------------
        ldiu      264,ir0
        ldiu      265,r0
        ldiu      *+fp(ir0),r1
        addi      fp,r0
        push      r1
        push      r0
        call      _LonWorkTx
                                        ; Call Occurs
        subi      2,sp
L100:        
	.line	303
;----------------------------------------------------------------------
; 391 | MyPrintf("Unit Ver Sending : ");                                       
;----------------------------------------------------------------------
        ldiu      @CL23,r0
        push      r0
        call      _MyPrintf
                                        ; Call Occurs
        subi      1,sp
	.line	305
;----------------------------------------------------------------------
; 393 | break;                                                                 
; 395 | //µµľî»óĹÂ(Single or married A)                                        
; 396 | case 0x0E:                                                             
;----------------------------------------------------------------------
        bu        L150
;*      Branch Occurs to L150 
L101:        
	.line	309
;----------------------------------------------------------------------
; 397 | m_Variable.m_btCttSignalA.BYTE = btRxBuf[4];                           
;----------------------------------------------------------------------
        ldiu      fp,ar0
        addi      12,ar0
        ldiu      *ar0,r0
        sti       r0,@_m_Variable+354
	.line	311
;----------------------------------------------------------------------
; 399 | m_Variable.m_bCiFaultFlag = (btRxBuf[4]&0x10) ? TRUE : FALSE;          
;----------------------------------------------------------------------
        ldiu      fp,ar0
        addi      12,ar0
        ldiu      16,r0
        tstb3     *ar0,r0
        beq       L103
;*      Branch Occurs to L103 
        bud       L104
	nop
	nop
        ldiu      1,r0
;*      Branch Occurs to L104 
L103:        
        ldiu      0,r0
L104:        
        sti       r0,@_m_Variable+361
	.line	313
;----------------------------------------------------------------------
; 401 | d_MDSinputData = btRxBuf[4];                                           
;----------------------------------------------------------------------
        ldiu      fp,ar0
        addi      12,ar0
        ldiu      *ar0,r0
        sti       r0,@_d_MDSinputData+0
	.line	314
;----------------------------------------------------------------------
; 402 | d_CIShiftFlag = m_Variable.m_bCiFaultFlag;                             
; 404 | //MyPrintf("Ci_CutOff - All_Door_Close - Sp -  - Traction - Atcive_CAB
;     | = 0x[%02X] \r\n",btRxBuf[4]);                                          
;----------------------------------------------------------------------
        ldiu      @_m_Variable+361,r0
        sti       r0,@_d_CIShiftFlag+0
	.line	318
;----------------------------------------------------------------------
; 406 | break;                                                                 
; 408 | // ż­Â÷±¸Ľş »óĹÂ żäĂ»                                                  
; 409 | case 0x10:                                                             
;----------------------------------------------------------------------
        bu        L150
;*      Branch Occurs to L150 
	.line	322
;----------------------------------------------------------------------
; 410 | nTxPos = 0;                                                            
;----------------------------------------------------------------------
L106:        
        sti       r0,*+fp(ir0)
	.line	323
;----------------------------------------------------------------------
; 411 | memset(btTxBuf,0x00,sizeof(btTxBuf));                                  
;----------------------------------------------------------------------
        ldiu      128,r2
        ldiu      0,r1
        ldiu      265,r0
        push      r2
        addi      fp,r0
        push      r1
        push      r0
        call      _memset
                                        ; Call Occurs
        subi      3,sp
	.line	325
;----------------------------------------------------------------------
; 413 | btTxBuf[nTxPos++] = STX; // STX                                        
;----------------------------------------------------------------------
        ldiu      264,ir0
        ldiu      264,ir1
        ldiu      265,ar0
        ldiu      1,r2
        ldiu      *+fp(ir0),r0
        ldiu      2,r1
        addi      r0,r2
        addi3     r0,fp,ir0             ; Unsigned
        sti       r2,*+fp(ir1)
        sti       r1,*+ar0(ir0)
	.line	326
;----------------------------------------------------------------------
; 414 | btTxBuf[nTxPos++] = 0x11; // Command Code                              
;----------------------------------------------------------------------
        ldiu      264,ir0
        ldiu      *+fp(ir0),r0
        ldiu      1,r2
        ldiu      17,r1
        addi      r0,r2
        addi3     r0,fp,ir0             ; Unsigned
        sti       r2,*+fp(ir1)
        sti       r1,*+ar0(ir0)
	.line	327
;----------------------------------------------------------------------
; 415 | btTxBuf[nTxPos++] = 0x00; // Message Code                              
;----------------------------------------------------------------------
        ldiu      264,ir0
        ldiu      1,r2
        ldiu      *+fp(ir0),r0
        addi      r0,r2
        addi3     r0,fp,ir0             ; Unsigned
        sti       r2,*+fp(ir1)
        ldiu      0,r1
        sti       r1,*+ar0(ir0)
	.line	328
;----------------------------------------------------------------------
; 416 | btTxBuf[nTxPos++] = 0x02; // ±ćŔĚ                                      
;----------------------------------------------------------------------
        ldiu      264,ir0
        ldiu      *+fp(ir0),r0
        addi3     r0,fp,ir0             ; Unsigned
        ldiu      1,r2
        addi      r0,r2
        sti       r2,*+fp(ir1)
        ldiu      2,r1
        sti       r1,*+ar0(ir0)
	.line	329
;----------------------------------------------------------------------
; 417 | btTxBuf[nTxPos++] = WORD_H(m_Variable.m_TrainCofVal); // µĄŔĚĹÍ        
;----------------------------------------------------------------------
        ldiu      264,ir0
        ldiu      1,r0
        ldiu      *+fp(ir1),r1
        addi      r1,r0
        sti       r0,*+fp(ir0)
        ldiu      @_m_Variable+275,r0
        ash       -8,r0
        addi3     r1,fp,ir0             ; Unsigned
        and       255,r0
        sti       r0,*+ar0(ir0)
	.line	330
;----------------------------------------------------------------------
; 418 | btTxBuf[nTxPos++] = WORD_L(m_Variable.m_TrainCofVal); // µĄŔĚĹÍ        
;----------------------------------------------------------------------
        ldiu      264,ir0
        ldiu      255,r0
        ldiu      1,r1
        ldiu      *+fp(ir0),r2
        addi      r2,r1
        sti       r1,*+fp(ir1)
        addi3     r2,fp,ir0             ; Unsigned
        and       @_m_Variable+275,r0
        sti       r0,*+ar0(ir0)
	.line	331
;----------------------------------------------------------------------
; 419 | btTxBuf[nTxPos++] = Make1ByteBcc(&btTxBuf[1],nTxPos-1); // Check Sum   
;----------------------------------------------------------------------
        ldiu      1,r1
        ldiu      266,r0
        ldiu      264,ir0
        addi      fp,r0
        subi3     r1,*+fp(ir0),r1
        push      r1
        push      r0
        call      _Make1ByteBcc
                                        ; Call Occurs
        ldiu      264,ir0
        subi      2,sp
        ldiu      *+fp(ir0),r1
        ldiu      1,r2
        addi      r1,r2
        ldiu      265,ar0
        addi3     r1,fp,ir0             ; Unsigned
        ldiu      264,ir1
        sti       r2,*+fp(ir1)
        sti       r0,*+ar0(ir0)
	.line	332
;----------------------------------------------------------------------
; 420 | btTxBuf[nTxPos++] = ETX; // ETX                                        
;----------------------------------------------------------------------
        ldiu      264,ir0
        ldiu      *+fp(ir0),r2
        addi3     r2,fp,ir0             ; Unsigned
        ldiu      1,r0
        addi      r2,r0
        sti       r0,*+fp(ir1)
        ldiu      3,r1
        sti       r1,*+ar0(ir0)
	.line	333
;----------------------------------------------------------------------
; 421 | LonWorkTx(btTxBuf,nTxPos);                                             
;----------------------------------------------------------------------
        ldiu      264,ir0
        ldiu      *+fp(ir0),r0
        push      r0
        ldiu      265,r0
        addi      fp,r0
        push      r0
        call      _LonWorkTx
                                        ; Call Occurs
        subi      2,sp
	.line	335
;----------------------------------------------------------------------
; 423 | nTxPos = 0;                                                            
; 424 | //MyPrintf("Door State[%X] : ",m_Variable.m_TrainCofVal);              
;----------------------------------------------------------------------
        ldiu      264,ir0
        ldiu      0,r0
        sti       r0,*+fp(ir0)
	.line	338
;----------------------------------------------------------------------
; 426 | break;                                                                 
; 428 | // CI Ŕ§Äˇ żäĂ»                                                        
; 429 | case 0x12:                                                             
;----------------------------------------------------------------------
        bu        L150
;*      Branch Occurs to L150 
	.line	342
;----------------------------------------------------------------------
; 430 | nTxPos = 0;                                                            
;----------------------------------------------------------------------
L108:        
        sti       r0,*+fp(ir0)
	.line	343
;----------------------------------------------------------------------
; 431 | memset(btTxBuf,0x00,sizeof(btTxBuf));                                  
;----------------------------------------------------------------------
        ldiu      128,r2
        ldiu      0,r1
        ldiu      265,r0
        push      r2
        addi      fp,r0
        push      r1
        push      r0
        call      _memset
                                        ; Call Occurs
        subi      3,sp
	.line	345
;----------------------------------------------------------------------
; 433 | btTxBuf[nTxPos++] = STX; // STX                                        
;----------------------------------------------------------------------
        ldiu      264,ir0
        ldiu      264,ir1
        ldiu      265,ar0
        ldiu      1,r2
        ldiu      *+fp(ir0),r0
        ldiu      2,r1
        addi      r0,r2
        addi3     r0,fp,ir0             ; Unsigned
        sti       r2,*+fp(ir1)
        sti       r1,*+ar0(ir0)
	.line	346
;----------------------------------------------------------------------
; 434 | btTxBuf[nTxPos++] = 0x13; // Command Code                              
;----------------------------------------------------------------------
        ldiu      264,ir0
        ldiu      *+fp(ir0),r0
        ldiu      1,r2
        ldiu      19,r1
        addi      r0,r2
        addi3     r0,fp,ir0             ; Unsigned
        sti       r2,*+fp(ir1)
        sti       r1,*+ar0(ir0)
	.line	347
;----------------------------------------------------------------------
; 435 | btTxBuf[nTxPos++] = 0x00; // Message Code                              
;----------------------------------------------------------------------
        ldiu      264,ir0
        ldiu      1,r2
        ldiu      *+fp(ir0),r0
        addi      r0,r2
        addi3     r0,fp,ir0             ; Unsigned
        sti       r2,*+fp(ir1)
        ldiu      0,r1
        sti       r1,*+ar0(ir0)
	.line	348
;----------------------------------------------------------------------
; 436 | btTxBuf[nTxPos++] = 0x01; // ±ćŔĚ                                      
;----------------------------------------------------------------------
        ldiu      264,ir0
        ldiu      *+fp(ir0),r0
        addi3     r0,fp,ir0             ; Unsigned
        ldiu      1,r2
        addi      r0,r2
        sti       r2,*+fp(ir1)
        ldiu      1,r1
        sti       r1,*+ar0(ir0)
	.line	349
;----------------------------------------------------------------------
; 437 | if(m_Variable.m_nCarPos >= 1 && m_Variable.m_nCarPos <= 8)             
;----------------------------------------------------------------------
        ldi       @_m_Variable+279,r0
        ble       L111
;*      Branch Occurs to L111 
        cmpi      8,r0
        bgt       L111
;*      Branch Occurs to L111 
	.line	351
;----------------------------------------------------------------------
; 439 | btTxBuf[nTxPos++] = 0x00; // µĄŔĚĹÍ                                    
;----------------------------------------------------------------------
        ldiu      264,ir0
        ldiu      1,r2
        ldiu      *+fp(ir0),r0
        ldiu      0,r1
        addi      r0,r2
        addi3     r0,fp,ir0             ; Unsigned
        sti       r2,*+fp(ir1)
        sti       r1,*+ar0(ir0)
	.line	352
;----------------------------------------------------------------------
; 440 | btTxBuf[nTxPos++] = MASKBIT(1,m_Variable.m_nCarPos-1); // µĄŔĚĹÍ       
; 442 | else                                                                   
;----------------------------------------------------------------------
        ldiu      1,r0
        ldiu      264,ir0
        ldiu      1,r1
        ldiu      1,r3
        ldiu      *+fp(ir1),r2
        addi      r2,r3
        sti       r3,*+fp(ir0)
        addi3     r2,fp,ir1             ; Unsigned
        subri     @_m_Variable+279,r0
        ash3      r0,r1,r0
        sti       r0,*+ar0(ir1)
        bu        L112
;*      Branch Occurs to L112 
L111:        
	.line	356
;----------------------------------------------------------------------
; 444 | btTxBuf[nTxPos++] = 0x80; // µĄŔĚĹÍ                                    
;----------------------------------------------------------------------
        ldiu      264,ir0
        ldiu      1,r2
        ldiu      264,ir1
        ldiu      265,ar0
        ldiu      *+fp(ir0),r0
        ldiu      128,r1
        addi      r0,r2
        addi3     r0,fp,ir0             ; Unsigned
        sti       r2,*+fp(ir1)
        sti       r1,*+ar0(ir0)
	.line	357
;----------------------------------------------------------------------
; 445 | btTxBuf[nTxPos++] = 0x00; // µĄŔĚĹÍ                                    
;----------------------------------------------------------------------
        ldiu      264,ir0
        ldiu      1,r2
        ldiu      *+fp(ir0),r0
        ldiu      0,r1
        addi      r0,r2
        addi3     r0,fp,ir0             ; Unsigned
        sti       r2,*+fp(ir1)
        sti       r1,*+ar0(ir0)
L112:        
	.line	359
;----------------------------------------------------------------------
; 447 | btTxBuf[nTxPos++] = Make1ByteBcc(&btTxBuf[1],nTxPos-1); // Check Sum   
;----------------------------------------------------------------------
        ldiu      266,r1
        ldiu      1,r0
        ldiu      264,ir0
        addi      fp,r1
        subi3     r0,*+fp(ir0),r0
        push      r0
        push      r1
        call      _Make1ByteBcc
                                        ; Call Occurs
        ldiu      264,ir1
        subi      2,sp
        ldiu      265,ar0
        ldiu      264,ir0
        ldiu      *+fp(ir1),r1
        ldiu      1,r2
        addi      r1,r2
        addi3     r1,fp,ir1             ; Unsigned
        sti       r2,*+fp(ir0)
        sti       r0,*+ar0(ir1)
	.line	360
;----------------------------------------------------------------------
; 448 | btTxBuf[nTxPos++] = ETX; // ETX                                        
;----------------------------------------------------------------------
        ldiu      264,ir1
        ldiu      1,r2
        ldiu      *+fp(ir0),r1
        addi      r1,r2
        sti       r2,*+fp(ir1)
        addi3     r1,fp,ir0             ; Unsigned
        ldiu      3,r0
        sti       r0,*+ar0(ir0)
	.line	361
;----------------------------------------------------------------------
; 449 | LonWorkTx(btTxBuf,nTxPos);                                             
;----------------------------------------------------------------------
        ldiu      264,ir0
        ldiu      *+fp(ir0),r1
        ldiu      265,r0
        push      r1
        addi      fp,r0
        push      r0
        call      _LonWorkTx
                                        ; Call Occurs
        subi      2,sp
	.line	363
;----------------------------------------------------------------------
; 451 | nTxPos = 0;                                                            
; 452 | //MyPrintf("C/I Position[%X] : ",MASKBIT(1,m_Variable.m_nCarPos-1));   
;----------------------------------------------------------------------
        ldiu      264,ir0
        ldiu      0,r0
        sti       r0,*+fp(ir0)
	.line	366
;----------------------------------------------------------------------
; 454 | break;                                                                 
; 456 | // Â÷·®ąřČŁ żäĂ»                                                       
; 457 | case 0x14:                                                             
;----------------------------------------------------------------------
        bu        L150
;*      Branch Occurs to L150 
	.line	370
;----------------------------------------------------------------------
; 458 | nTxPos = 0;                                                            
;----------------------------------------------------------------------
L114:        
        sti       r0,*+fp(ir0)
	.line	371
;----------------------------------------------------------------------
; 459 | memset(btTxBuf,0x00,sizeof(btTxBuf));                                  
;----------------------------------------------------------------------
        ldiu      128,r2
        ldiu      0,r1
        ldiu      265,r0
        push      r2
        addi      fp,r0
        push      r1
        push      r0
        call      _memset
                                        ; Call Occurs
        subi      3,sp
	.line	373
;----------------------------------------------------------------------
; 461 | btTxBuf[nTxPos++] = STX; // STX                                        
;----------------------------------------------------------------------
        ldiu      264,ir0
        ldiu      264,ir1
        ldiu      265,ar0
        ldiu      1,r2
        ldiu      *+fp(ir0),r0
        ldiu      2,r1
        addi      r0,r2
        addi3     r0,fp,ir0             ; Unsigned
        sti       r2,*+fp(ir1)
        sti       r1,*+ar0(ir0)
	.line	374
;----------------------------------------------------------------------
; 462 | btTxBuf[nTxPos++] = 0x15; // Command Code                              
;----------------------------------------------------------------------
        ldiu      264,ir0
        ldiu      *+fp(ir1),r0
        ldiu      1,r2
        addi      r0,r2
        sti       r2,*+fp(ir0)
        addi3     r0,fp,ir1             ; Unsigned
        ldiu      21,r1
        sti       r1,*+ar0(ir1)
	.line	375
;----------------------------------------------------------------------
; 463 | btTxBuf[nTxPos++] = 0x00; // Message Code                              
;----------------------------------------------------------------------
        ldiu      264,ir1
        ldiu      *+fp(ir1),r0
        ldiu      1,r2
        addi      r0,r2
        ldiu      0,r1
        addi3     r0,fp,ir1             ; Unsigned
        sti       r2,*+fp(ir0)
        sti       r1,*+ar0(ir1)
	.line	376
;----------------------------------------------------------------------
; 464 | btTxBuf[nTxPos++] = 0x02; // ±ćŔĚ                                      
;----------------------------------------------------------------------
        ldiu      264,ir1
        ldiu      1,r2
        ldiu      *+fp(ir1),r0
        ldiu      2,r1
        addi      r0,r2
        addi3     r0,fp,ir1             ; Unsigned
        sti       r2,*+fp(ir0)
        sti       r1,*+ar0(ir1)
	.line	377
;----------------------------------------------------------------------
; 465 | btTxBuf[nTxPos++] = WORD_H(BCD_BIN(m_Variable.m_nCarNo));              
;----------------------------------------------------------------------
        ldiu      @_m_Variable+282,r0
        push      r0
        call      _BCD_BIN
                                        ; Call Occurs
        ldiu      264,ir0
        subi      1,sp
        ldiu      *+fp(ir0),r1
        ldiu      264,ir1
        ldiu      265,ar0
        ash       -8,r0
        and       255,r0
        ldiu      1,r2
        addi      r1,r2
        addi3     r1,fp,ir0             ; Unsigned
        sti       r2,*+fp(ir1)
        sti       r0,*+ar0(ir0)
	.line	378
;----------------------------------------------------------------------
; 466 | btTxBuf[nTxPos++] = WORD_L(BCD_BIN(m_Variable.m_nCarNo));              
;----------------------------------------------------------------------
        ldiu      @_m_Variable+282,r0
        push      r0
        call      _BCD_BIN
                                        ; Call Occurs
        ldiu      264,ir1
        subi      1,sp
        ldiu      264,ir0
        ldiu      1,r2
        ldiu      *+fp(ir0),r1
        addi      r1,r2
        sti       r2,*+fp(ir1)
        ldiu      265,ar0
        addi3     r1,fp,ir0             ; Unsigned
        and       255,r0
        sti       r0,*+ar0(ir0)
	.line	379
;----------------------------------------------------------------------
; 467 | btTxBuf[nTxPos++] = Make1ByteBcc(&btTxBuf[1],nTxPos-1); // Check Sum   
;----------------------------------------------------------------------
        ldiu      1,r0
        ldiu      266,r1
        ldiu      264,ir0
        addi      fp,r1
        subi3     r0,*+fp(ir0),r0
        push      r0
        push      r1
        call      _Make1ByteBcc
                                        ; Call Occurs
        ldiu      264,ir0
        subi      2,sp
        ldiu      264,ir1
        ldiu      1,r2
        ldiu      *+fp(ir0),r1
        addi      r1,r2
        sti       r2,*+fp(ir1)
        ldiu      265,ar0
        addi3     r1,fp,ir0             ; Unsigned
        sti       r0,*+ar0(ir0)
	.line	380
;----------------------------------------------------------------------
; 468 | btTxBuf[nTxPos++] = ETX; // ETX                                        
;----------------------------------------------------------------------
        ldiu      264,ir0
        ldiu      *+fp(ir0),r0
        ldiu      1,r2
        addi      r0,r2
        addi3     r0,fp,ir0             ; Unsigned
        sti       r2,*+fp(ir1)
        ldiu      3,r1
        sti       r1,*+ar0(ir0)
	.line	381
;----------------------------------------------------------------------
; 469 | LonWorkTx(btTxBuf,nTxPos);                                             
;----------------------------------------------------------------------
        ldiu      264,ir0
        ldiu      *+fp(ir0),r0
        push      r0
        ldiu      265,r0
        addi      fp,r0
        push      r0
        call      _LonWorkTx
                                        ; Call Occurs
        subi      2,sp
	.line	383
;----------------------------------------------------------------------
; 471 | nTxPos = 0;                                                            
; 472 | //MyPrintf("Train NUM Sending[%X] : ",m_Variable.m_nCarNo);            
;----------------------------------------------------------------------
        ldiu      264,ir0
        ldiu      0,r0
        sti       r0,*+fp(ir0)
	.line	386
;----------------------------------------------------------------------
; 474 | break;                                                                 
; 476 | // CI°íŔĺł­ Â÷·® Ŕ§Äˇ żäĂ»                                             
; 477 | case 0x16:                                                             
;----------------------------------------------------------------------
        bu        L150
;*      Branch Occurs to L150 
	.line	390
;----------------------------------------------------------------------
; 478 | nTxPos = 0;                                                            
;----------------------------------------------------------------------
L116:        
        sti       r0,*+fp(ir0)
	.line	391
;----------------------------------------------------------------------
; 479 | memset(btTxBuf,0x00,sizeof(btTxBuf));                                  
;----------------------------------------------------------------------
        ldiu      128,r2
        ldiu      0,r1
        ldiu      265,r0
        push      r2
        addi      fp,r0
        push      r1
        push      r0
        call      _memset
                                        ; Call Occurs
        subi      3,sp
	.line	393
;----------------------------------------------------------------------
; 481 | btTxBuf[nTxPos++] = STX; // STX                                        
;----------------------------------------------------------------------
        ldiu      264,ir0
        ldiu      264,ir1
        ldiu      265,ar0
        ldiu      1,r1
        ldiu      *+fp(ir0),r0
        ldiu      2,r2
        addi      r0,r1
        addi3     r0,fp,ir0             ; Unsigned
        sti       r1,*+fp(ir1)
        sti       r2,*+ar0(ir0)
	.line	394
;----------------------------------------------------------------------
; 482 | btTxBuf[nTxPos++] = 0x17; // Command Code                              
;----------------------------------------------------------------------
        ldiu      264,ir0
        ldiu      *+fp(ir0),r2
        ldiu      1,r1
        addi      r2,r1
        ldiu      23,r0
        addi3     r2,fp,ir0             ; Unsigned
        sti       r1,*+fp(ir1)
        sti       r0,*+ar0(ir0)
	.line	395
;----------------------------------------------------------------------
; 483 | btTxBuf[nTxPos++] = 0x00; // Message Code                              
;----------------------------------------------------------------------
        ldiu      264,ir0
        ldiu      1,r0
        ldiu      *+fp(ir0),r2
        ldiu      0,r1
        addi      r2,r0
        addi3     r2,fp,ir0             ; Unsigned
        sti       r0,*+fp(ir1)
        sti       r1,*+ar0(ir0)
	.line	396
;----------------------------------------------------------------------
; 484 | btTxBuf[nTxPos++] = 0x02; // ±ćŔĚ                                      
; 485 | //if(m_Variable.m_btCiFaultVal != 0x8000 && m_Variable.m_btTestOtherCiF
;     | ault != 0x8000) //                                                     
;----------------------------------------------------------------------
        ldiu      264,ir0
        ldiu      *+fp(ir0),r2
        addi3     r2,fp,ir0             ; Unsigned
        ldiu      1,r0
        addi      r2,r0
        sti       r0,*+fp(ir1)
        ldiu      2,r1
        sti       r1,*+ar0(ir0)
	.line	398
;----------------------------------------------------------------------
; 486 | if(m_Variable.m_btCiFaultVal != 0x8000 ) //                            
;----------------------------------------------------------------------
        ldiu      @_m_Variable+281,r0
        cmpi      @CL24,r0
        beqd      L135
        ldieq     264,ir0
        ldieq     1,r2
        ldieq     264,ir1
;*      Branch Occurs to L135 
	.line	400
;----------------------------------------------------------------------
; 488 | btTxBuf[nTxPos++] = 0x00;                                              
; 489 | switch(m_Variable.m_TrainCofVal)                                       
; 503 |         // 2·®                                                         
;----------------------------------------------------------------------
        ldiu      264,ir0
        ldiu      1,r0
        ldiu      *+fp(ir1),r2
        ldiu      0,r1
        addi      r2,r0
        bud       L129
        addi3     r2,fp,ir1             ; Unsigned
        sti       r0,*+fp(ir0)
        sti       r1,*+ar0(ir1)
;*      Branch Occurs to L129 
	.line	416
;----------------------------------------------------------------------
; 504 | case 0: btTxBuf[nTxPos++] = 0xFC | m_Variable.m_btCiFaultVal ; break; /
;     | / µĄŔĚĹÍ                                                               
; 505 |         // 4·®                                                         
;----------------------------------------------------------------------
L119:        
        ldiu      252,r2
        ldiu      *+fp(ir0),r0
        ldiu      265,ar0
        addi      r0,r1
        addi3     r0,fp,ir0             ; Unsigned
        sti       r1,*+fp(ir1)
        or        @_m_Variable+281,r2
        sti       r2,*+ar0(ir0)
        bu        L136
;*      Branch Occurs to L136 
	.line	418
;----------------------------------------------------------------------
; 506 | case 1: btTxBuf[nTxPos++] = 0xF0 | m_Variable.m_btCiFaultVal ; break; /
;     | / µĄŔĚĹÍ                                                               
; 507 |         // 6·®                                                         
;----------------------------------------------------------------------
L121:        
        ldiu      240,r0
        ldiu      *+fp(ir0),r2
        ldiu      265,ar0
        addi      r2,r1
        addi3     r2,fp,ir0             ; Unsigned
        sti       r1,*+fp(ir1)
        or        @_m_Variable+281,r0
        sti       r0,*+ar0(ir0)
        bu        L136
;*      Branch Occurs to L136 
	.line	420
;----------------------------------------------------------------------
; 508 | case 2: btTxBuf[nTxPos++] = 0xC0 | m_Variable.m_btCiFaultVal ; break; /
;     | / µĄŔĚĹÍ                                                               
; 509 |         // 8·®                                                         
;----------------------------------------------------------------------
L123:        
        ldiu      192,r0
        ldiu      *+fp(ir0),r2
        ldiu      265,ar0
        addi      r2,r1
        addi3     r2,fp,ir0             ; Unsigned
        sti       r1,*+fp(ir1)
        or        @_m_Variable+281,r0
        sti       r0,*+ar0(ir0)
        bu        L136
;*      Branch Occurs to L136 
	.line	422
;----------------------------------------------------------------------
; 510 | case 3: btTxBuf[nTxPos++] = 0x00 | m_Variable.m_btCiFaultVal ; break; /
;     | / µĄŔĚĹÍ                                                               
; 511 | default:                                                               
;----------------------------------------------------------------------
L125:        
        ldiu      *+fp(ir0),r1
        ldiu      265,ar0
        addi      r1,r0
        addi3     r1,fp,ir0             ; Unsigned
        sti       r0,*+fp(ir1)
        ldiu      @_m_Variable+281,r0
        sti       r0,*+ar0(ir0)
        bu        L136
;*      Branch Occurs to L136 
	.line	424
;----------------------------------------------------------------------
; 512 | btTxBuf[nTxPos++] = 0x00 | m_Variable.m_btCiFaultVal ; break; // µĄŔĚĹÍ
; 514 | //btTxBuf[nTxPos++] = m_btCiFaultVal | m_btTestOtherCiFault;           
; 516 | else                                                                   
;----------------------------------------------------------------------
L127:        
        ldiu      *+fp(ir0),r1
        ldiu      265,ar0
        addi      r1,r0
        addi3     r1,fp,ir0             ; Unsigned
        sti       r0,*+fp(ir1)
        ldiu      @_m_Variable+281,r0
        sti       r0,*+ar0(ir0)
        bu        L136
;*      Branch Occurs to L136 
L129:        
	.line	401
        ldi       @_m_Variable+275,r0
        beqd      L119
        ldieq     264,ir0
        ldieq     1,r1
        ldieq     264,ir1
;*      Branch Occurs to L119 
        cmpi      1,r0
        beqd      L121
        ldieq     264,ir0
        ldieq     1,r1
        ldieq     264,ir1
;*      Branch Occurs to L121 
        cmpi      2,r0
        beqd      L123
        ldieq     264,ir0
        ldieq     1,r1
        ldieq     264,ir1
;*      Branch Occurs to L123 
        cmpi      3,r0
        beqd      L125
        ldieq     264,ir0
        ldieq     1,r0
        ldieq     264,ir1
;*      Branch Occurs to L125 
        bud       L127
        ldiu      264,ir0
        ldiu      1,r0
        ldiu      264,ir1
;*      Branch Occurs to L127 
	.line	430
;----------------------------------------------------------------------
; 518 | btTxBuf[nTxPos++] = 0x80;                                              
;----------------------------------------------------------------------
L135:        
        ldiu      265,ar0
        ldiu      *+fp(ir0),r0
        ldiu      128,r1
        addi      r0,r2
        addi3     r0,fp,ir0             ; Unsigned
        sti       r2,*+fp(ir1)
        sti       r1,*+ar0(ir0)
	.line	431
;----------------------------------------------------------------------
; 519 | btTxBuf[nTxPos++] = 0x00;                                              
;----------------------------------------------------------------------
        ldiu      264,ir0
        ldiu      1,r2
        ldiu      *+fp(ir0),r0
        ldiu      0,r1
        addi      r0,r2
        addi3     r0,fp,ir0             ; Unsigned
        sti       r2,*+fp(ir1)
        sti       r1,*+ar0(ir0)
L136:        
	.line	433
;----------------------------------------------------------------------
; 521 | btTxBuf[nTxPos++] = Make1ByteBcc(&btTxBuf[1],nTxPos-1); // Check Sum   
;----------------------------------------------------------------------
        ldiu      266,r1
        ldiu      1,r0
        ldiu      264,ir0
        addi      fp,r1
        subi3     r0,*+fp(ir0),r0
        push      r0
        push      r1
        call      _Make1ByteBcc
                                        ; Call Occurs
        ldiu      264,ir0
        subi      2,sp
        ldiu      265,ar0
        ldiu      264,ir1
        ldiu      *+fp(ir0),r1
        ldiu      1,r2
        addi      r1,r2
        addi3     r1,fp,ir0             ; Unsigned
        sti       r2,*+fp(ir1)
        sti       r0,*+ar0(ir0)
	.line	434
;----------------------------------------------------------------------
; 522 | btTxBuf[nTxPos++] = ETX; // ETX                                        
;----------------------------------------------------------------------
        ldiu      264,ir0
        ldiu      1,r1
        ldiu      *+fp(ir0),r2
        addi      r2,r1
        ldiu      3,r0
        addi3     r2,fp,ir0             ; Unsigned
        sti       r1,*+fp(ir1)
        sti       r0,*+ar0(ir0)
	.line	435
;----------------------------------------------------------------------
; 523 | LonWorkTx(btTxBuf,nTxPos);                                             
;----------------------------------------------------------------------
        ldiu      264,ir0
        ldiu      *+fp(ir0),r1
        push      r1
        ldiu      265,r0
        addi      fp,r0
        push      r0
        call      _LonWorkTx
                                        ; Call Occurs
        subi      2,sp
	.line	437
;----------------------------------------------------------------------
; 525 | nTxPos = 0;                                                            
; 526 | //MyPrintf("Other C/I Fault Condition[%X] : ",m_Variable.m_btCiFaultVal
;     | );                                                                     
;----------------------------------------------------------------------
        ldiu      264,ir0
        ldiu      0,r0
        sti       r0,*+fp(ir0)
	.line	440
;----------------------------------------------------------------------
; 528 | break;                                                                 
;----------------------------------------------------------------------
        bu        L150
;*      Branch Occurs to L150 
	.line	164
L138:        
        ldiu      *ar0,r0
        cmpi      14,r0
        bgt       L146
;*      Branch Occurs to L146 
        beq       L101
;*      Branch Occurs to L101 
        cmpi      2,r0
        beq       L74
;*      Branch Occurs to L74 
        cmpi      6,r0
        beq       L75
;*      Branch Occurs to L75 
        cmpi      8,r0
        beqd      L78
	nop
        ldieq     264,ir0
        ldieq     0,r0
;*      Branch Occurs to L78 
        cmpi      10,r0
        beq       L81
;*      Branch Occurs to L81 
        cmpi      12,r0
        beqd      L86
	nop
        ldieq     264,ir0
        ldieq     0,r0
;*      Branch Occurs to L86 
        bu        L150
;*      Branch Occurs to L150 
L146:        
        cmpi      16,r0
        beqd      L106
	nop
        ldieq     264,ir0
        ldieq     0,r0
;*      Branch Occurs to L106 
        cmpi      18,r0
        beqd      L108
	nop
        ldieq     264,ir0
        ldieq     0,r0
;*      Branch Occurs to L108 
        cmpi      20,r0
        beqd      L114
	nop
        ldieq     264,ir0
        ldieq     0,r0
;*      Branch Occurs to L114 
        cmpi      22,r0
        beqd      L116
	nop
        ldieq     264,ir0
        ldieq     0,r0
;*      Branch Occurs to L116 
L150:        
	.line	444
;----------------------------------------------------------------------
; 532 | if(nTxPos)                                                             
;----------------------------------------------------------------------
        ldiu      264,ir0
        ldi       *+fp(ir0),r0
        beq       L163
;*      Branch Occurs to L163 
	.line	446
;----------------------------------------------------------------------
; 534 | if(m_Variable.m_nDbgTxPos == 0xFFFFFFFF)                               
;----------------------------------------------------------------------
        ldiu      @_m_Variable+295,r0
        cmpi      @CL5,r0
        bned      L163
	nop
        ldieq     393,ir0
        ldieq     0,r0
;*      Branch Occurs to L163 
	.line	448
;----------------------------------------------------------------------
; 536 | szBuf[0] = 0;                                                          
;----------------------------------------------------------------------
        sti       r0,*+fp(ir0)
	.line	449
;----------------------------------------------------------------------
; 537 | sprintf(szBuf2,"[TX:%02d] ",nTxPos); strcat(szBuf,szBuf2);             
;----------------------------------------------------------------------
        ldiu      @CL6,r1
        ldiu      264,ir0
        ldiu      905,r0
        ldiu      *+fp(ir0),r2
        addi      fp,r0
        push      r2
        push      r1
        push      r0
        call      _sprintf
                                        ; Call Occurs
        subi      3,sp
        ldiu      905,r0
        addi      fp,r0
        push      r0
        ldiu      393,r0
        addi      fp,r0
        push      r0
        call      _strcat
                                        ; Call Occurs
        subi      2,sp
	.line	450
;----------------------------------------------------------------------
; 538 | for(i=0;i<nTxPos;i++) {sprintf(szBuf2,"%02X ",WORD_L(btTxBuf[i])); strc
;     | at(szBuf,szBuf2);}                                                     
;----------------------------------------------------------------------
        ldiu      0,r0
        sti       r0,*+fp(1)
        ldiu      264,ir0
        cmpi3     *+fp(ir0),r0
        bged      L154
	nop
        ldiu      265,ar4
        ldiu      255,r4
;*      Branch Occurs to L154 
L153:        
        ldiu      *+fp(1),ir0
        ldiu      905,r0
        addi      fp,ir0
        ldiu      @CL3,r1
        and3      r4,*+ar4(ir0),r2
        push      r2
        addi      fp,r0
        push      r1
        push      r0
        call      _sprintf
                                        ; Call Occurs
        subi      3,sp
        ldiu      905,r0
        addi      fp,r0
        push      r0
        ldiu      393,r0
        addi      fp,r0
        push      r0
        call      _strcat
                                        ; Call Occurs
        subi      2,sp
        ldiu      1,r0
        addi      *+fp(1),r0
        sti       r0,*+fp(1)
        ldiu      264,ir0
        cmpi3     *+fp(ir0),r0
        blt       L153
;*      Branch Occurs to L153 
L154:        
	.line	451
;----------------------------------------------------------------------
; 539 | strcat(szBuf,"\r\n");                                                  
;----------------------------------------------------------------------
        ldiu      @CL4,r1
        ldiu      393,r0
        push      r1
        addi      fp,r0
        push      r0
        call      _strcat
                                        ; Call Occurs
        subi      2,sp
	.line	452
;----------------------------------------------------------------------
; 540 | user_DebugPrint(szBuf);                                                
;----------------------------------------------------------------------
        ldiu      393,r0
        addi      fp,r0
        push      r0
        call      _user_DebugPrint
                                        ; Call Occurs
        subi      1,sp
	.line	457
;----------------------------------------------------------------------
; 545 | break;                                                                 
;----------------------------------------------------------------------
        bu        L163
;*      Branch Occurs to L163 
L156:        
	.line	21
        ldiu      *+fp(6),r0
        cmpi      1,r0
        beq       L23
;*      Branch Occurs to L23 
        cmpi      2,r0
        beq       L23
;*      Branch Occurs to L23 
        cmpi      3,r0
        beq       L23
;*      Branch Occurs to L23 
        cmpi      4,r0
        beq       L23
;*      Branch Occurs to L23 
        cmpi      5,r0
        beq       L23
;*      Branch Occurs to L23 
        cmpi      6,r0
        beq       L23
;*      Branch Occurs to L23 
        cmpi      7,r0
        beqd      L72
	nop
        ldieq     fp,r0
        ldieq     7,r1
;*      Branch Occurs to L72 
L163:        
	.line	459
        pop       ar4
        ldiu      *-fp(1),bk
        pop       r4
        ldiu      *fp,fp
        subi      970,sp
        bu        bk
;*      Branch Occurs to bk 
	.endfunc	547,000001010h,968


	.sect	 ".text"

	.global	_LonWorkRx
	.sym	_LonWorkRx,_LonWorkRx,44,2,0
	.func	551
;******************************************************************************
;* FUNCTION NAME: _LonWorkRx                                                  *
;*                                                                            *
;*   Architecture       : TMS320C30                                           *
;*   Calling Convention : Stack Parameter Convention                          *
;*   Function Uses Regs : r0,r1,ar0,ar1,fp,ir0,ir1,sp,st                      *
;*   Regs Saved         :                                                     *
;*   Stack Frame        : Full (w/ debug)                                     *
;*   Total Frame Size   : 2 Call + 2 Parm + 4 Auto + 0 SOE = 8 words          *
;******************************************************************************
_LonWorkRx:
	.sym	_nRxPos,-2,4,9,32
	.sym	_pRxBuf,-3,28,9,32
	.sym	_i,1,4,1,32
	.sym	_nRxLen,2,12,1,32
	.sym	_pBuf,3,28,1,32
	.sym	_pLnWkDp,4,24,1,32,.fake8
	.line	1
;----------------------------------------------------------------------
; 551 | UCHAR LonWorkRx(int nRxPos, UCHAR *pRxBuf)                             
;----------------------------------------------------------------------
        push      fp
        ldiu      sp,fp
        addi      4,sp
	.line	2
;----------------------------------------------------------------------
; 553 | int i;                                                                 
; 554 | UCHAR nRxLen;                                                          
; 555 | UCHAR *pBuf;                                                           
;----------------------------------------------------------------------
	.line	6
;----------------------------------------------------------------------
; 556 | PLNWKDP pLnWkDp = (LNWKDP *)DPRAM_BASE;                                
;----------------------------------------------------------------------
        ldiu      @CL7,r0
        sti       r0,*+fp(4)
	.line	8
;----------------------------------------------------------------------
; 558 | if(nRxPos >= 1 && nRxPos <= 6)                                         
;----------------------------------------------------------------------
        ldi       *-fp(2),r0
        ble       L181
;*      Branch Occurs to L181 
        cmpi      6,r0
        bgt       L181
;*      Branch Occurs to L181 
	.line	10
;----------------------------------------------------------------------
; 560 | nRxLen = MIN(sizeof(LNWKFTPIT)-1,WORD_L(pLnWkDp->lfBuf[nRxPos-1].btLen)
;     | +6);                                                                   
;----------------------------------------------------------------------
        ldiu      1,ar0
        subri     *-fp(2),ar0
        ldiu      255,r0
        mpyi      200,ar0
        addi      *+fp(4),ar0           ; Unsigned
        ldiu      199,r1
        and       *+ar0(19),r0
        addi      6,r0                  ; Unsigned
        cmpi3     r0,r1
        bhs       L169
;*      Branch Occurs to L169 
        bud       L170
	nop
	nop
        ldiu      199,r0
;*      Branch Occurs to L170 
L169:        
        ldiu      1,ar0
        subri     *-fp(2),ar0
        mpyi      200,ar0
        addi      *+fp(4),ar0           ; Unsigned
        ldiu      255,r0
        and       *+ar0(19),r0
        addi      6,r0                  ; Unsigned
L170:        
        sti       r0,*+fp(2)
	.line	11
;----------------------------------------------------------------------
; 561 | if(nRxLen > 6)                                                         
;----------------------------------------------------------------------
        cmpi      6,r0
        bls       L179
;*      Branch Occurs to L179 
	.line	13
;----------------------------------------------------------------------
; 563 | pBuf = &pLnWkDp->lfBuf[nRxPos-1].btStx;                                
;----------------------------------------------------------------------
        ldiu      1,r0
        subri     *-fp(2),r0
        mpyi      200,r0
        addi      *+fp(4),r0            ; Unsigned
        addi      16,r0                 ; Unsigned
        sti       r0,*+fp(3)
	.line	14
;----------------------------------------------------------------------
; 564 | for(i=0;i<nRxLen;i++) pRxBuf[i] = WORD_L(pBuf[i]);                     
; 566 | //MyPrintf("[Len:%d,Pos:%d->",nRxLen,nRxPos);                          
; 567 | //for(i=0;i<nRxLen;i++) MyPrintf("%02X ",pRxBuf[i]);                   
; 568 | //MyPrintf("]\r\n");                                                   
;----------------------------------------------------------------------
        ldiu      0,r0
        sti       r0,*+fp(1)
        ldiu      *+fp(1),r0
        cmpi      *+fp(2),r0
        ldiu      255,r1
        bhs       L173
;*      Branch Occurs to L173 
L172:        
        ldiu      *+fp(1),ar1
        ldiu      *+fp(3),ir0
        ldiu      *-fp(3),ir1
        ldiu      ar1,ar0
        and3      r1,*+ar1(ir0),r0
        sti       r0,*+ar0(ir1)
        ldiu      1,r0
        addi      *+fp(1),r0
        sti       r0,*+fp(1)
        ldiu      *+fp(1),r0
        cmpi      *+fp(2),r0
        blo       L172
;*      Branch Occurs to L172 
L173:        
	.line	20
;----------------------------------------------------------------------
; 570 | if(pRxBuf[0] == STX && pRxBuf[nRxLen-1] == ETX)                        
;----------------------------------------------------------------------
        ldiu      *-fp(3),ar0
        ldiu      *ar0,r0
        cmpi      2,r0
        bne       L177
;*      Branch Occurs to L177 
        ldiu      *+fp(2),ar0
        addi      *-fp(3),ar0           ; Unsigned
        ldiu      *-ar0(1),r0
        cmpi      3,r0
        bne       L177
;*      Branch Occurs to L177 
	.line	22
;----------------------------------------------------------------------
; 572 | return nRxLen;                                                         
; 574 | else                                                                   
;----------------------------------------------------------------------
        bud       L199
	nop
	nop
        ldiu      *+fp(2),r0
;*      Branch Occurs to L199 
L177:        
	.line	26
;----------------------------------------------------------------------
; 576 | return 0;                                                              
; 579 | else                                                                   
;----------------------------------------------------------------------
        bud       L199
	nop
	nop
        ldiu      0,r0
;*      Branch Occurs to L199 
L179:        
	.line	31
;----------------------------------------------------------------------
; 581 | return 0;                                                              
; 584 | else                                                                   
;----------------------------------------------------------------------
        bud       L199
	nop
	nop
        ldiu      0,r0
;*      Branch Occurs to L199 
L181:        
	.line	35
;----------------------------------------------------------------------
; 585 | if(nRxPos == 7)                                                        
;----------------------------------------------------------------------
        ldiu      *-fp(2),r0
        cmpi      7,r0
        bned      L197
        ldieq     255,r0
        ldieq     *+fp(4),ir0
        ldieq     1219,ar0
;*      Branch Occurs to L197 
	.line	37
;----------------------------------------------------------------------
; 587 | nRxLen = MIN(sizeof(LNWKGERIT),WORD_L(pLnWkDp->lgRxBuf.btLen)+6);      
;----------------------------------------------------------------------
        ldiu      200,r1
        and3      r0,*+ar0(ir0),r0
        addi      6,r0                  ; Unsigned
        cmpi3     r0,r1
        bhsd      L184
        ldihs     *+fp(4),ir0
        ldihs     1219,ar0
        ldihs     255,r0
;*      Branch Occurs to L184 
        bud       L185
	nop
	nop
        ldiu      200,r0
;*      Branch Occurs to L185 
L184:        
        and3      r0,*+ar0(ir0),r0
        addi      6,r0                  ; Unsigned
L185:        
        sti       r0,*+fp(2)
	.line	38
;----------------------------------------------------------------------
; 588 | if(nRxLen > 5)                                                         
;----------------------------------------------------------------------
        cmpi      5,r0
        bls       L195
;*      Branch Occurs to L195 
	.line	40
;----------------------------------------------------------------------
; 590 | pBuf = &pLnWkDp->lfBuf[nRxPos-1].btStx;                                
;----------------------------------------------------------------------
        ldiu      1,r0
        subri     *-fp(2),r0
        mpyi      200,r0
        addi      *+fp(4),r0            ; Unsigned
        addi      16,r0                 ; Unsigned
        sti       r0,*+fp(3)
	.line	41
;----------------------------------------------------------------------
; 591 | for(i=0;i<nRxLen;i++) pRxBuf[i] = WORD_L(pBuf[i]);                     
; 593 | //MyPrintf("[Len:%d,Pos:%d->",nRxLen,nRxPos);                          
; 594 | //for(i=0;i<nRxLen;i++) MyPrintf("%02X ",pRxBuf[i]);                   
; 595 | //MyPrintf("]\r\n");                                                   
;----------------------------------------------------------------------
        ldiu      0,r0
        sti       r0,*+fp(1)
        ldiu      *+fp(1),r0
        cmpi      *+fp(2),r0
        ldiu      255,r1
        bhs       L188
;*      Branch Occurs to L188 
L187:        
        ldiu      *+fp(1),ar1
        ldiu      *+fp(3),ir0
        ldiu      *-fp(3),ir1
        ldiu      ar1,ar0
        and3      r1,*+ar1(ir0),r0
        sti       r0,*+ar0(ir1)
        ldiu      1,r0
        addi      *+fp(1),r0
        sti       r0,*+fp(1)
        ldiu      *+fp(1),r0
        cmpi      *+fp(2),r0
        blo       L187
;*      Branch Occurs to L187 
L188:        
	.line	47
;----------------------------------------------------------------------
; 597 | if(pRxBuf[0] == STX && pRxBuf[nRxLen-1] == ETX && !Make1ByteBcc(&pRxBuf
;     | [1],nRxLen-2))                                                         
;----------------------------------------------------------------------
        ldiu      *-fp(3),ar0
        ldiu      *ar0,r0
        cmpi      2,r0
        bne       L193
;*      Branch Occurs to L193 
        ldiu      *+fp(2),ar0
        addi      *-fp(3),ar0           ; Unsigned
        ldiu      *-ar0(1),r0
        cmpi      3,r0
        bned      L193
	nop
        ldieq     1,r1
        ldieq     2,r0
;*      Branch Occurs to L193 
        addi      *-fp(3),r1            ; Unsigned
        subri     *+fp(2),r0            ; Unsigned
        push      r0
        push      r1
        call      _Make1ByteBcc
                                        ; Call Occurs
        cmpi      0,r0
        subi      2,sp
        bne       L193
;*      Branch Occurs to L193 
	.line	49
;----------------------------------------------------------------------
; 599 | return nRxLen;                                                         
; 601 | else                                                                   
;----------------------------------------------------------------------
        bud       L199
	nop
	nop
        ldiu      *+fp(2),r0
;*      Branch Occurs to L199 
L193:        
	.line	53
;----------------------------------------------------------------------
; 603 | return 0;                                                              
; 606 | else                                                                   
;----------------------------------------------------------------------
        bud       L199
	nop
	nop
        ldiu      0,r0
;*      Branch Occurs to L199 
L195:        
	.line	58
;----------------------------------------------------------------------
; 608 | return 0;                                                              
; 611 | else                                                                   
;----------------------------------------------------------------------
        bud       L199
	nop
	nop
        ldiu      0,r0
;*      Branch Occurs to L199 
L197:        
	.line	63
;----------------------------------------------------------------------
; 613 | return 0;                                                              
;----------------------------------------------------------------------
        bud       L199
	nop
	nop
        ldiu      0,r0
;*      Branch Occurs to L199 
	.line	66
;----------------------------------------------------------------------
; 616 | return 0;                                                              
;----------------------------------------------------------------------
L199:        
	.line	67
        ldiu      *-fp(1),bk
        ldiu      *fp,fp
        subi      6,sp
        bu        bk
;*      Branch Occurs to bk 
	.endfunc	617,000000000h,4


	.sect	 ".text"

	.global	_LonWorkTx
	.sym	_LonWorkTx,_LonWorkTx,32,2,0
	.func	621
;******************************************************************************
;* FUNCTION NAME: _LonWorkTx                                                  *
;*                                                                            *
;*   Architecture       : TMS320C30                                           *
;*   Calling Convention : Stack Parameter Convention                          *
;*   Function Uses Regs : r0,r1,ar0,ar1,fp,ir0,ir1,sp                         *
;*   Regs Saved         :                                                     *
;*   Stack Frame        : Full (w/ debug)                                     *
;*   Total Frame Size   : 2 Call + 2 Parm + 579 Auto + 0 SOE = 583 words      *
;******************************************************************************
_LonWorkTx:
	.sym	_pTxBuf,-2,28,9,32
	.sym	_nLen,-3,12,9,32
	.sym	_i,1,4,1,32
	.sym	_szBuf,2,50,1,16384,,512
	.sym	_szBuf2,514,50,1,2048,,64
	.sym	_pBuf,578,28,1,32
	.sym	_pLnWkDp,579,24,1,32,.fake8
	.line	1
;----------------------------------------------------------------------
; 621 | void LonWorkTx(UCHAR *pTxBuf,UCHAR nLen)                               
;----------------------------------------------------------------------
        push      fp
        ldiu      sp,fp
        addi      579,sp
	.line	2
;----------------------------------------------------------------------
; 623 | int i;                                                                 
; 624 | char szBuf[512];                                                       
; 625 | char szBuf2[64];                                                       
; 627 | UCHAR *pBuf;                                                           
;----------------------------------------------------------------------
	.line	8
;----------------------------------------------------------------------
; 628 | PLNWKDP pLnWkDp = (LNWKDP *)DPRAM_BASE;                                
;----------------------------------------------------------------------
        ldiu      579,ir0
        ldiu      @CL7,r0
        sti       r0,*+fp(ir0)
	.line	10
;----------------------------------------------------------------------
; 630 | pBuf = &pLnWkDp->lgTxBuf.btStx;                                        
;----------------------------------------------------------------------
        ldiu      579,ir1
        ldiu      1416,r0
        ldiu      578,ir0
        addi3     r0,*+fp(ir1),r0       ; Unsigned
        sti       r0,*+fp(ir0)
	.line	12
;----------------------------------------------------------------------
; 632 | memcpy(pBuf,pTxBuf,(int)nLen);                                         
;----------------------------------------------------------------------
        ldiu      *-fp(3),r1
        ldiu      *+fp(ir0),r0
        push      r1
        ldiu      *-fp(2),r1
        push      r1
        push      r0
        call      _memcpy
                                        ; Call Occurs
        subi      3,sp
	.line	13
;----------------------------------------------------------------------
; 633 | LNWK_TXINTREQ();                                                       
;----------------------------------------------------------------------
        ldiu      @CL25,ar0
        ldiu      1,r0
        ldiu      @CL25,ar1
        andn3     *ar0,r0,r0
        sti       r0,*ar1
	.line	14
        ldiu      *-fp(1),bk
        ldiu      *fp,fp
        subi      581,sp
        bu        bk
;*      Branch Occurs to bk 
	.endfunc	634,000000000h,579



	.sect	".cinit"
	.field  	1,32
	.field  	_nDelayCnt$4+0,32
	.field  	0,32		; _nDelayCnt$4 @ 0

	.sect	".text"
	.sect	 ".text"

	.global	_LonInfo_1msLoop
	.sym	_LonInfo_1msLoop,_LonInfo_1msLoop,32,2,0
	.func	639
;******************************************************************************
;* FUNCTION NAME: _LonInfo_1msLoop                                            *
;*                                                                            *
;*   Architecture       : TMS320C30                                           *
;*   Calling Convention : Stack Parameter Convention                          *
;*   Function Uses Regs : r0,r1,r4,ar0,fp,ir0,sp,st                           *
;*   Regs Saved         : r4                                                  *
;*   Stack Frame        : Full (w/ debug)                                     *
;*   Total Frame Size   : 2 Call + 0 Parm + 34 Auto + 1 SOE = 37 words        *
;******************************************************************************
_LonInfo_1msLoop:
	.bss	_nDelayCnt$4,1
	.sym	_nDelayCnt,_nDelayCnt$4,14,3,32
	.sym	_i,1,4,1,32
	.sym	_nTxPos,2,4,1,32
	.sym	_btTxBuf,3,60,1,1024,,32
	.line	1
;----------------------------------------------------------------------
; 639 | void LonInfo_1msLoop()                                                 
; 641 | int i;                                                                 
;----------------------------------------------------------------------
        push      fp
        ldiu      sp,fp
        addi      34,sp
        push      r4
	.line	4
;----------------------------------------------------------------------
; 642 | int nTxPos = 0;                                                        
; 643 | UCHAR btTxBuf[32];                                                     
; 644 | static UINT nDelayCnt = 0;                                             
;----------------------------------------------------------------------
        ldiu      0,r0
        sti       r0,*+fp(2)
	.line	8
;----------------------------------------------------------------------
; 646 | if(m_Variable.m_nCarKindToLonCnt < 6 && !(nDelayCnt%2000))             
;----------------------------------------------------------------------
        ldiu      @_m_Variable+285,r0
        cmpi      6,r0
        bge       L209
;*      Branch Occurs to L209 
        ldiu      @_nDelayCnt$4+0,r0
        ldiu      2000,r1
        call      MOD_U30
                                        ; Call Occurs
        cmpi      0,r0
        bne       L209
;*      Branch Occurs to L209 
	.line	10
;----------------------------------------------------------------------
; 648 | m_Variable.m_nCarKindToLonCnt++;                                       
;----------------------------------------------------------------------
        ldiu      1,r0
        addi      @_m_Variable+285,r0
        sti       r0,@_m_Variable+285
	.line	12
;----------------------------------------------------------------------
; 650 | MyPrintf("Train NUM Sending[%X] : ",m_Variable.m_nCarNo);              
;----------------------------------------------------------------------
        ldiu      @_m_Variable+282,r1
        push      r1
        ldiu      @CL26,r0
        push      r0
        call      _MyPrintf
                                        ; Call Occurs
        subi      2,sp
	.line	14
;----------------------------------------------------------------------
; 652 | nTxPos = 0;                                                            
;----------------------------------------------------------------------
        ldiu      0,r0
        sti       r0,*+fp(2)
	.line	15
;----------------------------------------------------------------------
; 653 | btTxBuf[nTxPos++] = STX; // STX                                        
;----------------------------------------------------------------------
        ldiu      fp,ar0
        ldiu      1,r1
        addi      3,ar0
        ldiu      r0,ir0
        addi      ir0,r1
        ldiu      2,r0
        sti       r1,*+fp(2)
        sti       r0,*+ar0(ir0)
	.line	16
;----------------------------------------------------------------------
; 654 | btTxBuf[nTxPos++] = 0xF0; // Command Code                              
;----------------------------------------------------------------------
        ldiu      *+fp(2),ir0
        ldiu      1,r1
        addi      ir0,r1
        sti       r1,*+fp(2)
        ldiu      fp,ar0
        addi      3,ar0
        ldiu      240,r0
        sti       r0,*+ar0(ir0)
	.line	17
;----------------------------------------------------------------------
; 655 | btTxBuf[nTxPos++] = 0x00; // Message Code                              
;----------------------------------------------------------------------
        ldiu      fp,ar0
        ldiu      1,r0
        addi      3,ar0
        ldiu      *+fp(2),ir0
        ldiu      0,r1
        addi      ir0,r0
        sti       r0,*+fp(2)
        sti       r1,*+ar0(ir0)
	.line	18
;----------------------------------------------------------------------
; 656 | btTxBuf[nTxPos++] = 0x02; // ±ćŔĚ                                      
;----------------------------------------------------------------------
        ldiu      *+fp(2),ir0
        ldiu      1,r1
        addi      ir0,r1
        sti       r1,*+fp(2)
        ldiu      fp,ar0
        addi      3,ar0
        ldiu      2,r0
        sti       r0,*+ar0(ir0)
	.line	19
;----------------------------------------------------------------------
; 657 | btTxBuf[nTxPos++] = WORD_H(m_Variable.m_nCarNo); // Â÷·®ąřČŁ Ŕü´Ţ      
;----------------------------------------------------------------------
        ldiu      1,r1
        ldiu      *+fp(2),ir0
        addi      ir0,r1
        ldiu      @_m_Variable+282,r0
        ldiu      fp,ar0
        lsh       -8,r0
        addi      3,ar0
        sti       r1,*+fp(2)
        and       255,r0
        sti       r0,*+ar0(ir0)
	.line	20
;----------------------------------------------------------------------
; 658 | btTxBuf[nTxPos++] = WORD_L(m_Variable.m_nCarNo); // Â÷·®ąřČŁ Ŕü´Ţ      
;----------------------------------------------------------------------
        ldiu      *+fp(2),ir0
        ldiu      1,r1
        ldiu      255,r0
        addi      ir0,r1
        ldiu      fp,ar0
        and       @_m_Variable+282,r0
        addi      3,ar0
        sti       r1,*+fp(2)
        sti       r0,*+ar0(ir0)
	.line	21
;----------------------------------------------------------------------
; 659 | btTxBuf[nTxPos++] = Make1ByteBcc(&btTxBuf[1],nTxPos-1); // Check Sum   
;----------------------------------------------------------------------
        ldiu      fp,r0
        ldiu      1,r1
        addi      4,r0
        subri     *+fp(2),r1
        push      r1
        push      r0
        call      _Make1ByteBcc
                                        ; Call Occurs
        subi      2,sp
        ldiu      *+fp(2),ir0
        ldiu      1,r1
        addi      ir0,r1
        ldiu      fp,ar0
        addi      3,ar0
        sti       r1,*+fp(2)
        sti       r0,*+ar0(ir0)
	.line	22
;----------------------------------------------------------------------
; 660 | btTxBuf[nTxPos++] = ETX; // ETX                                        
;----------------------------------------------------------------------
        ldiu      1,r1
        ldiu      *+fp(2),ir0
        addi      ir0,r1
        ldiu      fp,ar0
        sti       r1,*+fp(2)
        addi      3,ar0
        ldiu      3,r0
        sti       r0,*+ar0(ir0)
	.line	23
;----------------------------------------------------------------------
; 661 | LonWorkTx(btTxBuf,nTxPos);                                             
;----------------------------------------------------------------------
        ldiu      *+fp(2),r1
        push      r1
        ldiu      fp,r0
        addi      3,r0
        push      r0
        call      _LonWorkTx
                                        ; Call Occurs
        subi      2,sp
	.line	25
;----------------------------------------------------------------------
; 663 | MyPrintf("[TX:%02d] ",nTxPos);                                         
;----------------------------------------------------------------------
        ldiu      *+fp(2),r1
        ldiu      @CL6,r0
        push      r1
        push      r0
        call      _MyPrintf
                                        ; Call Occurs
        subi      2,sp
	.line	26
;----------------------------------------------------------------------
; 664 | for(i=0;i<nTxPos;i++) MyPrintf("%02X ",WORD_L(btTxBuf[i]));            
;----------------------------------------------------------------------
        ldiu      0,r0
        sti       r0,*+fp(1)
        ldiu      255,r4
        cmpi      *+fp(2),r0
        bge       L208
;*      Branch Occurs to L208 
L207:        
        ldiu      fp,ar0
        ldiu      *+fp(1),ir0
        addi      3,ar0
        ldiu      @CL3,r1
        and3      r4,*+ar0(ir0),r0
        push      r0
        push      r1
        call      _MyPrintf
                                        ; Call Occurs
        subi      2,sp
        ldiu      1,r0
        addi      *+fp(1),r0
        sti       r0,*+fp(1)
        cmpi      *+fp(2),r0
        blt       L207
;*      Branch Occurs to L207 
L208:        
	.line	27
;----------------------------------------------------------------------
; 665 | MyPrintf("\r\n");                                                      
;----------------------------------------------------------------------
        ldiu      @CL4,r0
        push      r0
        call      _MyPrintf
                                        ; Call Occurs
        subi      1,sp
L209:        
	.line	30
;----------------------------------------------------------------------
; 668 | nDelayCnt++;                                                           
;----------------------------------------------------------------------
        ldiu      1,r0
        addi      @_nDelayCnt$4+0,r0    ; Unsigned
        sti       r0,@_nDelayCnt$4+0
	.line	31
        ldiu      *-fp(1),bk
        pop       r4
        ldiu      *fp,fp
        subi      36,sp
        bu        bk
;*      Branch Occurs to bk 
	.endfunc	669,000000010h,34



	.global	_d_BufChack
	.bss	_d_BufChack,10
	.sym	_d_BufChack,_d_BufChack,60,2,320,,10
;******************************************************************************
;* STRINGS                                                                    *
;******************************************************************************
	.sect	".const"
SL1:	.byte	"LonMDS Falut Request : ",0
SL2:	.byte	"%02X ",0
SL3:	.byte	13,10,0
SL4:	.byte	"[TX:%02d] ",0
SL5:	.byte	"[%d,%3d,%c]",0
SL6:	.byte	"%02X",0
SL7:	.byte	"..",0
SL8:	.byte	"***FTP File receive... ^^;;***",13,10,0
SL9:	.byte	"***FTP data buffer full..",13,10,0
SL10:	.byte	"***FTP File receive End ^..^ ***",13,10,0
SL11:	.byte	"Unit Ver Sending : ",0
SL12:	.byte	"Train NUM Sending[%X] : ",0
;******************************************************************************
;* CONSTANT TABLE                                                             *
;******************************************************************************
	.sect	".const"
	.bss	CL1,1
	.bss	CL2,1
	.bss	CL3,1
	.bss	CL4,1
	.bss	CL5,1
	.bss	CL6,1
	.bss	CL7,1
	.bss	CL8,1
	.bss	CL9,1
	.bss	CL10,1
	.bss	CL11,1
	.bss	CL12,1
	.bss	CL13,1
	.bss	CL14,1
	.bss	CL15,1
	.bss	CL16,1
	.bss	CL17,1
	.bss	CL18,1
	.bss	CL19,1
	.bss	CL20,1
	.bss	CL21,1
	.bss	CL22,1
	.bss	CL23,1
	.bss	CL24,1
	.bss	CL25,1
	.bss	CL26,1

	.sect	".cinit"
	.field  	26,32
	.field  	CL1+0,32
	.field  	12582912,32
	.field  	SL1,32
	.field  	SL2,32
	.field  	SL3,32
	.field  	-1,32
	.field  	SL4,32
	.field  	11534336,32
	.field  	16776716,32
	.field  	_btFtpOneRecRxBuf$3,32
	.field  	SL5,32
	.field  	SL6,32
	.field  	SL7,32
	.field  	3145728,32
	.field  	SL8,32
	.field  	SL9,32
	.field  	SL10,32
	.field  	_m_Variable+261,32
	.field  	_m_Variable+245,32
	.field  	_d_BufChack,32
	.field  	_m_Variable,32
	.field  	_m_Variable+296,32
	.field  	_m_Variable+325,32
	.field  	SL11,32
	.field  	32768,32
	.field  	10485760,32
	.field  	SL12,32

	.sect	".text"
;******************************************************************************
;* UNDEFINED EXTERNAL REFERENCES                                              *
;******************************************************************************

	.global	_ConvHex2Asc

	.global	_Make1ByteBcc

	.global	_MyPrintf

	.global	_user_DebugPrint

	.global	_BitSwap

	.global	_m_Variable
	.global	_sprintf
	.global	_strcat
	.global	_memcpy
	.global	_memset
	.global	_strlen
	.global	_BCD_BIN
	.global	MOD_U30
