	.module _3150TO_AVR.c
	.area data(ram, con, rel)
_m_VERSION::
	.blkb 21
	.area idata
	.byte 'Z,'i,'g,'b,'e,'e,32,'M,'a,'i,'n,'B,'o,'a,'r,'d
	.byte 32,'V,49,46,48
	.area data(ram, con, rel)
	.dbfile E:\FW\HN_Device\PLAVR128/AVR128.h
	.dbsym e m_VERSION _m_VERSION A[21:21]c
	.area lit(rom, con, rel)
_ID_VALUE1::
	.byte 20,'K
	.byte 244,238
	.byte 'E
	.dbsym e ID_VALUE1 _ID_VALUE1 A[5:5]kc
_ID_VALUE2::
	.byte 'T,199
	.byte 31,198
	.byte 'J
	.dbsym e ID_VALUE2 _ID_VALUE2 A[5:5]kc
_font::
	.byte 0,0
	.byte 0,0
	.byte 0
	.byte 0,0
	.byte 'O,0
	.byte 0
	.byte 0,7
	.byte 0,7
	.byte 0
	.byte 20,127
	.byte 20,127
	.byte 20
	.byte 36,42
	.byte 127,42
	.byte 18
	.byte 35,19
	.byte 8,'d
	.byte 'b
	.byte 54,'I
	.byte 'U,34
	.byte 'P
	.byte 0,5
	.byte 3,0
	.byte 0
	.byte 0,28
	.byte 34,'A
	.byte 0
	.byte 0,'A
	.byte 34,28
	.byte 0
	.byte 20,8
	.byte 62,8
	.byte 20
	.byte 8,8
	.byte 62,8
	.byte 8
	.byte 0,'P
	.byte 48,0
	.byte 0
	.byte 8,8
	.byte 8,8
	.byte 8
	.byte 0,96
	.byte 96,0
	.byte 0
	.byte 32,16
	.byte 8,4
	.byte 2
	.byte 62,'Q
	.byte 'I,'E
	.byte 62
	.byte 0,'B
	.byte 127,64
	.byte 0
	.byte 'B,'a
	.byte 'Q,'I
	.byte 'F
	.byte 33,'A
	.byte 'E,'K
	.byte 49
	.byte 24,20
	.byte 18,127
	.byte 16
	.byte 39,'E
	.byte 'E,'E
	.byte 57
	.byte 60,'J
	.byte 'I,'I
	.byte 48
	.byte 1,'q
	.byte 9,5
	.byte 3
	.byte 54,'I
	.byte 'I,'I
	.byte 54
	.byte 6,'I
	.byte 'I,41
	.byte 30
	.byte 0,54
	.byte 54,0
	.byte 0
	.byte 0,'V
	.byte 54,0
	.byte 0
	.byte 8,20
	.byte 34,'A
	.byte 0
	.byte 20,20
	.byte 20,20
	.byte 20
	.byte 0,'A
	.byte 34,20
	.byte 8
	.byte 2,1
	.byte 'Q,9
	.byte 6
	.byte 50,'I
	.byte 'y,'A
	.byte 62
	.byte 126,17
	.byte 17,17
	.byte 126
	.byte 127,'I
	.byte 'I,'I
	.byte 54
	.byte 62,'A
	.byte 'A,'A
	.byte 34
	.byte 127,'A
	.byte 'A,34
	.byte 28
	.byte 127,'I
	.byte 'I,'I
	.byte 'A
	.byte 127,9
	.byte 9,9
	.byte 1
	.byte 62,'A
	.byte 'I,'I
	.byte 'z
	.byte 127,8
	.byte 8,8
	.byte 127
	.byte 0,'A
	.byte 127,'A
	.byte 0
	.byte 32,64
	.byte 'A,63
	.byte 1
	.byte 127,8
	.byte 20,34
	.byte 'A
	.byte 127,64
	.byte 64,64
	.byte 64
	.byte 127,2
	.byte 12,2
	.byte 127
	.byte 127,4
	.byte 8,16
	.byte 127
	.byte 62,'A
	.byte 'A,'A
	.byte 62
	.byte 127,9
	.byte 9,9
	.byte 6
	.byte 62,'A
	.byte 'Q,33
	.byte 94
	.byte 127,9
	.byte 25,41
	.byte 'F
	.byte 'F,'I
	.byte 'I,'I
	.byte 49
	.byte 1,1
	.byte 127,1
	.byte 1
	.byte 63,64
	.byte 64,64
	.byte 63
	.byte 31,32
	.byte 64,32
	.byte 31
	.byte 63,64
	.byte 60,64
	.byte 63
	.byte 'c,20
	.byte 8,20
	.byte 'c
	.byte 7,8
	.byte 'p,8
	.byte 7
	.byte 'a,'Q
	.byte 'I,'E
	.byte 'C
	.byte 0,127
	.byte 'A,'A
	.byte 0
	.byte 2,4
	.byte 8,16
	.byte 32
	.byte 0,'A
	.byte 'A,127
	.byte 0
	.byte 4,2
	.byte 1,2
	.byte 4
	.byte 64,64
	.byte 64,64
	.byte 64
	.byte 0,1
	.byte 2,4
	.byte 0
	.byte 32,'T
	.byte 'T,'T
	.byte 'x
	.byte 127,'H
	.byte 'D,'D
	.byte 56
	.byte 56,'D
	.byte 'D,'D
	.byte 32
	.byte 56,'D
	.byte 'D,'H
	.byte 127
	.byte 56,'T
	.byte 'T,'T
	.byte 24
	.byte 8,126
	.byte 9,1
	.byte 2
	.byte 12,'R
	.byte 'R,'R
	.byte 62
	.byte 127,8
	.byte 4,4
	.byte 'x
	.byte 0,8
	.byte 'z,0
	.byte 0
	.byte 32,64
	.byte 'D,61
	.byte 0
	.byte 127,16
	.byte 40,'D
	.byte 0
	.byte 0,64
	.byte 127,64
	.byte 0
	.byte 124,4
	.byte 24,4
	.byte 124
	.byte 124,8
	.byte 4,4
	.byte 'x
	.byte 56,'D
	.byte 'D,'D
	.byte 56
	.byte 124,20
	.byte 20,20
	.byte 8
	.byte 8,20
	.byte 20,24
	.byte 124
	.byte 124,8
	.byte 4,4
	.byte 8
	.byte 'H,'T
	.byte 'T,'T
	.byte 32
	.byte 4,63
	.byte 'D,64
	.byte 32
	.byte 60,64
	.byte 64,32
	.byte 124
	.byte 28,32
	.byte 64,32
	.byte 28
	.byte 60,64
	.byte 32,64
	.byte 60
	.byte 'D,40
	.byte 16,40
	.byte 'D
	.byte 12,'P
	.byte 'P,'P
	.byte 60
	.byte 'D,'d
	.byte 'T,'L
	.byte 'D
	.byte 0,8
	.byte 54,'A
	.byte 0
	.byte 0,0
	.byte 'w,0
	.byte 0
	.byte 0,'A
	.byte 54,8
	.byte 0
	.byte 8,4
	.byte 8,16
	.byte 8
	.dbfile E:\FW\HN_Device\PLAVR128/lcd128.h
	.dbsym e font _font A[475:95:5]kc
_hex::
	.byte 62,'Q
	.byte 'I,'E
	.byte 62
	.byte 0,'B
	.byte 127,64
	.byte 0
	.byte 'B,'a
	.byte 'Q,'I
	.byte 'F
	.byte 33,'A
	.byte 'E,'K
	.byte 49
	.byte 24,20
	.byte 18,127
	.byte 16
	.byte 39,'E
	.byte 'E,'E
	.byte 57
	.byte 60,'J
	.byte 'I,'I
	.byte 48
	.byte 1,'q
	.byte 9,5
	.byte 3
	.byte 54,'I
	.byte 'I,'I
	.byte 54
	.byte 6,'I
	.byte 'I,41
	.byte 30
	.byte 126,17
	.byte 17,17
	.byte 126
	.byte 127,'I
	.byte 'I,'I
	.byte 54
	.byte 62,'A
	.byte 'A,'A
	.byte 34
	.byte 127,'A
	.byte 'A,34
	.byte 28
	.byte 127,'I
	.byte 'I,'I
	.byte 'A
	.byte 127,9
	.byte 9,9
	.byte 1
	.dbsym e hex _hex A[80:16:5]kc
	.area text(rom, con, rel)
	.dbfile E:\FW\HN_Device\PLAVR128/lcd128.h
	.dbfunc e busy _busy fV
	.even
_busy::
	.dbline -1
	.dbline 140
; 
; #include <iom128v.h>
; #include <macros.h>
; #include <string.h>
; #include "AVR128.h"
; #include "lcd128.h"
; 
; 
; void port_init(void)
; {
;  PORTA_Init;
;  DDRA_Init;
;  PORTB_Init;
;  DDRB_Init; 
;  PORTC_Init;
;  DDRC_Init;
;  PORTD_Init;
;  DDRD_Init;
;  PORTE_Init;
;  DDRE_Init;
;  PORTF_Init;
;  DDRF_Init;
;  
;  
; }
; 
; 
; 
; 
; void Uart0_init(void)
; {
; UCSR0B = 0x00; //disable while setting baud rate
; UCSR0A = 0x00;
; UCSR0C = 0x06;
; UBRR0L = 0x2F; //set baud rate lo 9600
; UBRR0H = 0x00; //set baud rate hi
; UCSR0B = 0x98;
; }
; 
; 
; 
; void Uart1_init(void)
; {
;  UCSR1B = 0x00; //disable while setting baud rate
;  UCSR1A = 0x00;
;  UCSR1C = 0x06;
;  UBRR1L = 0x2F; //set baud rate lo 9600
;  UBRR1H = 0x00; //set baud rate hi
;  UCSR1B = 0x98;
; }
; 
; #pragma interrupt_handler Uart0_rx_Interrupt:19
; void Uart0_rx_Interrupt(void)
; {
;  //uart has received a character in UDR
; UART0_RX_DATA[UART0_RX_Count] = UDR0;
;    if(UART0_RX_DATA[0] == STX)
;    {
; 	UART0_RX_Count++;
; 	switch(UART0_RX_Count)
; 	{
; 		case 1: LED_50TOAVR_ON;//LED232_ON; 
; 			break;
; 		case 5: LED_50TOAVR_OFF;UART0_RX_Flag = ON; UART0_RX_Count = 0;
; 			break;
; 	}
;    }
;    else UART0_RX_Count = 0;
; 	
; }
; 
; 
; #pragma interrupt_handler adc_isr:22
; void adc_isr(void)
; {
;  //conversion complete, read value (int) using...
;   ADC_DATAS = ADC;
;   adc_flagg = ON;
; } 
; 
; #pragma interrupt_handler timer1_ovf_isr:15
; void timer1_ovf_isr(void)
; {
;  //TIMER1 has overflowed
;  TCNT1H = 0x00; //reload counter high value
;  TCNT1L = 0x01; //reload counter low value
;  TIME_flag = ON;
;  
; }
; 
; #pragma interrupt_handler timer3_ovf_isr:30
; void timer3_ovf_isr(void)
; {
;  //TIMER3 has overflowed
;  TCNT3H = 0x1F; //reload counter high value
;  TCNT3L = 0x01; //reload counter low value
;  TIME3_flag =ON;
; }
; 
; 
; #pragma interrupt_handler Uart1_rx_Interrupt:31
; void Uart1_rx_Interrupt(void)
; {
;  //uart has received a character in UDR
;  UART1_RX_DATA[UART1_RX_Count] = UDR1;
;  
;  if (UART1_RX_DATA[0] == STX)
;  {
;  	UART1_RX_Count++;
;  	switch(UART1_RX_Count)
;  	{
;  		case 1: LED_Zig_ON;
;  			    break;
; 		case 8: UART_RX_FL = ON;//if(UART1_RX_DATA[3] == 0xF0)
; 		            // UART1_RX_Count = 0;	
; 			    break;	
;  		case 10:LED_Zig_OFF; UART1_RX_Flag = ON; UART1_RX_Count = 0;
;  			    break;
;  	}
;  }
;  else UART1_RX_Count = 0; 
; }
; 
; void Uart0_TX_byte(unsigned char c)
; {
;  UDR0 = c;
;  while(!(UCSR0A & (1<<UDRE0)));
;  UCSR0A |= (1<<UDRE0);
; }
; 
; void Uart0_TX_bytes(unsigned char Num)
;  {
;  BYTE C;
;  LED_3150_ON;
;  for(C=0; C<Num; C++) Uart0_TX_byte(UART0_TX_DATA[C]);
;  LED_3150_OFF; 
;  }
; 
; void Uart1_TX_byte(unsigned char c)
;  {
	.dbline 141
;  UDR1 = c;
	ldi R24,128
	out 0x1b,R24
	.dbline 142
;  while(!(UCSR1A & (1<<UDRE1)));
	cbi 0x1a,7
	.dbline 142
	NOP
	.dbline 142
	NOP
	.dbline 142
	NOP
	.dbline 143
;  UCSR1A |= (1<<UDRE1);
	lds R24,98
	ori R24,1
	sts 98,R24
	.dbline 143
	NOP
	.dbline 143
	NOP
	.dbline 143
	NOP
	.dbline 144
;  }
	lds R24,98
	ori R24,2
	sts 98,R24
	.dbline 144
	NOP
	.dbline 144
	NOP
	.dbline 144
	NOP
	.dbline 145
; 
	sbi 0x18,2
	.dbline 145
	NOP
	.dbline 145
	NOP
	.dbline 145
	NOP
	.dbline 146
; void Uart1_TX_bytes(unsigned char Num)
	cbi 0x18,1
	.dbline 146
	NOP
	.dbline 146
	NOP
	.dbline 146
	NOP
L2:
	.dbline 148
;  {
;  BYTE C;
	.dbline 149
;  //LED422_ON;
	sbi 0x18,3
	.dbline 149
	NOP
	.dbline 149
	NOP
	.dbline 149
	NOP
	.dbline 149
	NOP
	.dbline 149
	NOP
	.dbline 150
;  for(C=0; C<Num; C++) Uart1_TX_bytes(UART1_TX_DATA[C]);
	cbi 0x18,3
	.dbline 150
	NOP
	.dbline 150
	NOP
	.dbline 150
	NOP
	.dbline 150
	NOP
	.dbline 150
	NOP
	.dbline 151
;  //LED422_OFF;
	NOP
	.dbline 151
	NOP
	.dbline 151
	NOP
	.dbline 151
	NOP
	.dbline 151
	NOP
	.dbline 152
;  }
	NOP
	.dbline 152
	NOP
	.dbline 152
	NOP
	.dbline 152
	NOP
	.dbline 152
	NOP
	.dbline 153
L3:
	.dbline 153
; 
	.dbline 154
; 
	sbi 0x1a,7
	.dbline 154
	NOP
	.dbline 154
	NOP
	.dbline 154
	NOP
	.dbline 155
; void adc_init(void)
	lds R24,98
	andi R24,254
	sts 98,R24
	.dbline 155
	lds R24,98
	andi R24,253
	sts 98,R24
	.dbline -2
	.dbline 156
; {
L1:
	.dbline 0 ; func end
	ret
	.dbend
	.dbfunc e control _control fV
;           chip -> y+4
;             RW -> R20,R21
;             DI -> R22,R23
	.even
_control::
	xcall push_gset2
	movw R20,R18
	movw R22,R16
	.dbline -1
	.dbline 159
;  ADCSRA = 0x00; //disable adc
;  ADMUX = 0x00; //select adc input 0 
;  ADCSRA = 0x00;
	.dbline 160
; }
	xcall _busy
	.dbline 161
;  
	cpi R22,0
	cpc R22,R23
	breq L6
X0:
	.dbline 161
	.dbline 161
	sbi 0x18,1
	.dbline 161
	NOP
	.dbline 161
	NOP
	.dbline 161
	NOP
	.dbline 161
	xjmp L7
L6:
	.dbline 162
; ADC_PROCESS(void)
	.dbline 162
	cbi 0x18,1
	.dbline 162
	NOP
	.dbline 162
	NOP
	.dbline 162
	NOP
	.dbline 162
L7:
	.dbline 163
; {
	cpi R20,0
	cpc R20,R21
	breq L8
X1:
	.dbline 163
	.dbline 163
	sbi 0x18,2
	.dbline 163
	NOP
	.dbline 163
	NOP
	.dbline 163
	NOP
	.dbline 163
	xjmp L9
L8:
	.dbline 164
;     WORD TEMP_DATA = 0x0000;
	.dbline 164
	cbi 0x18,2
	.dbline 164
	NOP
	.dbline 164
	NOP
	.dbline 164
	NOP
	.dbline 164
L9:
	.dbline 165
; 	BYTE IRD;
	lds R2,98
	clr R3
	ldd R0,y+4
	ldd R1,y+5
	or R2,R0
	or R3,R1
	sts 98,R2
	.dbline 165
	NOP
	.dbline 165
	NOP
	.dbline 165
	NOP
	.dbline -2
	.dbline 166
; 	//LED_3150_ON;
L5:
	xcall pop_gset2
	.dbline 0 ; func end
	ret
	.dbsym l chip 4 I
	.dbsym r RW 20 I
	.dbsym r DI 22 I
	.dbend
	.dbfunc e goline _goline fV
;              x -> R20,R21
	.even
_goline::
	xcall push_gset1
	movw R20,R16
	sbiw R28,2
	.dbline -1
	.dbline 169
;     ADCSRA = 0x9E;     
;     ADMUX = 0x42;
;     SEI();     
	.dbline 170
;     adc_flagg = OFF;
	xcall _busy
	.dbline 172
;     ADCSRA|=0x40;     
;     while(!(adc_flagg));
	ldi R24,3
	ldi R25,0
	std y+0,R24
	std y+1,R25
	clr R18
	clr R19
	clr R16
	clr R17
	xcall _control
	.dbline 173
;     ADCSRA&=0xBF;  
	movw R24,R20
	subi R24,72  ; offset = 184
	sbci R25,255
	out 0x1b,R24
	.dbline 173
	NOP
	.dbline 173
	NOP
	.dbline 173
	NOP
	.dbline 174
;     CLI();
	sbi 0x18,3
	.dbline 174
	NOP
	.dbline 174
	NOP
	.dbline 174
	NOP
	.dbline 174
	NOP
	.dbline 174
	NOP
	.dbline 175
; 	TEMP_DATA = ADC_DATAS & 0x03FF;
	cbi 0x18,3
	.dbline 175
	NOP
	.dbline 175
	NOP
	.dbline 175
	NOP
	.dbline 175
	NOP
	.dbline 175
	NOP
	.dbline 176
;     IRD = TEMP_DATA >> 2; 
	ldi R24,1
	ldi R25,0
	std y+0,R24
	std y+1,R25
	clr R18
	clr R19
	clr R16
	clr R17
	xcall _control
	.dbline 177
; 	ADCSRA = 0x00;	
	ldi R24,68
	out 0x1b,R24
	.dbline 177
	NOP
	.dbline 177
	NOP
	.dbline 177
	NOP
	.dbline 178
; 	//LED_IRSEN_ON;
	sbi 0x18,3
	.dbline 178
	NOP
	.dbline 178
	NOP
	.dbline 178
	NOP
	.dbline 178
	NOP
	.dbline 178
	NOP
	.dbline 179
; 	SEI();
	cbi 0x18,3
	.dbline 179
	NOP
	.dbline 179
	NOP
	.dbline 179
	NOP
	.dbline 179
	NOP
	.dbline 179
	NOP
	.dbline 180
; 	return IRD;
	ldi R24,2
	ldi R25,0
	std y+0,R24
	std y+1,R25
	clr R18
	clr R19
	clr R16
	clr R17
	xcall _control
	.dbline 181
;     
	ldi R24,64
	out 0x1b,R24
	.dbline 181
	NOP
	.dbline 181
	NOP
	.dbline 181
	NOP
	.dbline 182
; }
	sbi 0x18,3
	.dbline 182
	NOP
	.dbline 182
	NOP
	.dbline 182
	NOP
	.dbline 182
	NOP
	.dbline 182
	NOP
	.dbline 183
; 
	cbi 0x18,3
	.dbline 183
	NOP
	.dbline 183
	NOP
	.dbline 183
	NOP
	.dbline 183
	NOP
	.dbline 183
	NOP
	.dbline -2
	.dbline 184
; void KEY_Scan(void)
L10:
	adiw R28,2
	xcall pop_gset1
	.dbline 0 ; func end
	ret
	.dbsym r x 20 I
	.dbend
	.dbfunc e position _position fV
;            tap -> R20,R21
;           chip -> y+8
;              y -> R22,R23
;              x -> R10,R11
	.even
_position::
	xcall push_gset3
	movw R22,R18
	movw R10,R16
	sbiw R28,2
	.dbline -1
	.dbline 188
; {
;  	int delay;
; 	
; 	
	.dbline 189
; 	if(!(KEY1))
	ldi R20,4
	ldi R21,0
	.dbline 191
; 	{ 
; 	    
	ldd R24,y+8
	ldd R25,y+9
	cpi R24,2
	ldi R30,0
	cpc R25,R30
	brne L12
	.dbline 191
	clr R20
L12:
	.dbline 192
; 		for( delay = 0; delay <10000; delay++) asm("NOP");
	ldd R0,y+8
	ldd R1,y+9
	std y+0,R0
	std y+1,R1
	clr R18
	clr R19
	clr R16
	clr R17
	xcall _control
	.dbline 193
; 		if(!(KEY1)) KEY_Flag = 1;
	movw R24,R10
	subi R24,72  ; offset = 184
	sbci R25,255
	out 0x1b,R24
	.dbline 193
	NOP
	.dbline 193
	NOP
	.dbline 193
	NOP
	.dbline 194
; 		while(!(KEY1)) asm("NOP");
	sbi 0x18,3
	.dbline 194
	NOP
	.dbline 194
	NOP
	.dbline 194
	NOP
	.dbline 194
	NOP
	.dbline 194
	NOP
	.dbline 195
; 		
	cbi 0x18,3
	.dbline 195
	NOP
	.dbline 195
	NOP
	.dbline 195
	NOP
	.dbline 195
	NOP
	.dbline 195
	NOP
	.dbline 196
; 	}
	ldd R0,y+8
	ldd R1,y+9
	std y+0,R0
	std y+1,R1
	clr R18
	clr R19
	clr R16
	clr R17
	xcall _control
	.dbline 197
; 	else if(!(KEY2))
	ldi R16,6
	ldi R17,0
	movw R18,R22
	xcall empy16s
	movw R24,R20
	subi R24,192  ; offset = 64
	sbci R25,255
	add R24,R16
	adc R25,R17
	out 0x1b,R24
	.dbline 197
	NOP
	.dbline 197
	NOP
	.dbline 197
	NOP
	.dbline 198
; 	{
	sbi 0x18,3
	.dbline 198
	NOP
	.dbline 198
	NOP
	.dbline 198
	NOP
	.dbline 198
	NOP
	.dbline 198
	NOP
	.dbline 199
; 	   
	cbi 0x18,3
	.dbline 199
	NOP
	.dbline 199
	NOP
	.dbline 199
	NOP
	.dbline 199
	NOP
	.dbline 199
	NOP
	.dbline -2
	.dbline 200
; 		for(delay=0; delay<10000; delay++) asm("NOP");
L11:
	adiw R28,2
	xcall pop_gset3
	.dbline 0 ; func end
	ret
	.dbsym r tap 20 I
	.dbsym l chip 8 I
	.dbsym r y 22 I
	.dbsym r x 10 I
	.dbend
	.dbfunc e clear _clear fV
;              x -> R20,R21
;              y -> R10,R11
;           chip -> R22,R23
	.even
_clear::
	xcall push_gset3
	movw R22,R16
	sbiw R28,2
	.dbline -1
	.dbline 204
; 		if(!(KEY2)) KEY_Flag = 2;
; 		while(!(KEY2)) asm("NOP");
; 		
; 	}	
	.dbline 207
; 	/**
; 	else if(!(KEY3)) 
; 	{
	clr R20
	clr R21
L15:
	.dbline 208
; 	    
	.dbline 209
; 		for(delay=0; delay<10000; delay++) asm("NOP");
	std y+0,R22
	std y+1,R23
	clr R18
	clr R19
	clr R16
	clr R17
	xcall _control
	.dbline 210
; 		if(!(KEY3)) KEY_Flag = 3;
	movw R24,R20
	subi R24,72  ; offset = 184
	sbci R25,255
	out 0x1b,R24
	.dbline 210
	NOP
	.dbline 210
	NOP
	.dbline 210
	NOP
	.dbline 211
; 		while(!(KEY3)) asm("NOP");
	sbi 0x18,3
	.dbline 211
	NOP
	.dbline 211
	NOP
	.dbline 211
	NOP
	.dbline 211
	NOP
	.dbline 211
	NOP
	.dbline 212
; 		
	cbi 0x18,3
	.dbline 212
	NOP
	.dbline 212
	NOP
	.dbline 212
	NOP
	.dbline 212
	NOP
	.dbline 212
	NOP
	.dbline 213
; 	}
	std y+0,R22
	std y+1,R23
	clr R18
	clr R19
	clr R16
	clr R17
	xcall _control
	.dbline 214
; 	else if(!(KEY4))
	ldi R24,64
	out 0x1b,R24
	.dbline 214
	NOP
	.dbline 214
	NOP
	.dbline 214
	NOP
	.dbline 215
; 	{
	sbi 0x18,3
	.dbline 215
	NOP
	.dbline 215
	NOP
	.dbline 215
	NOP
	.dbline 215
	NOP
	.dbline 215
	NOP
	.dbline 216
; 		
	cbi 0x18,3
	.dbline 216
	NOP
	.dbline 216
	NOP
	.dbline 216
	NOP
	.dbline 216
	NOP
	.dbline 216
	NOP
	.dbline 217
; 		for(delay=0; delay<10000; delay++) asm("NOP");
	clr R10
	clr R11
L19:
	.dbline 218
	.dbline 219
	std y+0,R22
	std y+1,R23
	clr R18
	clr R19
	ldi R16,1
	ldi R17,0
	xcall _control
	.dbline 220
	clr R2
	out 0x1b,R2
	.dbline 220
	NOP
	.dbline 220
	NOP
	.dbline 220
	NOP
	.dbline 221
	sbi 0x18,3
	.dbline 221
	NOP
	.dbline 221
	NOP
	.dbline 221
	NOP
	.dbline 221
	NOP
	.dbline 221
	NOP
	.dbline 222
	cbi 0x18,3
	.dbline 222
	NOP
	.dbline 222
	NOP
	.dbline 222
	NOP
	.dbline 222
	NOP
	.dbline 222
	NOP
	.dbline 223
	xcall _busy
	.dbline 224
L20:
	.dbline 217
	movw R24,R10
	adiw R24,1
	movw R10,R24
	.dbline 217
	cpi R24,64
	ldi R30,0
	cpc R25,R30
	brlt L19
	.dbline 225
L16:
	.dbline 207
	subi R20,255  ; offset = 1
	sbci R21,255
	.dbline 207
	cpi R20,8
	ldi R30,0
	cpc R21,R30
	brge X2
	xjmp L15
X2:
	.dbline -2
	.dbline 226
; 		if(!(KEY4)) KEY_Flag = 4;
; 		while(!(KEY4)) asm("NOP");
; 		
; 	}
; 	else if(!(KEY5))
; 	{
; 		
; 		for(delay=0; delay<10000; delay++) asm("NOP");
; 		if(!(KEY5)) KEY_Flag = 5;
L14:
	adiw R28,2
	xcall pop_gset3
	.dbline 0 ; func end
	ret
	.dbsym r x 20 I
	.dbsym r y 10 I
	.dbsym r chip 22 I
	.dbend
	.dbfunc e Cput _Cput fV
;              y -> R20,R21
;           chip -> R22,R23
;              c -> R10
	.even
_Cput::
	xcall push_gset3
	movw R22,R18
	mov R10,R16
	sbiw R28,2
	.dbline -1
	.dbline 230
; 		while(!(KEY5)) asm("NOP");
; 		
; 	}
; 	***/
	.dbline 233
; 	else KEY_Flag = 0;
; }
; 
	clr R20
	clr R21
L24:
	.dbline 234
; void KEY1_Function()
	.dbline 235
; {
	std y+0,R22
	std y+1,R23
	clr R18
	clr R19
	ldi R16,1
	ldi R17,0
	xcall _control
	.dbline 236
;     //clear(CS1+CS2);
	ldi R24,4
	ldi R25,0
	cp R24,R20
	cpc R25,R21
	brge L28
	.dbline 237
;  	goline(7);
	.dbline 238
; 	Sput("KEY 1 PUSH");
	clr R2
	out 0x1b,R2
	.dbline 238
	NOP
	.dbline 238
	NOP
	.dbline 238
	NOP
	.dbline 239
; 	if(SW_STATE1 == OFF)
	sbi 0x18,3
	.dbline 239
	NOP
	.dbline 239
	NOP
	.dbline 239
	NOP
	.dbline 239
	NOP
	.dbline 239
	NOP
	.dbline 240
; 	   {
	cbi 0x18,3
	.dbline 240
	NOP
	.dbline 240
	NOP
	.dbline 240
	NOP
	.dbline 240
	NOP
	.dbline 240
	NOP
	.dbline 241
; 	   UART0_TX_DATA[2] = S_ON;
	xjmp L29
L28:
	.dbline 243
; 	   SW_STATE1 = ON;
; 	   }
	.dbline 244
; 	else
	ldi R24,5
	mul R24,R10
	movw R2,R0
	ldi R24,<_font-160
	ldi R25,>_font-160
	add R2,R24
	adc R3,R25
	movw R30,R20
	add R30,R2
	adc R31,R3
	lpm R30,Z
	out 0x1b,R30
	.dbline 244
	NOP
	.dbline 244
	NOP
	.dbline 244
	NOP
	.dbline 245
; 	   {
	sbi 0x18,3
	.dbline 245
	NOP
	.dbline 245
	NOP
	.dbline 245
	NOP
	.dbline 245
	NOP
	.dbline 245
	NOP
	.dbline 246
; 	   UART0_TX_DATA[2] = S_OFF; 
	cbi 0x18,3
	.dbline 246
	NOP
	.dbline 246
	NOP
	.dbline 246
	NOP
	.dbline 246
	NOP
	.dbline 246
	NOP
	.dbline 247
; 	   SW_STATE1 = OFF;
L29:
	.dbline 248
	xcall _busy
	.dbline 249
L25:
	.dbline 233
	subi R20,255  ; offset = 1
	sbci R21,255
	.dbline 233
	cpi R20,6
	ldi R30,0
	cpc R21,R30
	brge X3
	xjmp L24
X3:
	.dbline -2
	.dbline 250
; 	   }
; 	UART0_TX_DATA[1] = SW1;	
; 	//UART0_TX_DATA[2] = S_ON;	
L23:
	adiw R28,2
	xcall pop_gset3
	.dbline 0 ; func end
	ret
	.dbsym r y 20 I
	.dbsym r chip 22 I
	.dbsym r c 10 c
	.dbend
	.dbfunc e Sput _Sput fV
;         length -> R20,R21
;           chip -> R22,R23
;              i -> R10,R11
;           text -> R12,R13
	.even
_Sput::
	xcall push_gset4
	movw R12,R16
	.dbline -1
	.dbline 254
; 	Uart0_TX_bytes(4);
; 	
; 	
; }
	.dbline 255
; 
	clr R20
	clr R21
	.dbline 257
; void KEY2_Function()
; {
	movw R16,R12
	xcall _strlen
	movw R20,R16
	.dbline 258
;     //clear(CS1+CS2);
	ldi R22,1
	ldi R23,0
	.dbline 259
;  	goline(7);
	clr R10
	clr R11
	xjmp L35
L32:
	.dbline 260
; 	Sput("KEY 2 PUSH");
	.dbline 261
; 	if(SW_STATE2 == OFF)
	movw R24,R10
	cpi R24,10
	ldi R30,0
	cpc R25,R30
	brlt L36
	.dbline 261
	ldi R22,2
	ldi R23,0
L36:
	.dbline 262
	movw R18,R22
	movw R30,R10
	add R30,R12
	adc R31,R13
	ldd R16,z+0
	xcall _Cput
	.dbline 263
L33:
	.dbline 259
	movw R24,R10
	adiw R24,1
	movw R10,R24
L35:
	.dbline 259
	cp R10,R20
	cpc R11,R21
	brlt L32
	.dbline -2
	.dbline 264
; 	   {
; 	   UART0_TX_DATA[2] = S_ON;
; 	   SW_STATE2 = ON;
L31:
	xcall pop_gset4
	.dbline 0 ; func end
	ret
	.dbsym r length 20 I
	.dbsym r chip 22 I
	.dbsym r i 10 I
	.dbsym r text 12 pc
	.dbend
	.dbfunc e Nput _Nput fV
;             n3 -> R20
;             n2 -> R10
;             n1 -> R12
;           chip -> R22,R23
;              n -> R20
	.even
_Nput::
	xcall push_gset4
	movw R22,R18
	mov R20,R16
	.dbline -1
	.dbline 268
; 	   }
; 	else
; 	   {
; 	   UART0_TX_DATA[2] = S_OFF; 
	.dbline 271
; 	   SW_STATE2 = OFF;
; 	   }
; 	UART0_TX_DATA[1] = SW2;	
	ldi R17,100
	mov R16,R20
	xcall div8u
	mov R24,R16
	subi R24,208    ; addi 48
	mov R12,R24
	.dbline 272
; 	//UART0_TX_DATA[2] = S_ON;	
	ldi R17,100
	mov R16,R20
	xcall div8u
	ldi R24,100
	mul R24,R16
	mov R16,R20
	sub R16,R0
	ldi R17,10
	xcall div8u
	mov R24,R16
	subi R24,208    ; addi 48
	mov R10,R24
	.dbline 273
; 	Uart0_TX_bytes(4);
	ldi R17,100
	mov R16,R20
	xcall div8u
	ldi R24,100
	mul R24,R16
	mov R16,R20
	sub R16,R0
	ldi R17,10
	xcall mod8u
	mov R20,R16
	subi R20,208    ; addi 48
	.dbline 274
; 	
	movw R18,R22
	mov R16,R12
	xcall _Cput
	.dbline 275
; }
	movw R18,R22
	mov R16,R10
	xcall _Cput
	.dbline 276
; /***
	movw R18,R22
	mov R16,R20
	xcall _Cput
	.dbline -2
	.dbline 277
; void KEY3_Function()
L38:
	xcall pop_gset4
	.dbline 0 ; func end
	ret
	.dbsym r n3 20 c
	.dbsym r n2 10 c
	.dbsym r n1 12 c
	.dbsym r chip 22 I
	.dbsym r n 20 c
	.dbend
	.dbfunc e LCD_en _LCD_en fV
;              i -> <dead>
;              y -> <dead>
	.even
_LCD_en::
	sbiw R28,2
	.dbline -1
	.dbline 281
; {
;  	goline(0);
; 	Sput("KEY 3 PUSH");	
; }
	.dbline 284
; 
; void KEY4_Function()
; {
	xcall _busy
	.dbline 285
;  	goline(0);
	ldi R24,3
	ldi R25,0
	std y+0,R24
	std y+1,R25
	clr R18
	clr R19
	clr R16
	clr R17
	xcall _control
	.dbline 286
; 	Sput("KEY 4 PUSH");
	ldi R24,63
	out 0x1b,R24
	.dbline 286
	NOP
	.dbline 286
	NOP
	.dbline 286
	NOP
	.dbline 287
; }
	sbi 0x18,3
	.dbline 287
	NOP
	.dbline 287
	NOP
	.dbline 287
	NOP
	.dbline 287
	NOP
	.dbline 287
	NOP
	.dbline 288
; 
	cbi 0x18,3
	.dbline 288
	NOP
	.dbline 288
	NOP
	.dbline 288
	NOP
	.dbline 288
	NOP
	.dbline 288
	NOP
	.dbline 290
; void KEY5_Function()
; {
	ldi R16,3
	ldi R17,0
	xcall _clear
	.dbline 292
;  	goline(0);
; 	Sput("KEY 5 PUSH");
	ldi R24,3
	ldi R25,0
	std y+0,R24
	std y+1,R25
	clr R18
	clr R19
	clr R16
	clr R17
	xcall _control
	.dbline 293
; }
	ldi R24,192
	out 0x1b,R24
	.dbline 293
	NOP
	.dbline 293
	NOP
	.dbline 293
	NOP
	.dbline 294
; ***/
	sbi 0x18,3
	.dbline 294
	NOP
	.dbline 294
	NOP
	.dbline 294
	NOP
	.dbline 294
	NOP
	.dbline 294
	NOP
	.dbline 295
; void KEY_Function(void)
	cbi 0x18,3
	.dbline 295
	NOP
	.dbline 295
	NOP
	.dbline 295
	NOP
	.dbline 295
	NOP
	.dbline 295
	NOP
	.dbline -2
	.dbline 297
; {
; 	switch(KEY_Flag)
L39:
	adiw R28,2
	.dbline 0 ; func end
	ret
	.dbsym l i 3 I
	.dbsym l y 3 I
	.dbend
	.dbfile E:\FW\HN_Device\PLAVR128\3150TO_AVR.c
	.dbfunc e port_init _port_init fV
	.even
_port_init::
	.dbline -1
	.dbline 10
	.dbline 11
	clr R2
	out 0x1b,R2
	.dbline 12
	ldi R24,255
	out 0x1a,R24
	.dbline 13
	out 0x18,R24
	.dbline 14
	out 0x17,R24
	.dbline 15
	out 0x15,R24
	.dbline 16
	out 0x14,R24
	.dbline 17
	out 0x12,R24
	.dbline 18
	ldi R24,139
	out 0x11,R24
	.dbline 19
	ldi R24,255
	out 0x3,R24
	.dbline 20
	ldi R24,254
	out 0x2,R24
	.dbline 21
	ldi R24,240
	sts 98,R24
	.dbline 22
	ldi R24,3
	sts 97,R24
	.dbline -2
	.dbline 25
L40:
	.dbline 0 ; func end
	ret
	.dbend
	.dbfunc e Uart0_init _Uart0_init fV
	.even
_Uart0_init::
	.dbline -1
	.dbline 31
	.dbline 32
	clr R2
	out 0xa,R2
	.dbline 33
	out 0xb,R2
	.dbline 34
	ldi R24,6
	sts 149,R24
	.dbline 35
	ldi R24,47
	out 0x9,R24
	.dbline 36
	sts 144,R2
	.dbline 37
	ldi R24,152
	out 0xa,R24
	.dbline -2
	.dbline 38
L41:
	.dbline 0 ; func end
	ret
	.dbend
	.dbfunc e Uart1_init _Uart1_init fV
	.even
_Uart1_init::
	.dbline -1
	.dbline 43
	.dbline 44
	clr R2
	sts 154,R2
	.dbline 45
	sts 155,R2
	.dbline 46
	ldi R24,6
	sts 157,R24
	.dbline 47
	ldi R24,47
	sts 153,R24
	.dbline 48
	sts 152,R2
	.dbline 49
	ldi R24,152
	sts 154,R24
	.dbline -2
	.dbline 50
L42:
	.dbline 0 ; func end
	ret
	.dbend
	.area vector(rom, abs)
	.org 72
	jmp _Uart0_rx_Interrupt
	.area text(rom, con, rel)
	.dbfile E:\FW\HN_Device\PLAVR128\3150TO_AVR.c
	.dbfunc e Uart0_rx_Interrupt _Uart0_rx_Interrupt fV
	.even
_Uart0_rx_Interrupt::
	st -y,R2
	st -y,R16
	st -y,R17
	st -y,R24
	st -y,R25
	st -y,R30
	st -y,R31
	in R2,0x3f
	st -y,R2
	.dbline -1
	.dbline 54
	.dbline 56
	ldi R24,<_UART0_RX_DATA
	ldi R25,>_UART0_RX_DATA
	lds R30,_UART0_RX_Count
	clr R31
	add R30,R24
	adc R31,R25
	in R2,0xc
	std z+0,R2
	.dbline 57
	lds R24,_UART0_RX_DATA
	cpi R24,2
	brne L44
	.dbline 58
	.dbline 59
	lds R24,_UART0_RX_Count
	subi R24,255    ; addi 1
	sts _UART0_RX_Count,R24
	.dbline 60
	mov R16,R24
	clr R17
	cpi R16,1
	ldi R30,0
	cpc R17,R30
	breq L49
	cpi R16,1
	ldi R30,0
	cpc R17,R30
	brlt L45
L51:
	cpi R16,5
	ldi R30,0
	cpc R17,R30
	breq L50
	xjmp L45
X4:
	.dbline 61
L49:
	.dbline 62
	cbi 0x15,4
	.dbline 63
	xjmp L45
L50:
	.dbline 64
	sbi 0x15,4
	.dbline 64
	ldi R24,1
	sts _UART0_RX_Flag,R24
	.dbline 64
	clr R2
	sts _UART0_RX_Count,R2
	.dbline 65
	.dbline 67
	xjmp L45
L44:
	.dbline 68
	clr R2
	sts _UART0_RX_Count,R2
L45:
	.dbline -2
	.dbline 70
L43:
	ld R2,y+
	out 0x3f,R2
	ld R31,y+
	ld R30,y+
	ld R25,y+
	ld R24,y+
	ld R17,y+
	ld R16,y+
	ld R2,y+
	.dbline 0 ; func end
	reti
	.dbend
	.area vector(rom, abs)
	.org 84
	jmp _adc_isr
	.area text(rom, con, rel)
	.dbfile E:\FW\HN_Device\PLAVR128\3150TO_AVR.c
	.dbfunc e adc_isr _adc_isr fV
	.even
_adc_isr::
	st -y,R2
	st -y,R3
	st -y,R24
	in R2,0x3f
	st -y,R2
	.dbline -1
	.dbline 75
	.dbline 77
	in R2,0x4
	in R3,0x5
	sts _ADC_DATAS+1,R3
	sts _ADC_DATAS,R2
	.dbline 78
	ldi R24,1
	sts _adc_flagg,R24
	.dbline -2
	.dbline 79
L52:
	ld R2,y+
	out 0x3f,R2
	ld R24,y+
	ld R3,y+
	ld R2,y+
	.dbline 0 ; func end
	reti
	.dbend
	.area vector(rom, abs)
	.org 56
	jmp _timer1_ovf_isr
	.area text(rom, con, rel)
	.dbfile E:\FW\HN_Device\PLAVR128\3150TO_AVR.c
	.dbfunc e timer1_ovf_isr _timer1_ovf_isr fV
	.even
_timer1_ovf_isr::
	st -y,R2
	st -y,R24
	in R2,0x3f
	st -y,R2
	.dbline -1
	.dbline 83
	.dbline 85
	clr R2
	out 0x2d,R2
	.dbline 86
	ldi R24,1
	out 0x2c,R24
	.dbline 87
	sts _TIME_flag,R24
	.dbline -2
	.dbline 89
L53:
	ld R2,y+
	out 0x3f,R2
	ld R24,y+
	ld R2,y+
	.dbline 0 ; func end
	reti
	.dbend
	.area vector(rom, abs)
	.org 116
	jmp _timer3_ovf_isr
	.area text(rom, con, rel)
	.dbfile E:\FW\HN_Device\PLAVR128\3150TO_AVR.c
	.dbfunc e timer3_ovf_isr _timer3_ovf_isr fV
	.even
_timer3_ovf_isr::
	st -y,R24
	in R24,0x3f
	st -y,R24
	.dbline -1
	.dbline 93
	.dbline 95
	ldi R24,31
	sts 137,R24
	.dbline 96
	ldi R24,1
	sts 136,R24
	.dbline 97
	sts _TIME3_flag,R24
	.dbline -2
	.dbline 98
L54:
	ld R24,y+
	out 0x3f,R24
	ld R24,y+
	.dbline 0 ; func end
	reti
	.dbend
	.area vector(rom, abs)
	.org 120
	jmp _Uart1_rx_Interrupt
	.area text(rom, con, rel)
	.dbfile E:\FW\HN_Device\PLAVR128\3150TO_AVR.c
	.dbfunc e Uart1_rx_Interrupt _Uart1_rx_Interrupt fV
	.even
_Uart1_rx_Interrupt::
	st -y,R2
	st -y,R16
	st -y,R17
	st -y,R24
	st -y,R25
	st -y,R30
	st -y,R31
	in R2,0x3f
	st -y,R2
	.dbline -1
	.dbline 103
	.dbline 105
	ldi R24,<_UART1_RX_DATA
	ldi R25,>_UART1_RX_DATA
	lds R30,_UART1_RX_Count
	clr R31
	add R30,R24
	adc R31,R25
	lds R2,156
	std z+0,R2
	.dbline 107
	lds R24,_UART1_RX_DATA
	cpi R24,2
	brne L56
	.dbline 108
	.dbline 109
	lds R24,_UART1_RX_Count
	subi R24,255    ; addi 1
	sts _UART1_RX_Count,R24
	.dbline 110
	mov R16,R24
	clr R17
	cpi R16,1
	ldi R30,0
	cpc R17,R30
	breq L61
	cpi R16,1
	ldi R30,0
	cpc R17,R30
	brlt L57
L64:
	cpi R16,8
	ldi R30,0
	cpc R17,R30
	breq L62
	cpi R16,10
	ldi R30,0
	cpc R17,R30
	breq L63
	xjmp L57
X5:
	.dbline 111
L61:
	.dbline 112
	cbi 0x15,0
	.dbline 113
	xjmp L57
L62:
	.dbline 114
	ldi R24,1
	sts _UART_RX_FL,R24
	.dbline 116
	xjmp L57
L63:
	.dbline 117
	sbi 0x15,0
	.dbline 117
	ldi R24,1
	sts _UART1_RX_Flag,R24
	.dbline 117
	clr R2
	sts _UART1_RX_Count,R2
	.dbline 118
	.dbline 120
	xjmp L57
L56:
	.dbline 121
	clr R2
	sts _UART1_RX_Count,R2
L57:
	.dbline -2
	.dbline 122
L55:
	ld R2,y+
	out 0x3f,R2
	ld R31,y+
	ld R30,y+
	ld R25,y+
	ld R24,y+
	ld R17,y+
	ld R16,y+
	ld R2,y+
	.dbline 0 ; func end
	reti
	.dbend
	.dbfunc e Uart0_TX_byte _Uart0_TX_byte fV
;              c -> R16
	.even
_Uart0_TX_byte::
	.dbline -1
	.dbline 125
	.dbline 126
	out 0xc,R16
L66:
	.dbline 127
L67:
	.dbline 127
	sbis 0xb,5
	rjmp L66
	.dbline 128
	sbi 0xb,5
	.dbline -2
	.dbline 129
L65:
	.dbline 0 ; func end
	ret
	.dbsym r c 16 c
	.dbend
	.dbfunc e Uart0_TX_bytes _Uart0_TX_bytes fV
;              C -> R20
;            Num -> R22
	.even
_Uart0_TX_bytes::
	xcall push_gset2
	mov R22,R16
	.dbline -1
	.dbline 132
	.dbline 134
	cbi 0x15,1
	.dbline 135
	clr R20
	xjmp L73
L70:
	.dbline 135
	ldi R24,<_UART0_TX_DATA
	ldi R25,>_UART0_TX_DATA
	mov R30,R20
	clr R31
	add R30,R24
	adc R31,R25
	ldd R16,z+0
	xcall _Uart0_TX_byte
L71:
	.dbline 135
	inc R20
L73:
	.dbline 135
	cp R20,R22
	brlo L70
	.dbline 136
	sbi 0x15,1
	.dbline -2
	.dbline 137
L69:
	xcall pop_gset2
	.dbline 0 ; func end
	ret
	.dbsym r C 20 c
	.dbsym r Num 22 c
	.dbend
	.dbfunc e Uart1_TX_byte _Uart1_TX_byte fV
;              c -> R16
	.even
_Uart1_TX_byte::
	.dbline -1
	.dbline 140
	.dbline 141
	sts 156,R16
L75:
	.dbline 142
L76:
	.dbline 142
	lds R2,155
	sbrs R2,5
	rjmp L75
	.dbline 143
	lds R24,155
	ori R24,32
	sts 155,R24
	.dbline -2
	.dbline 144
L74:
	.dbline 0 ; func end
	ret
	.dbsym r c 16 c
	.dbend
	.dbfunc e Uart1_TX_bytes _Uart1_TX_bytes fV
;              C -> R20
;            Num -> R22
	.even
_Uart1_TX_bytes::
	xcall push_gset2
	mov R22,R16
	.dbline -1
	.dbline 147
	.dbline 150
	clr R20
	xjmp L82
L79:
	.dbline 150
	ldi R24,<_UART1_TX_DATA
	ldi R25,>_UART1_TX_DATA
	mov R30,R20
	clr R31
	add R30,R24
	adc R31,R25
	ldd R16,z+0
	xcall _Uart1_TX_bytes
L80:
	.dbline 150
	inc R20
L82:
	.dbline 150
	cp R20,R22
	brlo L79
	.dbline -2
	.dbline 152
L78:
	xcall pop_gset2
	.dbline 0 ; func end
	ret
	.dbsym r C 20 c
	.dbsym r Num 22 c
	.dbend
	.dbfunc e adc_init _adc_init fV
	.even
_adc_init::
	.dbline -1
	.dbline 156
	.dbline 157
	clr R2
	out 0x6,R2
	.dbline 158
	out 0x7,R2
	.dbline 159
	out 0x6,R2
	.dbline -2
	.dbline 160
L83:
	.dbline 0 ; func end
	ret
	.dbend
	.dbfunc e ADC_PROCESS _ADC_PROCESS fI
;            IRD -> R16
;      TEMP_DATA -> R18,R19
	.even
_ADC_PROCESS::
	.dbline -1
	.dbline 163
	.dbline 164
	clr R18
	clr R19
	.dbline 167
	ldi R24,158
	out 0x6,R24
	.dbline 168
	ldi R24,66
	out 0x7,R24
	.dbline 169
	sei
	.dbline 170
	clr R2
	sts _adc_flagg,R2
	.dbline 171
	sbi 0x6,6
L85:
	.dbline 172
L86:
	.dbline 172
	lds R2,_adc_flagg
	tst R2
	breq L85
	.dbline 173
	in R24,0x6
	andi R24,191
	out 0x6,R24
	.dbline 174
	cli
	.dbline 175
	lds R18,_ADC_DATAS
	lds R19,_ADC_DATAS+1
	andi R19,3
	.dbline 176
	movw R16,R18
	lsr R17
	ror R16
	lsr R17
	ror R16
	.dbline 177
	clr R2
	out 0x6,R2
	.dbline 179
	sei
	.dbline 180
	clr R17
	.dbline -2
L84:
	.dbline 0 ; func end
	ret
	.dbsym r IRD 16 c
	.dbsym r TEMP_DATA 18 i
	.dbend
	.dbfunc e KEY_Scan _KEY_Scan fV
;          delay -> R16,R17
	.even
_KEY_Scan::
	.dbline -1
	.dbline 185
	.dbline 189
	sbic 0x16,4
	rjmp L89
	.dbline 190
	.dbline 192
	clr R16
	clr R17
L91:
	.dbline 192
	NOP
L92:
	.dbline 192
	subi R16,255  ; offset = 1
	sbci R17,255
	.dbline 192
	cpi R16,16
	ldi R30,39
	cpc R17,R30
	brlt L91
	.dbline 193
	sbic 0x16,4
	rjmp L98
	.dbline 193
	ldi R24,1
	sts _KEY_Flag,R24
	xjmp L98
L97:
	.dbline 194
	NOP
L98:
	.dbline 194
	sbis 0x16,4
	rjmp L97
	.dbline 196
	xjmp L90
L89:
	.dbline 197
	sbic 0x16,5
	rjmp L100
	.dbline 198
	.dbline 200
	clr R16
	clr R17
L102:
	.dbline 200
	NOP
L103:
	.dbline 200
	subi R16,255  ; offset = 1
	sbci R17,255
	.dbline 200
	cpi R16,16
	ldi R30,39
	cpc R17,R30
	brlt L102
	.dbline 201
	sbic 0x16,5
	rjmp L109
	.dbline 201
	ldi R24,2
	sts _KEY_Flag,R24
	xjmp L109
L108:
	.dbline 202
	NOP
L109:
	.dbline 202
	sbis 0x16,5
	rjmp L108
	.dbline 204
	xjmp L101
L100:
	.dbline 231
	clr R2
	sts _KEY_Flag,R2
L101:
L90:
	.dbline -2
	.dbline 232
L88:
	.dbline 0 ; func end
	ret
	.dbsym r delay 16 I
	.dbend
	.dbfunc e KEY1_Function _KEY1_Function fV
	.even
_KEY1_Function::
	.dbline -1
	.dbline 235
	.dbline 237
	ldi R16,7
	ldi R17,0
	xcall _goline
	.dbline 238
	ldi R16,<L112
	ldi R17,>L112
	xcall _Sput
	.dbline 239
	lds R2,_SW_STATE1
	tst R2
	brne L113
	.dbline 240
	.dbline 241
	ldi R24,208
	sts _UART0_TX_DATA+2,R24
	.dbline 242
	ldi R24,1
	sts _SW_STATE1,R24
	.dbline 243
	xjmp L114
L113:
	.dbline 245
	.dbline 246
	ldi R24,221
	sts _UART0_TX_DATA+2,R24
	.dbline 247
	clr R2
	sts _SW_STATE1,R2
	.dbline 248
L114:
	.dbline 249
	ldi R24,163
	sts _UART0_TX_DATA+1,R24
	.dbline 251
	ldi R16,4
	.dbline -2
	.dbline 254
L111:
	.dbline 0 ; func end
	xjmp _Uart0_TX_bytes
	.dbend
	.dbfunc e KEY2_Function _KEY2_Function fV
	.even
_KEY2_Function::
	.dbline -1
	.dbline 257
	.dbline 259
	ldi R16,7
	ldi R17,0
	xcall _goline
	.dbline 260
	ldi R16,<L119
	ldi R17,>L119
	xcall _Sput
	.dbline 261
	lds R2,_SW_STATE2
	tst R2
	brne L120
	.dbline 262
	.dbline 263
	ldi R24,208
	sts _UART0_TX_DATA+2,R24
	.dbline 264
	ldi R24,1
	sts _SW_STATE2,R24
	.dbline 265
	xjmp L121
L120:
	.dbline 267
	.dbline 268
	ldi R24,221
	sts _UART0_TX_DATA+2,R24
	.dbline 269
	clr R2
	sts _SW_STATE2,R2
	.dbline 270
L121:
	.dbline 271
	ldi R24,164
	sts _UART0_TX_DATA+1,R24
	.dbline 273
	ldi R16,4
	.dbline -2
	.dbline 275
L118:
	.dbline 0 ; func end
	xjmp _Uart0_TX_bytes
	.dbend
	.dbfunc e KEY_Function _KEY_Function fV
	.even
_KEY_Function::
	xcall push_gset1
	.dbline -1
	.dbline 296
	.dbline 297
	lds R20,_KEY_Flag
	clr R21
	cpi R20,0
	cpc R20,R21
	breq L131
X6:
	cpi R20,1
	ldi R30,0
	cpc R21,R30
	breq L129
	cpi R20,2
	ldi R30,0
	cpc R21,R30
	breq L130
	xjmp L126
X7:
	.dbline 298
; 	{
L129:
	.dbline 299
; 	case 1:  KEY1_Function(); KEY_Flag = 0;
	xcall _KEY1_Function
	.dbline 299
	clr R2
	sts _KEY_Flag,R2
	.dbline 300
; 		break;
	xjmp L127
L130:
	.dbline 301
; 	case 2:  KEY2_Function(); KEY_Flag = 0;
	xcall _KEY2_Function
	.dbline 301
	clr R2
	sts _KEY_Flag,R2
	.dbline 302
; 		break;
	xjmp L127
L131:
	.dbline 311
; 	/***
; 	case 3: clear(CS1+CS2); KEY3_Function(); KEY_Flag = 0;
; 		break;
; 	case 4: clear(CS1+CS2); KEY4_Function(); KEY_Flag = 0;
; 		break;
; 	case 5: clear(CS1+CS2); KEY5_Function(); KEY_Flag = 0;
; 		break;
; 	**/	
; 	case 0: KEY_Flag = 0;
	clr R2
	sts _KEY_Flag,R2
	.dbline 312
; 		break;			
L126:
L127:
	.dbline -2
	.dbline 314
; 	}
; } 
L125:
	xcall pop_gset1
	.dbline 0 ; func end
	ret
	.dbend
	.dbfunc e LEVEL_CONVERT _LEVEL_CONVERT fV
;          LEVEL -> <dead>
;        LEVEL_V -> R20
	.even
_LEVEL_CONVERT::
	xcall push_gset1
	mov R20,R16
	.dbline -1
	.dbline 317
; 
; void LEVEL_CONVERT(BYTE LEVEL_V)
; {
	.dbline 319
;  BYTE LEVEL;
;  goline(6);
	ldi R16,6
	ldi R17,0
	xcall _goline
	.dbline 320
; if(LEVEL_V>= 200)
	cpi R20,200
	brlo L133
	.dbline 321
;       Sput("LIGHT LEVEL 15");
	ldi R16,<L135
	ldi R17,>L135
	xcall _Sput
	xjmp L134
L133:
	.dbline 322
;     else if(LEVEL_V >=190 && LEVEL_V < 200)
	cpi R20,190
	brlo L136
	cpi R20,200
	brsh L136
	.dbline 323
; 	        Sput("LIGHT LEVEL 14");           
	ldi R16,<L138
	ldi R17,>L138
	xcall _Sput
	xjmp L137
L136:
	.dbline 324
;     else if(LEVEL_V >=180 && LEVEL_V < 190)
	cpi R20,180
	brlo L139
	cpi R20,190
	brsh L139
	.dbline 325
;             Sput("LIGHT LEVEL 13");  
	ldi R16,<L141
	ldi R17,>L141
	xcall _Sput
	xjmp L140
L139:
	.dbline 326
;     else if(LEVEL_V >=170 && LEVEL_V < 180)
	cpi R20,170
	brlo L142
	cpi R20,180
	brsh L142
	.dbline 327
;             Sput("LIGHT LEVEL 12");  
	ldi R16,<L144
	ldi R17,>L144
	xcall _Sput
	xjmp L143
L142:
	.dbline 328
;     else if(LEVEL_V >=160 && LEVEL_V < 170)
	cpi R20,160
	brlo L145
	cpi R20,170
	brsh L145
	.dbline 329
;             Sput("LIGHT LEVEL 11"); 
	ldi R16,<L147
	ldi R17,>L147
	xcall _Sput
	xjmp L146
L145:
	.dbline 330
;     else if(LEVEL_V >=150 && LEVEL_V < 160)
	cpi R20,150
	brlo L148
	cpi R20,160
	brsh L148
	.dbline 331
;             Sput("LIGHT LEVEL 10"); 
	ldi R16,<L150
	ldi R17,>L150
	xcall _Sput
	xjmp L149
L148:
	.dbline 332
;     else if(LEVEL_V >=140 && LEVEL_V < 150)
	cpi R20,140
	brlo L151
	cpi R20,150
	brsh L151
	.dbline 333
;             Sput("LIGHT LEVEL  9");        
	ldi R16,<L153
	ldi R17,>L153
	xcall _Sput
	xjmp L152
L151:
	.dbline 334
;     else if(LEVEL_V >=130 && LEVEL_V < 140)
	cpi R20,130
	brlo L154
	cpi R20,140
	brsh L154
	.dbline 335
;             Sput("LIGHT LEVEL  8"); 
	ldi R16,<L156
	ldi R17,>L156
	xcall _Sput
	xjmp L155
L154:
	.dbline 336
;     else if(LEVEL_V >=120 && LEVEL_V < 130)
	cpi R20,120
	brlo L157
	cpi R20,130
	brsh L157
	.dbline 337
;             Sput("LIGHT LEVEL  7"); 
	ldi R16,<L159
	ldi R17,>L159
	xcall _Sput
	xjmp L158
L157:
	.dbline 338
;     else if(LEVEL_V >=110 && LEVEL_V < 120)
	cpi R20,110
	brlo L160
	cpi R20,120
	brsh L160
	.dbline 339
;             Sput("LIGHT LEVEL  6");  
	ldi R16,<L162
	ldi R17,>L162
	xcall _Sput
	xjmp L161
L160:
	.dbline 340
;     else if(LEVEL_V >=100 && LEVEL_V < 110)
	cpi R20,100
	brlo L163
	cpi R20,110
	brsh L163
	.dbline 341
;             Sput("LIGHT LEVEL  5");     
	ldi R16,<L165
	ldi R17,>L165
	xcall _Sput
	xjmp L164
L163:
	.dbline 342
;     else if(LEVEL_V >=90 && LEVEL_V < 100)
	cpi R20,90
	brlo L166
	cpi R20,100
	brsh L166
	.dbline 343
;             Sput("LIGHT LEVEL  4");     
	ldi R16,<L168
	ldi R17,>L168
	xcall _Sput
	xjmp L167
L166:
	.dbline 344
;     else if(LEVEL_V >=80 && LEVEL_V  < 90)
	cpi R20,80
	brlo L169
	cpi R20,90
	brsh L169
	.dbline 345
;             Sput("LIGHT LEVEL  3");                 
	ldi R16,<L171
	ldi R17,>L171
	xcall _Sput
	xjmp L170
L169:
	.dbline 346
;     else if(LEVEL_V >=70 && LEVEL_V < 80)
	cpi R20,70
	brlo L172
	cpi R20,80
	brsh L172
	.dbline 347
;             Sput("LIGHT LEVEL  2");        
	ldi R16,<L174
	ldi R17,>L174
	xcall _Sput
	xjmp L173
L172:
	.dbline 348
;     else if(LEVEL_V >=60 && LEVEL_V < 70)
	cpi R20,60
	brlo L175
	cpi R20,70
	brsh L175
	.dbline 349
;             Sput("LIGHT LEVEL  1");   
	ldi R16,<L177
	ldi R17,>L177
	xcall _Sput
	xjmp L176
L175:
	.dbline 350
;     else if(LEVEL_V >=50 && LEVEL_V < 60)
	cpi R20,50
	brlo L178
	cpi R20,60
	brsh L178
	.dbline 351
;             Sput("LIGHT LEVEL  0");   
	ldi R16,<L180
	ldi R17,>L180
	xcall _Sput
L178:
L176:
L173:
L170:
L167:
L164:
L161:
L158:
L155:
L152:
L149:
L146:
L143:
L140:
L137:
L134:
	.dbline -2
	.dbline 353
;     
; }
L132:
	xcall pop_gset1
	.dbline 0 ; func end
	ret
	.dbsym l LEVEL 1 c
	.dbsym r LEVEL_V 20 c
	.dbend
	.dbfunc e DATA_IDENTIFY _DATA_IDENTIFY fI
;              i -> R22
;          TEMP2 -> R10
;          TEMP1 -> R20
	.even
_DATA_IDENTIFY::
	xcall push_gset3
	.dbline -1
	.dbline 356
;  
; DATA_IDENTIFY(void)
; {
	.dbline 357
; BYTE TEMP1 = ID_OK;
	ldi R20,51
	.dbline 358
; BYTE TEMP2 = ID_OK;
	ldi R24,51
	mov R10,R24
	.dbline 360
; 
; if(UART1_RX_DATA[3] == 0x0F)
	lds R24,_UART1_RX_DATA+3
	cpi R24,15
	breq X8
	xjmp L182
X8:
	.dbline 361
; 	    {
	.dbline 364
; 		BYTE i;		
; 		
; 	    for(i=0;i<5;i++)
	clr R22
	xjmp L188
L185:
	.dbline 365
; 	       {		   
	.dbline 366
; 		   if(ID_VALUE1[i] != UART1_RX_DATA[i+4])		      
	ldi R24,<_UART1_RX_DATA+4
	ldi R25,>_UART1_RX_DATA+4
	mov R30,R22
	clr R31
	add R30,R24
	adc R31,R25
	ldd R2,z+0
	ldi R24,<_ID_VALUE1
	ldi R25,>_ID_VALUE1
	mov R30,R22
	clr R31
	add R30,R24
	adc R31,R25
	lpm R30,Z
	cp R30,R2
	breq L189
	.dbline 367
; 		      {TEMP1 = ID_FAIL;LED_Zig_OFF;} 		      	     
	.dbline 367
	ldi R20,102
	.dbline 367
	sbi 0x15,0
	.dbline 367
L189:
	.dbline 368
L186:
	.dbline 364
	inc R22
L188:
	.dbline 364
	cpi R22,5
	brlo L185
	.dbline 370
; 		   }		
; 		
; 	    for(i=0;i<5;i++)
	clr R22
	xjmp L195
L192:
	.dbline 371
; 	       {
	.dbline 372
; 		   if(ID_VALUE2[i] != UART1_RX_DATA[i+4])		      
	ldi R24,<_UART1_RX_DATA+4
	ldi R25,>_UART1_RX_DATA+4
	mov R30,R22
	clr R31
	add R30,R24
	adc R31,R25
	ldd R2,z+0
	ldi R24,<_ID_VALUE2
	ldi R25,>_ID_VALUE2
	mov R30,R22
	clr R31
	add R30,R24
	adc R31,R25
	lpm R30,Z
	cp R30,R2
	breq L196
	.dbline 373
; 		      TEMP2 = ID_FAIL;   
	ldi R24,102
	mov R10,R24
L196:
	.dbline 374
L193:
	.dbline 370
	inc R22
L195:
	.dbline 370
	cpi R22,5
	brlo L192
	.dbline 376
; 		   }	
; 		
; 	    if(TEMP1 == ID_FAIL )
	cpi R20,102
	brne L199
	.dbline 377
; 	       {  
	.dbline 378
; 		   if(TEMP2 == ID_FAIL )
	mov R24,R10
	cpi R24,102
	brne L201
	.dbline 379
; 		       {
	.dbline 380
; 	           goline(3);
	ldi R16,3
	ldi R17,0
	xcall _goline
	.dbline 381
;                Sput("DATA FAIL");
	ldi R16,<L203
	ldi R17,>L203
	xcall _Sput
	.dbline 382
; 			   return ID_FAIL;
	ldi R16,102
	ldi R17,0
	xjmp L181
L201:
	.dbline 385
; 	           }
; 		   else
; 		       { 
	.dbline 386
; 		       goline(3);
	ldi R16,3
	ldi R17,0
	xcall _goline
	.dbline 387
;                Sput("DATA OK  ");
	ldi R16,<L204
	ldi R17,>L204
	xcall _Sput
	.dbline 388
; 			   return ID_OK;			 
	ldi R16,51
	ldi R17,0
	xjmp L181
L199:
	.dbline 391
; 		       }	
; 		   }   	   
; 	    else if(TEMP1 == ID_OK)	    
	cpi R20,51
	brne L205
	.dbline 392
; 		   {	
	.dbline 393
; 		     goline(3);
	ldi R16,3
	ldi R17,0
	xcall _goline
	.dbline 394
;              Sput("DATA OK  ");
	ldi R16,<L204
	ldi R17,>L204
	xcall _Sput
	.dbline 395
; 			 return ID_OK;
	ldi R16,51
	ldi R17,0
L205:
	.dbline 398
L182:
	.dbline -2
	.dbline 400
; 		   }
; 		
; 	    }	
; 
; }
L181:
	xcall pop_gset3
	.dbline 0 ; func end
	ret
	.dbsym r i 22 c
	.dbsym r TEMP2 10 c
	.dbsym r TEMP1 20 c
	.dbend
	.dbfunc e init_devices _init_devices fV
	.even
_init_devices::
	.dbline -1
	.dbline 405
; 
; 
; 
; void init_devices(void)
; {
	.dbline 407
;  //stop errant interrupts until set up
;  CLI(); //disable all interrupts
	cli
	.dbline 408
;  XDIV  = 0x00; //xtal divider
	clr R2
	out 0x3c,R2
	.dbline 409
;  XMCRA = 0x00; //external memory
	sts 109,R2
	.dbline 410
;  port_init();
	xcall _port_init
	.dbline 411
;  Uart0_init();  //38400
	xcall _Uart0_init
	.dbline 412
;  Uart1_init();  //38400
	xcall _Uart1_init
	.dbline 413
;  adc_init();
	xcall _adc_init
	.dbline 414
;  UART0_RX_Flag = UART1_RX_Flag = OFF;
	clr R2
	sts _UART1_RX_Flag,R2
	sts _UART0_RX_Flag,R2
	.dbline 415
;  UART1_RX_Count = UART1_RX_Count = 0; 
	sts _UART1_RX_Count,R2
	sts _UART1_RX_Count,R2
	.dbline 416
;  UART_RX_FL = OFF;
	sts _UART_RX_FL,R2
	.dbline 417
;  UART0_TX_DATA[0]= STX;
	ldi R24,2
	sts _UART0_TX_DATA,R24
	.dbline 418
;  UART0_TX_DATA[3]= ETX;
	ldi R24,3
	sts _UART0_TX_DATA+3,R24
	.dbline 419
;  adc_flagg = OFF;
	clr R2
	sts _adc_flagg,R2
	.dbline 420
;  TIME_flag = OFF;
	sts _TIME_flag,R2
	.dbline 421
;  TIME3_flag = OFF;
	sts _TIME3_flag,R2
	.dbline 422
;  T_COUNT = 0;
	clr R3
	sts _T_COUNT+1,R3
	sts _T_COUNT,R2
	.dbline 423
;  RFID_COUNT =0;
	sts _RFID_COUNT,R2
	.dbline 424
;  SW_STATE1 = OFF;
	sts _SW_STATE1,R2
	.dbline 425
;  SW_STATE2 = OFF;
	sts _SW_STATE2,R2
	.dbline 427
; 
;  MCUCR = 0x00;
	out 0x35,R2
	.dbline 428
;  EICRA = 0x00; //extended ext ints
	sts 106,R2
	.dbline 429
;  EICRB = 0x00; //extended ext ints
	clr R2
	out 0x3a,R2
	.dbline 430
;  EIMSK = 0x00;
	out 0x39,R2
	.dbline 431
;  TIMSK = 0x00; //timer interrupt sources
	out 0x37,R2
	.dbline 432
;  ETIMSK = 0x00; //extended timer interrupt sources 
	sts 125,R2
	.dbline 433
;  SEI(); //re-enable interrupts
	sei
	.dbline -2
	.dbline 437
;  //all peripherals are now initialized
;  
;  
; }
L207:
	.dbline 0 ; func end
	ret
	.dbend
	.dbfunc e main _main fV
;     TEMP_VALUE -> R10,R11
;          count -> R20,R21
	.even
_main::
	.dbline -1
	.dbline 448
; 
; 
; 
; 
; 
; 
; 
; 
; 
; void main(void)
; {
	.dbline 452
; int count;
; 
; 
; init_devices();
	xcall _init_devices
	.dbline 457
; //LCD_en();
; 
; 
; 
; LED_Zig_ON;
	cbi 0x15,0
	.dbline 458
; LED_3150_ON;
	cbi 0x15,1
	.dbline 459
	clr R20
	clr R21
L210:
	.dbline 459
	NOP
L211:
	.dbline 459
; for(count=0; count <10000; count++) asm("NOP");
	subi R20,255  ; offset = 1
	sbci R21,255
	.dbline 459
	cpi R20,16
	ldi R30,39
	cpc R21,R30
	brlt L210
	.dbline 461
; 
; LCD_en();
	xcall _LCD_en
	.dbline 463
; 
; goline(0);
	clr R16
	clr R17
	xcall _goline
	.dbline 464
; Sput("PL3150 TO AVR");
	ldi R16,<L214
	ldi R17,>L214
	xcall _Sput
	.dbline 466
; 
; LED_Zig_OFF;
	sbi 0x15,0
	.dbline 467
; LED_3150_OFF;
	sbi 0x15,1
	.dbline 469
; 
; TCCR1B = 0x00; //stop
	clr R2
	out 0x2e,R2
	.dbline 470
; TCNT1H = 0x00; //reload counter high value
	out 0x2d,R2
	.dbline 471
; TCNT1L = 0x01; //reload counter low value
	ldi R24,1
	out 0x2c,R24
	.dbline 472
; TCCR1B = 0x04; //start Timer
	ldi R24,4
	out 0x2e,R24
	.dbline 473
; TIMSK  = 0x04; // Timer 1 ŔÎĹÍ·´Ć®˝ĂŔŰ. 
	out 0x37,R24
	xjmp L216
L215:
	.dbline 476
; 
; while(1)
; {
	.dbline 477
;  KEY_Scan();
	xcall _KEY_Scan
	.dbline 478
;  KEY_Function();
	xcall _KEY_Function
	.dbline 480
; 
; if(UART1_RX_Flag)
	lds R2,_UART1_RX_Flag
	tst R2
	breq L218
	.dbline 481
;  	{	
	.dbline 483
; 	//CLI(); //disable all interrupts
; 	UART1_RX_Flag = OFF;
	clr R2
	sts _UART1_RX_Flag,R2
	.dbline 486
; 	
; 	//clear(CS1+CS2);
; 	goline(2);
	ldi R16,2
	ldi R17,0
	xcall _goline
	.dbline 487
;     Sput("RFID RECEVE    ");
	ldi R16,<L220
	ldi R17,>L220
	xcall _Sput
	.dbline 489
; 	
; 	UART0_TX_DATA[2] = DATA_IDENTIFY();	
	xcall _DATA_IDENTIFY
	sts _UART0_TX_DATA+2,R16
	.dbline 491
; 	
; 	if(UART0_TX_DATA[2]==ID_OK)
	cpi R16,51
	brne L222
	.dbline 492
; 	   LED_DATAMATCH_ON;
	cbi 0x15,2
	xjmp L223
L222:
	.dbline 494
; 	else
; 	   LED_DATAMATCH_OFF; 
	sbi 0x15,2
L223:
	.dbline 495
; 	UART0_TX_DATA[1]= RFID;  
	ldi R24,161
	sts _UART0_TX_DATA+1,R24
	.dbline 496
; 	Uart0_TX_bytes(4);
	ldi R16,4
	xcall _Uart0_TX_bytes
	.dbline 497
;     TCCR3B = 0x00; //stop
	clr R2
	sts 138,R2
	.dbline 498
;     TCNT3H = 0x1F; //setup
	ldi R24,31
	sts 137,R24
	.dbline 499
;     TCNT3L = 0x01;
	ldi R24,1
	sts 136,R24
	.dbline 500
;     TCCR3A = 0x00;
	sts 139,R2
	.dbline 501
;     TCCR3B = 0x04; //start Timer
	ldi R24,4
	sts 138,R24
	.dbline 502
; 	ETIMSK = 0x04;
	sts 125,R24
	.dbline 503
; 	SEI(); //re-enable interrupts 
	sei
	.dbline 505
; 	     
;  	}
L218:
	.dbline 507
; 	
; if(UART_RX_FL)
	lds R2,_UART_RX_FL
	tst R2
	breq L226
	.dbline 508
;   {
	.dbline 509
;   UART_RX_FL = OFF;
	clr R2
	sts _UART_RX_FL,R2
	.dbline 510
;   if(UART1_RX_DATA[3] == 0xF0)
	lds R24,_UART1_RX_DATA+3
	cpi R24,240
	brne L228
	.dbline 511
;     {	
	.dbline 512
; 	UART1_RX_Count = 0;
	sts _UART1_RX_Count,R2
	.dbline 513
; 	goline(2);
	ldi R16,2
	ldi R17,0
	xcall _goline
	.dbline 514
;     Sput("RFID ID RECEVE");
	ldi R16,<L231
	ldi R17,>L231
	xcall _Sput
	.dbline 515
; 	}
L228:
	.dbline 516
;   }  
L226:
	.dbline 518
;   	
; if(UART0_RX_Flag)
	lds R2,_UART0_RX_Flag
	tst R2
	brne X11
	xjmp L232
X11:
	.dbline 519
;   {
	.dbline 522
;   WORD TEMP_VALUE; 
;     
;   UART0_RX_Flag = OFF;
	clr R2
	sts _UART0_RX_Flag,R2
	.dbline 524
;   
;   switch(UART0_RX_DATA[1])
	lds R22,_UART0_RX_DATA+1
	clr R23
	cpi R22,224
	ldi R30,0
	cpc R23,R30
	breq L238
	cpi R22,225
	ldi R30,0
	cpc R23,R30
	brne X12
	xjmp L251
X12:
	cpi R22,226
	ldi R30,0
	cpc R23,R30
	breq L244
	xjmp L234
X9:
	.dbline 525
;      {	 
L238:
	.dbline 526
; 	 case GAS : if(UART0_RX_DATA[2] >= 25)
	lds R24,_UART0_RX_DATA+2
	cpi R24,25
	brlo L239
	.dbline 527
; 	                {
	.dbline 528
; 	                goline(4);
	ldi R16,4
	ldi R17,0
	xcall _goline
	.dbline 529
;                     Sput("GAS SENSING");
	ldi R16,<L242
	ldi R17,>L242
	xcall _Sput
	.dbline 530
; 					}
	xjmp L235
L239:
	.dbline 532
; 				 else
; 				   	{
	.dbline 533
; 	                goline(4);
	ldi R16,4
	ldi R17,0
	xcall _goline
	.dbline 534
;                     Sput("GAS NO SENSING");
	ldi R16,<L243
	ldi R17,>L243
	xcall _Sput
	.dbline 535
; 					}
	.dbline 536
; 				 break;				 
	xjmp L235
L244:
	.dbline 537
; 	 case TEMP : TEMP_VALUE = UART0_RX_DATA[3];
	lds R10,_UART0_RX_DATA+3
	clr R11
	.dbline 538
; 	             TEMP_VALUE |= (unsigned int)UART0_RX_DATA[2] <<8;					 
	lds R2,_UART0_RX_DATA+2
	clr R3
	mov R3,R2
	clr R2
	or R10,R2
	or R11,R3
	.dbline 539
; 				 if(TEMP_VALUE >= 130)
	movw R24,R10
	cpi R24,130
	ldi R30,0
	cpc R25,R30
	brlo L247
	.dbline 540
; 				    {	 	
	.dbline 541
; 					goline(5);
	ldi R16,5
	ldi R17,0
	xcall _goline
	.dbline 542
;                     Sput("TEMP UP AIRCON ON ");
	ldi R16,<L249
	ldi R17,>L249
	xcall _Sput
	.dbline 543
; 					}
	xjmp L235
L247:
	.dbline 545
; 			     else
; 				    {	 	
	.dbline 546
; 					goline(5);
	ldi R16,5
	ldi R17,0
	xcall _goline
	.dbline 547
;                     Sput("TEMP DW AIRCON OFF");
	ldi R16,<L250
	ldi R17,>L250
	xcall _Sput
	.dbline 548
; 					}	
	.dbline 549
; 		         break;			
	xjmp L235
L251:
	.dbline 550
; 	 case CDS : LEVEL_CONVERT(UART0_RX_DATA[2]);
	lds R16,_UART0_RX_DATA+2
	xcall _LEVEL_CONVERT
	.dbline 551
; 	             break;
L234:
L235:
	.dbline 555
; 	 
; 	 }					
;   
;   }
L232:
	.dbline 556
; if(TIME3_flag)
	lds R2,_TIME3_flag
	tst R2
	breq L253
	.dbline 557
;   {
	.dbline 558
;   TIME3_flag = OFF;
	clr R2
	sts _TIME3_flag,R2
	.dbline 559
;   RFID_COUNT++; 
	lds R24,_RFID_COUNT
	subi R24,255    ; addi 1
	sts _RFID_COUNT,R24
	.dbline 560
;   if(RFID_COUNT >= 2)
	cpi R24,2
	brlo L255
	.dbline 561
;       {
	.dbline 562
; 	  TCCR3B = 0x00;
	sts 138,R2
	.dbline 563
; 	  ETIMSK = 0x00;
	sts 125,R2
	.dbline 564
; 	  RFID_COUNT = 0;
	sts _RFID_COUNT,R2
	.dbline 565
; 	  UART0_TX_DATA[1]= RFID; 
	ldi R24,161
	sts _UART0_TX_DATA+1,R24
	.dbline 566
; 	  UART0_TX_DATA[2]= ID_FAIL;  
	ldi R24,102
	sts _UART0_TX_DATA+2,R24
	.dbline 567
; 	  Uart0_TX_bytes(4);
	ldi R16,4
	xcall _Uart0_TX_bytes
	.dbline 568
;       LED_DATAMATCH_OFF;	  
	sbi 0x15,2
	.dbline 569
; 	  }
L255:
	.dbline 570
;    }  
L253:
	.dbline 572
; 	
; if(TIME_flag == ON)
	lds R24,_TIME_flag
	cpi R24,1
	breq X13
	xjmp L259
X13:
	.dbline 573
;   { 
	.dbline 574
;   T_COUNT++;
	lds R24,_T_COUNT
	lds R25,_T_COUNT+1
	adiw R24,1
	sts _T_COUNT+1,R25
	sts _T_COUNT,R24
	.dbline 575
;   TIME_flag = 0;
	clr R2
	sts _TIME_flag,R2
	.dbline 579
;   //if(T_COUNT >= 1)
;   //   {
; 	 
; 	 TCCR1B = 0x00; //stop
	out 0x2e,R2
	.dbline 581
; 	 //LED_Zig_ON;
; 	 T_COUNT = 0; TIME_flag = OFF; 
	clr R3
	sts _T_COUNT+1,R3
	sts _T_COUNT,R2
	.dbline 581
	sts _TIME_flag,R2
	.dbline 582
;      IRSEND = ADC_PROCESS();	 
	xcall _ADC_PROCESS
	sts _IRSEND,R16
	.dbline 583
; 	 if(IRSEND >= 30)
	cpi R16,30
	brlo L261
	.dbline 584
; 	    {		
	.dbline 586
; 		//clear(CS1+CS2);	    
; 	    LED_IRSEN_ON;
	cbi 0x15,3
	.dbline 587
; 		goline(1);
	ldi R16,1
	ldi R17,0
	xcall _goline
	.dbline 588
;         Sput("IR SENSING");
	ldi R16,<L263
	ldi R17,>L263
	xcall _Sput
	.dbline 589
; 		UART0_TX_DATA[0] = STX;
	ldi R24,2
	sts _UART0_TX_DATA,R24
	.dbline 590
; 		UART0_TX_DATA[1] = IRSEN;        
	ldi R24,162
	sts _UART0_TX_DATA+1,R24
	.dbline 591
; 		UART0_TX_DATA[2] = IR_OK;
	ldi R24,85
	sts _UART0_TX_DATA+2,R24
	.dbline 592
; 		UART0_TX_DATA[3] = ETX;		
	ldi R24,3
	sts _UART0_TX_DATA+3,R24
	.dbline 593
; 	    Uart0_TX_bytes(4);	
	ldi R16,4
	xcall _Uart0_TX_bytes
	.dbline 594
; 		}
	xjmp L262
L261:
	.dbline 596
;      else
; 	    {
	.dbline 597
; 		goline(1);
	ldi R16,1
	ldi R17,0
	xcall _goline
	.dbline 598
;         Sput("           ");
	ldi R16,<L267
	ldi R17,>L267
	xcall _Sput
	.dbline 599
; 	    LED_IRSEN_OFF;	
	sbi 0x15,3
	.dbline 600
; 		UART0_TX_DATA[0] = STX;
	ldi R24,2
	sts _UART0_TX_DATA,R24
	.dbline 601
; 		UART0_TX_DATA[1] = IRSEN;        
	ldi R24,162
	sts _UART0_TX_DATA+1,R24
	.dbline 602
; 		UART0_TX_DATA[2] = IR_NO;
	ldi R24,119
	sts _UART0_TX_DATA+2,R24
	.dbline 603
; 		UART0_TX_DATA[3] = ETX;		
	ldi R24,3
	sts _UART0_TX_DATA+3,R24
	.dbline 604
; 	    Uart0_TX_bytes(4);	
	ldi R16,4
	xcall _Uart0_TX_bytes
	.dbline 605
; 		}	
L262:
	.dbline 608
; 	 //TCNT1H = 0x02; //reload counter high value
;      //TCNT1L = 0x01;		 
; 	 TCCR1B = 0x04; 
	ldi R24,4
	out 0x2e,R24
	.dbline 612
; 	 //LED_Zig_OFF; 
; 	 //LED_3150_OFF;
;    //  }
;   }	 
L259:
	.dbline 617
L216:
	.dbline 475
	xjmp L215
X10:
	.dbline -2
	.dbline 622
;     
; 
; 
; 
; }
; 
; 
; 
; 
; }
L209:
	.dbline 0 ; func end
	ret
	.dbsym r TEMP_VALUE 10 i
	.dbsym r count 20 I
	.dbend
	.area bss(ram, con, rel)
	.dbfile E:\FW\HN_Device\PLAVR128\3150TO_AVR.c
_T_COUNT::
	.blkb 2
	.dbfile E:\FW\HN_Device\PLAVR128/AVR128.h
	.dbsym e T_COUNT _T_COUNT i
_SW_STATE2::
	.blkb 1
	.dbsym e SW_STATE2 _SW_STATE2 c
_SW_STATE1::
	.blkb 1
	.dbsym e SW_STATE1 _SW_STATE1 c
_IRSEND::
	.blkb 1
	.dbsym e IRSEND _IRSEND c
_RFID_COUNT::
	.blkb 1
	.dbsym e RFID_COUNT _RFID_COUNT c
_TIME3_flag::
	.blkb 1
	.dbsym e TIME3_flag _TIME3_flag c
_TIME_flag::
	.blkb 1
	.dbsym e TIME_flag _TIME_flag c
_adc_flagg::
	.blkb 1
	.dbsym e adc_flagg _adc_flagg c
_ADC_DATAS::
	.blkb 2
	.dbsym e ADC_DATAS _ADC_DATAS i
_HEX_DIS::
	.blkb 10
	.dbsym e HEX_DIS _HEX_DIS A[10:10]c
_KEY_Flag::
	.blkb 1
	.dbsym e KEY_Flag _KEY_Flag c
_UART_RX_FL::
	.blkb 1
	.dbsym e UART_RX_FL _UART_RX_FL c
_UART1_RX_Flag::
	.blkb 1
	.dbsym e UART1_RX_Flag _UART1_RX_Flag c
_UART0_RX_Flag::
	.blkb 1
	.dbsym e UART0_RX_Flag _UART0_RX_Flag c
_UART1_RX_Count::
	.blkb 1
	.dbsym e UART1_RX_Count _UART1_RX_Count c
_UART0_RX_Count::
	.blkb 1
	.dbsym e UART0_RX_Count _UART0_RX_Count c
_UART1_RX_DATA::
	.blkb 50
	.dbsym e UART1_RX_DATA _UART1_RX_DATA A[50:50]c
_UART0_RX_DATA::
	.blkb 50
	.dbsym e UART0_RX_DATA _UART0_RX_DATA A[50:50]c
_UART1_TX_DATA::
	.blkb 50
	.dbsym e UART1_TX_DATA _UART1_TX_DATA A[50:50]c
_UART0_TX_DATA::
	.blkb 50
	.dbsym e UART0_TX_DATA _UART0_TX_DATA A[50:50]c
	.area data(ram, con, rel)
	.dbfile E:\FW\HN_Device\PLAVR128/AVR128.h
L267:
	.blkb 12
	.area idata
	.byte 32,32,32,32,32,32,32,32,32,32,32,0
	.area data(ram, con, rel)
	.dbfile E:\FW\HN_Device\PLAVR128/AVR128.h
L263:
	.blkb 11
	.area idata
	.byte 'I,'R,32,'S,'E,'N,'S,'I,'N,'G,0
	.area data(ram, con, rel)
	.dbfile E:\FW\HN_Device\PLAVR128/AVR128.h
L250:
	.blkb 19
	.area idata
	.byte 'T,'E,'M,'P,32,'D,'W,32,'A,'I,'R,'C,'O,'N,32,'O
	.byte 'F,'F,0
	.area data(ram, con, rel)
	.dbfile E:\FW\HN_Device\PLAVR128/AVR128.h
L249:
	.blkb 19
	.area idata
	.byte 'T,'E,'M,'P,32,'U,'P,32,'A,'I,'R,'C,'O,'N,32,'O
	.byte 'N,32,0
	.area data(ram, con, rel)
	.dbfile E:\FW\HN_Device\PLAVR128/AVR128.h
L243:
	.blkb 15
	.area idata
	.byte 'G,'A,'S,32,'N,'O,32,'S,'E,'N,'S,'I,'N,'G,0
	.area data(ram, con, rel)
	.dbfile E:\FW\HN_Device\PLAVR128/AVR128.h
L242:
	.blkb 12
	.area idata
	.byte 'G,'A,'S,32,'S,'E,'N,'S,'I,'N,'G,0
	.area data(ram, con, rel)
	.dbfile E:\FW\HN_Device\PLAVR128/AVR128.h
L231:
	.blkb 15
	.area idata
	.byte 'R,'F,'I,'D,32,'I,'D,32,'R,'E,'C,'E,'V,'E,0
	.area data(ram, con, rel)
	.dbfile E:\FW\HN_Device\PLAVR128/AVR128.h
L220:
	.blkb 16
	.area idata
	.byte 'R,'F,'I,'D,32,'R,'E,'C,'E,'V,'E,32,32,32,32,0
	.area data(ram, con, rel)
	.dbfile E:\FW\HN_Device\PLAVR128/AVR128.h
L214:
	.blkb 14
	.area idata
	.byte 'P,'L,51,49,53,48,32,'T,'O,32,'A,'V,'R,0
	.area data(ram, con, rel)
	.dbfile E:\FW\HN_Device\PLAVR128/AVR128.h
L204:
	.blkb 10
	.area idata
	.byte 'D,'A,'T,'A,32,'O,'K,32,32,0
	.area data(ram, con, rel)
	.dbfile E:\FW\HN_Device\PLAVR128/AVR128.h
L203:
	.blkb 10
	.area idata
	.byte 'D,'A,'T,'A,32,'F,'A,'I,'L,0
	.area data(ram, con, rel)
	.dbfile E:\FW\HN_Device\PLAVR128/AVR128.h
L180:
	.blkb 15
	.area idata
	.byte 'L,'I,'G,'H,'T,32,'L,'E,'V,'E,'L,32,32,48,0
	.area data(ram, con, rel)
	.dbfile E:\FW\HN_Device\PLAVR128/AVR128.h
L177:
	.blkb 15
	.area idata
	.byte 'L,'I,'G,'H,'T,32,'L,'E,'V,'E,'L,32,32,49,0
	.area data(ram, con, rel)
	.dbfile E:\FW\HN_Device\PLAVR128/AVR128.h
L174:
	.blkb 15
	.area idata
	.byte 'L,'I,'G,'H,'T,32,'L,'E,'V,'E,'L,32,32,50,0
	.area data(ram, con, rel)
	.dbfile E:\FW\HN_Device\PLAVR128/AVR128.h
L171:
	.blkb 15
	.area idata
	.byte 'L,'I,'G,'H,'T,32,'L,'E,'V,'E,'L,32,32,51,0
	.area data(ram, con, rel)
	.dbfile E:\FW\HN_Device\PLAVR128/AVR128.h
L168:
	.blkb 15
	.area idata
	.byte 'L,'I,'G,'H,'T,32,'L,'E,'V,'E,'L,32,32,52,0
	.area data(ram, con, rel)
	.dbfile E:\FW\HN_Device\PLAVR128/AVR128.h
L165:
	.blkb 15
	.area idata
	.byte 'L,'I,'G,'H,'T,32,'L,'E,'V,'E,'L,32,32,53,0
	.area data(ram, con, rel)
	.dbfile E:\FW\HN_Device\PLAVR128/AVR128.h
L162:
	.blkb 15
	.area idata
	.byte 'L,'I,'G,'H,'T,32,'L,'E,'V,'E,'L,32,32,54,0
	.area data(ram, con, rel)
	.dbfile E:\FW\HN_Device\PLAVR128/AVR128.h
L159:
	.blkb 15
	.area idata
	.byte 'L,'I,'G,'H,'T,32,'L,'E,'V,'E,'L,32,32,55,0
	.area data(ram, con, rel)
	.dbfile E:\FW\HN_Device\PLAVR128/AVR128.h
L156:
	.blkb 15
	.area idata
	.byte 'L,'I,'G,'H,'T,32,'L,'E,'V,'E,'L,32,32,56,0
	.area data(ram, con, rel)
	.dbfile E:\FW\HN_Device\PLAVR128/AVR128.h
L153:
	.blkb 15
	.area idata
	.byte 'L,'I,'G,'H,'T,32,'L,'E,'V,'E,'L,32,32,57,0
	.area data(ram, con, rel)
	.dbfile E:\FW\HN_Device\PLAVR128/AVR128.h
L150:
	.blkb 15
	.area idata
	.byte 'L,'I,'G,'H,'T,32,'L,'E,'V,'E,'L,32,49,48,0
	.area data(ram, con, rel)
	.dbfile E:\FW\HN_Device\PLAVR128/AVR128.h
L147:
	.blkb 15
	.area idata
	.byte 'L,'I,'G,'H,'T,32,'L,'E,'V,'E,'L,32,49,49,0
	.area data(ram, con, rel)
	.dbfile E:\FW\HN_Device\PLAVR128/AVR128.h
L144:
	.blkb 15
	.area idata
	.byte 'L,'I,'G,'H,'T,32,'L,'E,'V,'E,'L,32,49,50,0
	.area data(ram, con, rel)
	.dbfile E:\FW\HN_Device\PLAVR128/AVR128.h
L141:
	.blkb 15
	.area idata
	.byte 'L,'I,'G,'H,'T,32,'L,'E,'V,'E,'L,32,49,51,0
	.area data(ram, con, rel)
	.dbfile E:\FW\HN_Device\PLAVR128/AVR128.h
L138:
	.blkb 15
	.area idata
	.byte 'L,'I,'G,'H,'T,32,'L,'E,'V,'E,'L,32,49,52,0
	.area data(ram, con, rel)
	.dbfile E:\FW\HN_Device\PLAVR128/AVR128.h
L135:
	.blkb 15
	.area idata
	.byte 'L,'I,'G,'H,'T,32,'L,'E,'V,'E,'L,32,49,53,0
	.area data(ram, con, rel)
	.dbfile E:\FW\HN_Device\PLAVR128/AVR128.h
L119:
	.blkb 11
	.area idata
	.byte 'K,'E,'Y,32,50,32,'P,'U,'S,'H,0
	.area data(ram, con, rel)
	.dbfile E:\FW\HN_Device\PLAVR128/AVR128.h
L112:
	.blkb 11
	.area idata
	.byte 'K,'E,'Y,32,49,32,'P,'U,'S,'H,0
	.area data(ram, con, rel)
	.dbfile E:\FW\HN_Device\PLAVR128/AVR128.h

